 LOC CODE        LINE   SOURCELINE

                     1   ; TASKING C166/ST10 C compiler v7.5r5 Build 519.1.2 SN ????????
                     2   ; options: -c -g -AF -Be -xmfp -e -s -Ml -znocustack -OaBcdEFghjkLnopQrStUwX -T0
                     3   ;          -w68 -w130 -w150 -w200 -w196 -D_DEBUG -BZc166sv1sp -BZc166sv1cp
                     4   ;          -BZc166sv1sp2 -BZcpu_reti_int -BZc166sv1ext -BK -BZno_cpu_jmpra_cache
                     5   ;          -BM -BZc166sv1div -DPRJ_UW_LOG -mPR=0,4000 -I./include -I.
                     6   ;          -Id:/vme_new/vmesdk/include -D_C166_ARCH=1 -D_DEBUG -I -I.
                     7   $DEBUG
                     8   $NOLOCALS
                     9   $EXTEND
                    10   $NOMOD166
                    11   $STDNAMES(reg.def)
                    12   $SEGMENTED
                    13   $CASE
                    14   $MODEL(LARGE)
                    15   $CHECKMULDIV
                    16   $CHECKCPU21
                    17   $CHECKC166SV1SP
                    18   $CHECKC166SV1CP
                    19   $CHECKC166SV1DIV
                    20   $CHECKC166SV1EXTSEQ
                    21   $CHECKC166SV1SP2
                    22   $CHECKCPURETIINT
                    23           NAME    ME_COMN_C
                    24           ASSUME  DPP3:SYSTEM
                    25           ?SYMB   'me_comn.c',32,80,16
                    26           ?SYMB   '',1,82,0
                    27           ?SYMB   '80166',0,84,0
                    28           ?SYMB   '',0,81,0
                    29           ?SYMB   'void',00H,45,1
                    30           ?SYMB   'char',080000H,45,2
                    31           ?SYMB   'unsigned char',080000H,45,3
                    32           ?SYMB   'short',0100000H,45,4
                    33           ?SYMB   'unsigned short',0100000H,45,5
                    34           ?SYMB   'long',0200000H,45,6
                    35           ?SYMB   'unsigned long',0200000H,45,7
                    36           ?SYMB   'float',0200000H,45,10
                    37           ?SYMB   'double',0400000H,45,11
                    38           ?SYMB   'int',0100000H,45,16
                    39           ?SYMB   'unsigned int',0100000H,45,18
                    40           ?SYMB   'bit',010000H,7,256
                    41           ?SYMB   'me_comn.c',0,29,1
                    42           ?SYMB   '',0,86,1
                    43   ; me_comn.c    1        #include "stdlib.h"
                    44           ?SYMB   './include\stdlib.h',0,29,2
                    45           ?SYMB   '',0,86,2
                    46           ?SYMB   'size_t',18,13,257
                    47           ?SYMB   'T$1',0,40,258
                    48           ?SYMB   'rem',0,23,16
                    49           ?SYMB   'quot',16,23,16
                    50           ?SYMB   '',32,18,0
                    51           ?SYMB   'div_t',258,13,259
                    52           ?SYMB   'T$2',0,40,260
                    53           ?SYMB   'rem',0,23,6
                    54           ?SYMB   'quot',32,23,6
                    55           ?SYMB   '',64,18,0
                    56           ?SYMB   'ldiv_t',260,13,261
                    57           ?SYMB   '',0,86,1
                    58   ; me_comn.c    2        #include "malloc.h"
                    59           ?SYMB   './include\malloc.h',0,29,2
                    60           ?SYMB   '',0,86,2
                    61           ?SYMB   '',0,86,1
                    62   ; me_comn.c    3        #include "window.h"
                    63           ?SYMB   './include\window.h',0,29,2
                    64           ?SYMB   '',0,86,2
                    65           ?SYMB   './include\hpdef.h',0,29,3
                    66           ?SYMB   '',0,86,3
                    67           ?SYMB   'BOOL',16,13,262
                    68           ?SYMB   'BYTE',3,13,263
                    69           ?SYMB   'WORD',5,13,264
                    70           ?SYMB   'IWORD',4,13,265
                    71           ?SYMB   'SHORT',4,13,266
                    72           ?SYMB   'UINT',18,13,267
                    73           ?SYMB   'DWORD',7,13,268
                    74           ?SYMB   '',01a0002H,38,270
                    75           ?SYMB   'LPSTR',270,13,271
                    76           ?SYMB   '',01a0001H,38,273
                    77           ?SYMB   'HANDLE',273,13,274
                    78           ?SYMB   '',0,86,2
                    79           ?SYMB   './include\hp_diag.h',0,29,3
                    80           ?SYMB   '',0,86,3
                    81           ?SYMB   '',0,86,2
                    82           ?SYMB   './include\hp_kern.h',0,29,3
                    83           ?SYMB   '',0,86,3
                    84           ?SYMB   './include\hpdef.h',0,29,4
                    85           ?SYMB   '',0,86,4
                    86           ?SYMB   '',0,86,3
                    87           ?SYMB   'tid_t',16,13,275
                    88           ?SYMB   'pid_t',16,13,276
                    89           ?SYMB   'm_mutex',0,40,277
                    90           ?SYMB   'm_lock',0,23,16
                    91           ?SYMB   'm_wait',16,23,16
                    92           ?SYMB   'm_taskid',32,23,4
                    93           ?SYMB   'm_count',48,23,4
                    94           ?SYMB   'm_flag',64,23,4
                    95           ?SYMB   'm_unused',80,23,4
                    96           ?SYMB   '',96,18,0
                    97           ?SYMB   '',01a0115H,38,279
                    98           ?SYMB   'PMUTEX',279,13,280
                    99           ?SYMB   'OSHANDLE',273,13,281
                   100           ?SYMB   'sysclock_t',7,13,282
                   101           ?SYMB   'HGLOBAL',273,13,283
                   102           ?SYMB   'T$3',0,40,284
                   103           ?SYMB   'StartAddr',0,23,7
                   104           ?SYMB   'initSize',32,23,7
                   105           ?SYMB   'FreeSize',64,23,7
                   106           ?SYMB   '',96,18,0
                   107           ?SYMB   'HeapInfo',284,13,285
                   108           ?SYMB   'HLOCAL',273,13,286
                   109           ?SYMB   '',0,86,2
                   110           ?SYMB   'LONG',6,13,287
                   111           ?SYMB   'HINSTANCE__',0,40,288
                   112           ?SYMB   'unused',0,23,16
                   113           ?SYMB   '',16,18,0
                   114           ?SYMB   '',01a0120H,38,290
                   115           ?SYMB   'HINSTANCE',290,13,291
                   116           ?SYMB   '_SYSTEMTIME',0,40,292
                   117           ?SYMB   'wYear',0,23,264
                   118           ?SYMB   'wMonth',16,23,264
                   119           ?SYMB   'wDayOfWeek',32,23,264
                   120           ?SYMB   'wDay',48,23,264
                   121           ?SYMB   'wHour',64,23,264
                   122           ?SYMB   'wMinute',80,23,264
                   123           ?SYMB   'wSecond',96,23,264
                   124           ?SYMB   'wMilliseconds',112,23,264
                   125           ?SYMB   '',128,18,0
                   126           ?SYMB   '',01a0124H,38,294
                   127           ?SYMB   'PSYSTEMTIME',294,13,295
                   128           ?SYMB   'SYSTEMTIME',292,13,296
                   129           ?SYMB   '',012a0002H,5,297
                   130           ?SYMB   '',16,47,298
                   131           ?SYMB   '',0,30,0
                   132           ?SYMB   '',31,49,0
                   133           ?SYMB   '_TIME_ZONE_INFORMATION',0,40,299
                   134           ?SYMB   'Bias',0,23,287
                   135           ?SYMB   'StandardName',32,23,297
                   136           ?SYMB   'StandardDate',288,23,296
                   137           ?SYMB   'StandardBias',416,23,287
                   138           ?SYMB   'DaylightName',448,23,297
                   139           ?SYMB   'DaylightDate',704,23,296
                   140           ?SYMB   'DaylightBias',832,23,287
                   141           ?SYMB   '',864,18,0
                   142           ?SYMB   '',01a012bH,38,301
                   143           ?SYMB   'PTIME_ZONE_INFORMATION',301,13,302
                   144           ?SYMB   'TIME_ZONE_INFORMATION',299,13,303
                   145           ?SYMB   'PCSTR',270,13,304
                   146           ?SYMB   'HRSRC__',0,40,305
                   147           ?SYMB   'unused',0,23,16
                   148           ?SYMB   '',16,18,0
                   149           ?SYMB   '',01a0131H,38,307
                   150           ?SYMB   'HRSRC',307,13,308
                   151           ?SYMB   'PSTR',270,13,309
                   152           ?SYMB   'WCHAR',5,13,310
                   153           ?SYMB   'LPCSTR',270,13,311
                   154           ?SYMB   '',01a0136H,38,313
                   155           ?SYMB   'LPWSTR',313,13,314
                   156           ?SYMB   'LPCWSTR',313,13,315
                   157           ?SYMB   '',01a0106H,38,317
                   158           ?SYMB   'LPBOOL',317,13,318
                   159           ?SYMB   'COLORREF',268,13,319
                   160           ?SYMB   'LPCTSTR',271,13,320
                   161           ?SYMB   'HDC__',0,40,321
                   162           ?SYMB   'unused',0,23,16
                   163           ?SYMB   '',16,18,0
                   164           ?SYMB   '',01a0141H,38,323
                   165           ?SYMB   'HDC',323,13,324
                   166           ?SYMB   'T$4',0,40,325
                   167           ?SYMB   'cbSize',0,23,16
                   168           ?SYMB   'lpszDocName',16,23,311
                   169           ?SYMB   'lpszOutput',48,23,311
                   170           ?SYMB   'lpszDatatype',80,23,311
                   171           ?SYMB   'fwType',112,23,268
                   172           ?SYMB   '',144,18,0
                   173           ?SYMB   'DOCINFO',325,13,326
                   174           ?SYMB   'tagRECT',0,40,327
                   175           ?SYMB   'left',0,23,287
                   176           ?SYMB   'top',32,23,287
                   177           ?SYMB   'right',64,23,287
                   178           ?SYMB   'bottom',96,23,287
                   179           ?SYMB   '',128,18,0
                   180           ?SYMB   '',01a0147H,38,329
                   181           ?SYMB   'PRECT',329,13,330
                   182           ?SYMB   'tagPOINT',0,40,331
                   183           ?SYMB   'x',0,23,287
                   184           ?SYMB   'y',32,23,287
                   185           ?SYMB   '',64,18,0
                   186           ?SYMB   '',01a014bH,38,333
                   187           ?SYMB   'PPOINT',333,13,334
                   188           ?SYMB   'tagSIZE',0,40,335
                   189           ?SYMB   'cx',0,23,287
                   190           ?SYMB   'cy',32,23,287
                   191           ?SYMB   '',64,18,0
                   192           ?SYMB   '',01a014fH,38,337
                   193           ?SYMB   'PSIZE',337,13,338
                   194           ?SYMB   'RECT',327,13,339
                   195           ?SYMB   'HGDIOBJ',273,13,340
                   196           ?SYMB   'HPEN__',0,40,341
                   197           ?SYMB   'unused',0,23,16
                   198           ?SYMB   '',16,18,0
                   199           ?SYMB   '',01a0155H,38,343
                   200           ?SYMB   'HPEN',343,13,344
                   201           ?SYMB   'POINT',331,13,345
                   202           ?SYMB   'tagLOGPEN',0,40,346
                   203           ?SYMB   'lopnStyle',0,23,267
                   204           ?SYMB   'lopnWidth',16,23,345
                   205           ?SYMB   'lopnColor',80,23,319
                   206           ?SYMB   '',112,18,0
                   207           ?SYMB   'LOGPEN',346,13,347
                   208           ?SYMB   'HBRUSH__',0,40,348
                   209           ?SYMB   'unused',0,23,16
                   210           ?SYMB   '',16,18,0
                   211           ?SYMB   '',01a015cH,38,350
                   212           ?SYMB   'HBRUSH',350,13,351
                   213           ?SYMB   'tagLOGBRUSH',0,40,352
                   214           ?SYMB   'lbStyle',0,23,267
                   215           ?SYMB   'lbColor',16,23,319
                   216           ?SYMB   'lbHatch',48,23,287
                   217           ?SYMB   '',80,18,0
                   218           ?SYMB   'LOGBRUSH',352,13,353
                   219           ?SYMB   'PATTERN',353,13,354
                   220           ?SYMB   'HBITMAP__',0,40,355
                   221           ?SYMB   'unused',0,23,16
                   222           ?SYMB   '',16,18,0
                   223           ?SYMB   '',01a0163H,38,357
                   224           ?SYMB   'HBITMAP',357,13,358
                   225           ?SYMB   'HRGN__',0,40,359
                   226           ?SYMB   'unused',0,23,16
                   227           ?SYMB   '',16,18,0
                   228           ?SYMB   '',01a0167H,38,361
                   229           ?SYMB   'HRGN',361,13,362
                   230           ?SYMB   'HFONT__',0,40,363
                   231           ?SYMB   'unused',0,23,16
                   232           ?SYMB   '',16,18,0
                   233           ?SYMB   '',01a016bH,38,365
                   234           ?SYMB   'HFONT',365,13,366
                   235           ?SYMB   'tagLOGFONT',0,40,367
                   236           ?SYMB   'lfHeight',0,23,287
                   237           ?SYMB   'lfWidth',32,23,287
                   238           ?SYMB   'lfEscapement',64,23,287
                   239           ?SYMB   'lfOrientation',96,23,287
                   240           ?SYMB   'lfWeight',128,23,287
                   241           ?SYMB   'lfItalic',160,23,263
                   242           ?SYMB   'lfUnderline',168,23,263
                   243           ?SYMB   'lfStrikeOut',176,23,263
                   244           ?SYMB   'lfCharSet',184,23,263
                   245           ?SYMB   'lfOutPrecision',192,23,263
                   246           ?SYMB   'lfClipPrecision',200,23,263
                   247           ?SYMB   'lfQuality',208,23,263
                   248           ?SYMB   'lfPitchAndFamily',216,23,263
                   249           ?SYMB   'lfFaceName',224,23,297
                   250           ?SYMB   '',480,18,0
                   251           ?SYMB   'LOGFONT',367,13,368
                   252           ?SYMB   'tagTEXTMETRIC',0,40,369
                   253           ?SYMB   'tmHeight',0,23,287
                   254           ?SYMB   'tmAscent',32,23,287
                   255           ?SYMB   'tmDescent',64,23,287
                   256           ?SYMB   'tmInternalLeading',96,23,287
                   257           ?SYMB   'tmExternalLeading',128,23,287
                   258           ?SYMB   'tmAveCharWidth',160,23,287
                   259           ?SYMB   'tmMaxCharWidth',192,23,287
                   260           ?SYMB   'tmWeight',224,23,287
                   261           ?SYMB   'tmOverhang',256,23,287
                   262           ?SYMB   'tmDigitizedAspectX',288,23,287
                   263           ?SYMB   'tmDigitizedAspectY',320,23,287
                   264           ?SYMB   'tmFirstChar',352,23,263
                   265           ?SYMB   'tmLastChar',360,23,263
                   266           ?SYMB   'tmDefaultChar',368,23,263
                   267           ?SYMB   'tmBreakChar',376,23,263
                   268           ?SYMB   'tmItalic',384,23,263
                   269           ?SYMB   'tmUnderlined',392,23,263
                   270           ?SYMB   'tmStruckOut',400,23,263
                   271           ?SYMB   'tmPitchAndFamily',408,23,263
                   272           ?SYMB   'tmCharSet',416,23,263
                   273           ?SYMB   '',432,18,0
                   274           ?SYMB   '',01a0171H,38,371
                   275           ?SYMB   'PTEXTMETRIC',371,13,372
                   276           ?SYMB   'tagBITMAPINFOHEADER',0,40,373
                   277           ?SYMB   'biSize',0,23,268
                   278           ?SYMB   'biWidth',32,23,287
                   279           ?SYMB   'biHeight',64,23,287
                   280           ?SYMB   'biPlanes',96,23,264
                   281           ?SYMB   'biBitCount',112,23,264
                   282           ?SYMB   'biCompression',128,23,268
                   283           ?SYMB   'biSizeImage',160,23,268
                   284           ?SYMB   'biXPelsPerMeter',192,23,287
                   285           ?SYMB   'biYPelsPerMeter',224,23,287
                   286           ?SYMB   'biClrUsed',256,23,268
                   287           ?SYMB   'biClrImportant',288,23,268
                   288           ?SYMB   '',320,18,0
                   289           ?SYMB   'BITMAPINFOHEADER',373,13,374
                   290           ?SYMB   'tagRGBQUAD',0,40,375
                   291           ?SYMB   'rgbBlue',0,23,263
                   292           ?SYMB   'rgbGreen',8,23,263
                   293           ?SYMB   'rgbRed',16,23,263
                   294           ?SYMB   'rgbReserved',24,23,263
                   295           ?SYMB   '',32,18,0
                   296           ?SYMB   'RGBQUAD',375,13,376
                   297           ?SYMB   'tagBITMAPCOREHEADER',0,40,377
                   298           ?SYMB   'bcSize',0,23,268
                   299           ?SYMB   'bcWidth',32,23,4
                   300           ?SYMB   'bcHeight',48,23,4
                   301           ?SYMB   'bcPlanes',64,23,264
                   302           ?SYMB   'bcBitCount',80,23,264
                   303           ?SYMB   '',96,18,0
                   304           ?SYMB   'BITMAPCOREHEADER',377,13,378
                   305           ?SYMB   'tagRGBTRIPLE',0,40,379
                   306           ?SYMB   'rgbtBlue',0,23,263
                   307           ?SYMB   'rgbtGreen',8,23,263
                   308           ?SYMB   'rgbtRed',16,23,263
                   309           ?SYMB   '',32,18,0
                   310           ?SYMB   'RGBTRIPLE',379,13,380
                   311           ?SYMB   'tagBITMAP',0,40,381
                   312           ?SYMB   'bmType',0,23,287
                   313           ?SYMB   'bmWidth',32,23,287
                   314           ?SYMB   'bmHeight',64,23,287
                   315           ?SYMB   'bmWidthBytes',96,23,287
                   316           ?SYMB   'bmPlanes',128,23,264
                   317           ?SYMB   'bmBitsPixel',144,23,264
                   318           ?SYMB   'bmBits',160,23,273
                   319           ?SYMB   '',192,18,0
                   320           ?SYMB   'BITMAP',381,13,382
                   321           ?SYMB   '',01800178H,5,383
                   322           ?SYMB   '',16,47,384
                   323           ?SYMB   '',0,30,0
                   324           ?SYMB   '',0,49,0
                   325           ?SYMB   'tagBITMAPINFO',0,40,385
                   326           ?SYMB   'bmiHeader',0,23,374
                   327           ?SYMB   'bmiColors',320,23,383
                   328           ?SYMB   '',352,18,0
                   329           ?SYMB   'BITMAPINFO',385,13,386
                   330           ?SYMB   'PVOID',273,13,387
                   331           ?SYMB   '',01a0181H,38,389
                   332           ?SYMB   'PBITMAPINFO',389,13,390
                   333           ?SYMB   'HICON__',0,40,391
                   334           ?SYMB   'unused',0,23,16
                   335           ?SYMB   '',16,18,0
                   336           ?SYMB   '',01a0187H,38,393
                   337           ?SYMB   'HICON',393,13,394
                   338           ?SYMB   'HWND__',0,40,395
                   339           ?SYMB   'unused',0,23,16
                   340           ?SYMB   '',16,18,0
                   341           ?SYMB   '',01a018bH,38,397
                   342           ?SYMB   'HWND',397,13,398
                   343           ?SYMB   'WPARAM',287,13,399
                   344           ?SYMB   'LPARAM',287,13,400
                   345           ?SYMB   'tagMSG',0,40,401
                   346           ?SYMB   'hwnd',0,23,398
                   347           ?SYMB   'message',32,23,267
                   348           ?SYMB   'wParam',48,23,399
                   349           ?SYMB   'lParam',80,23,400
                   350           ?SYMB   '',112,18,0
                   351           ?SYMB   '',01a0191H,38,403
                   352           ?SYMB   'PMSG',403,13,404
                   353           ?SYMB   'LRESULT',287,13,405
                   354           ?SYMB   'MSG',401,13,406
                   355           ?SYMB   '',405,55,407
                   356           ?SYMB   '',0a0197H,38,409
                   357           ?SYMB   'WNDPROC',409,13,410
                   358           ?SYMB   'HCURSOR',394,13,411
                   359           ?SYMB   'tagWNDCLASS',0,40,412
                   360           ?SYMB   'style',0,23,267
                   361           ?SYMB   'lpfnWndProc',16,23,410
                   362           ?SYMB   'cbClsExtra',48,23,16
                   363           ?SYMB   'cbWndExtra',64,23,16
                   364           ?SYMB   'hInstance',80,23,291
                   365           ?SYMB   'hIcon',112,23,394
                   366           ?SYMB   'hCursor',144,23,411
                   367           ?SYMB   'hbrBackground',176,23,351
                   368           ?SYMB   'lpszMenuName',208,23,311
                   369           ?SYMB   'lpszClassName',240,23,311
                   370           ?SYMB   '',272,18,0
                   371           ?SYMB   'WNDCLASS',412,13,413
                   372           ?SYMB   'tagWNDCLASSEX',0,40,414
                   373           ?SYMB   'cbSize',0,23,267
                   374           ?SYMB   'style',16,23,267
                   375           ?SYMB   'lpfnWndProc',32,23,410
                   376           ?SYMB   'cbClsExtra',64,23,16
                   377           ?SYMB   'cbWndExtra',80,23,16
                   378           ?SYMB   'hInstance',96,23,291
                   379           ?SYMB   'hIcon',128,23,394
                   380           ?SYMB   'hCursor',160,23,411
                   381           ?SYMB   'hbrBackground',192,23,351
                   382           ?SYMB   'lpszMenuName',224,23,311
                   383           ?SYMB   'lpszClassName',256,23,311
                   384           ?SYMB   'hIconSm',288,23,394
                   385           ?SYMB   '',320,18,0
                   386           ?SYMB   'WNDCLASSEX',414,13,415
                   387           ?SYMB   '',01a019cH,38,417
                   388           ?SYMB   'PWNDCLASS',417,13,418
                   389           ?SYMB   'HMENU__',0,40,419
                   390           ?SYMB   'unused',0,23,16
                   391           ?SYMB   '',16,18,0
                   392           ?SYMB   '',01a01a3H,38,421
                   393           ?SYMB   'HMENU',421,13,422
                   394           ?SYMB   '',262,55,423
                   395           ?SYMB   '',0a01a7H,38,425
                   396           ?SYMB   'WNDENUMPROC',425,13,426
                   397           ?SYMB   'tagPAINTSTRUCT',0,40,427
                   398           ?SYMB   'hdc',0,23,324
                   399           ?SYMB   'fErase',32,23,262
                   400           ?SYMB   'rcPaint',48,23,339
                   401           ?SYMB   '',176,18,0
                   402           ?SYMB   '',01a01abH,38,429
                   403           ?SYMB   'PPAINTSTRUCT',429,13,430
                   404           ?SYMB   'PAINTSTRUCT',427,13,431
                   405           ?SYMB   'tagWINDOWPOS',0,40,432
                   406           ?SYMB   'hwnd',0,23,398
                   407           ?SYMB   'hwndInsertAfter',32,23,398
                   408           ?SYMB   'x',64,23,16
                   409           ?SYMB   'y',80,23,16
                   410           ?SYMB   'cx',96,23,16
                   411           ?SYMB   'cy',112,23,16
                   412           ?SYMB   'flags',128,23,267
                   413           ?SYMB   '',144,18,0
                   414           ?SYMB   '',01a01b0H,38,434
                   415           ?SYMB   'PWINDOWPOS',434,13,435
                   416           ?SYMB   './include\virtkey.h',0,29,3
                   417           ?SYMB   '',0,86,3
                   418           ?SYMB   '',0,86,2
                   419           ?SYMB   '',01a0107H,38,437
                   420           ?SYMB   'PBYTE',437,13,438
                   421           ?SYMB   '',01a0108H,38,440
                   422           ?SYMB   'LPWORD',440,13,441
                   423           ?SYMB   '',1,55,442
                   424           ?SYMB   '',0a01baH,38,444
                   425           ?SYMB   'TIMERPROC',444,13,445
                   426           ?SYMB   'MENUITEMTEMPLATE',446,13,447
                   427           ?SYMB   '',01a01bfH,38,449
                   428           ?SYMB   'PMENUITEMTEMPLATE',449,13,450
                   429           ?SYMB   'tagMENUITEMTEMPLATE',0,40,446
                   430           ?SYMB   'wFlags',0,23,264
                   431           ?SYMB   'wID',16,23,264
                   432           ?SYMB   'lpszItemName',32,23,304
                   433           ?SYMB   'pMenuItems',64,23,450
                   434           ?SYMB   '',96,18,0
                   435           ?SYMB   'T$5',0,40,451
                   436           ?SYMB   'version',0,23,268
                   437           ?SYMB   'pMenuItems',32,23,450
                   438           ?SYMB   '',64,18,0
                   439           ?SYMB   'MENUTEMPLATE',451,13,452
                   440           ?SYMB   'tagSCROLLINFO',0,40,453
                   441           ?SYMB   'cbSize',0,23,267
                   442           ?SYMB   'fMask',16,23,267
                   443           ?SYMB   'nMin',32,23,16
                   444           ?SYMB   'nMax',48,23,16
                   445           ?SYMB   'nPage',64,23,267
                   446           ?SYMB   'nPos',80,23,16
                   447           ?SYMB   'nTrackPos',96,23,16
                   448           ?SYMB   '',112,18,0
                   449           ?SYMB   'SCROLLINFO',453,13,454
                   450           ?SYMB   '',01a01c6H,38,456
                   451           ?SYMB   'PCSCROLLINFO',456,13,457
                   452           ?SYMB   '',01a01c5H,38,459
                   453           ?SYMB   'PSCROLLINFO',459,13,460
                   454           ?SYMB   'T$6',0,40,461
                   455           ?SYMB   'style',0,23,268
                   456           ?SYMB   'dwExStyle',32,23,268
                   457           ?SYMB   'x',64,23,4
                   458           ?SYMB   'y',80,23,4
                   459           ?SYMB   'cx',96,23,4
                   460           ?SYMB   'cy',112,23,4
                   461           ?SYMB   'id',128,23,268
                   462           ?SYMB   'lpszClassName',160,23,304
                   463           ?SYMB   'lpszWindowText',192,23,304
                   464           ?SYMB   '',224,18,0
                   465           ?SYMB   'DLGITEMTEMPLATE',461,13,462
                   466           ?SYMB   '',01d001ceH,5,463
                   467           ?SYMB   '',16,47,464
                   468           ?SYMB   '',0,30,0
                   469           ?SYMB   '',0,49,0
                   470           ?SYMB   'T$7',0,40,465
                   471           ?SYMB   'type',0,23,268
                   472           ?SYMB   'style',32,23,268
                   473           ?SYMB   'dwExStyle',64,23,268
                   474           ?SYMB   'cdit',96,23,268
                   475           ?SYMB   'x',128,23,4
                   476           ?SYMB   'y',144,23,4
                   477           ?SYMB   'cx',160,23,4
                   478           ?SYMB   'cy',176,23,4
                   479           ?SYMB   'lpszMenuName',192,23,304
                   480           ?SYMB   'lpszClassName',224,23,304
                   481           ?SYMB   'lpszWindowText',256,23,304
                   482           ?SYMB   'dlgItems',288,23,463
                   483           ?SYMB   '',512,18,0
                   484           ?SYMB   'DLGTEMPLATE',465,13,466
                   485           ?SYMB   '',262,55,467
                   486           ?SYMB   '',0a01d3H,38,469
                   487           ?SYMB   'DLGPROC',469,13,470
                   488           ?SYMB   '',01a01d2H,38,472
                   489           ?SYMB   'PCDLGTEMPLATE',472,13,473
                   490           ?SYMB   'tagDRAWITEMSTRUCT',0,40,474
                   491           ?SYMB   'CtlType',0,23,267
                   492           ?SYMB   'CtlID',16,23,267
                   493           ?SYMB   'itemID',32,23,267
                   494           ?SYMB   'itemAction',48,23,267
                   495           ?SYMB   'itemState',64,23,267
                   496           ?SYMB   'hwndItem',80,23,398
                   497           ?SYMB   'hDC',112,23,324
                   498           ?SYMB   'rcItem',144,23,339
                   499           ?SYMB   'itemData',272,23,268
                   500           ?SYMB   '',304,18,0
                   501           ?SYMB   'DRAWITEMSTRUCT',474,13,475
                   502           ?SYMB   'tagMEASUREITEMSTRUCT',0,40,476
                   503           ?SYMB   'CtlType',0,23,267
                   504           ?SYMB   'CtlID',16,23,267
                   505           ?SYMB   'itemID',32,23,267
                   506           ?SYMB   'itemWidth',48,23,267
                   507           ?SYMB   'itemHeight',64,23,267
                   508           ?SYMB   'itemData',80,23,268
                   509           ?SYMB   '',112,18,0
                   510           ?SYMB   'MEASUREITEMSTRUCT',476,13,477
                   511           ?SYMB   'tagDELETEITEMSTRUCT',0,40,478
                   512           ?SYMB   'CtlType',0,23,267
                   513           ?SYMB   'CtlID',16,23,267
                   514           ?SYMB   'itemID',32,23,267
                   515           ?SYMB   'hwndItem',48,23,398
                   516           ?SYMB   'itemData',80,23,268
                   517           ?SYMB   '',112,18,0
                   518           ?SYMB   'DELETEITEMSTRUCT',478,13,479
                   519           ?SYMB   'tagCOMPAREITEMSTRUCT',0,40,480
                   520           ?SYMB   'CtlType',0,23,267
                   521           ?SYMB   'CtlID',16,23,267
                   522           ?SYMB   'hwndItem',32,23,398
                   523           ?SYMB   'itemID1',64,23,267
                   524           ?SYMB   'itemData1',80,23,268
                   525           ?SYMB   'itemID2',112,23,267
                   526           ?SYMB   'itemData2',128,23,268
                   527           ?SYMB   '',160,18,0
                   528           ?SYMB   'COMPAREITEMSTRUCT',480,13,481
                   529           ?SYMB   '',405,55,482
                   530           ?SYMB   '',0a01e2H,38,484
                   531           ?SYMB   'HOOKPROC',484,13,485
                   532           ?SYMB   'HHOOK__',0,40,486
                   533           ?SYMB   'unused',0,23,16
                   534           ?SYMB   '',16,18,0
                   535           ?SYMB   '',01a01e6H,38,488
                   536           ?SYMB   'HHOOK',488,13,489
                   537           ?SYMB   '',01eb0107H,5,490
                   538           ?SYMB   '',16,47,491
                   539           ?SYMB   '',0,30,0
                   540           ?SYMB   '',31,49,0
                   541           ?SYMB   '_devicemode',0,40,492
                   542           ?SYMB   'dmDeviceName',0,23,490
                   543           ?SYMB   'dmSpecVersion',256,23,264
                   544           ?SYMB   'dmDriverVersion',272,23,264
                   545           ?SYMB   'dmSize',288,23,264
                   546           ?SYMB   'dmDriverExtra',304,23,264
                   547           ?SYMB   'dmFields',320,23,268
                   548           ?SYMB   'dmOrientation',352,23,4
                   549           ?SYMB   'dmPaperSize',368,23,4
                   550           ?SYMB   'dmPaperLength',384,23,4
                   551           ?SYMB   'dmPaperWidth',400,23,4
                   552           ?SYMB   'dmScale',416,23,4
                   553           ?SYMB   'dmCopies',432,23,4
                   554           ?SYMB   'dmDefaultSource',448,23,4
                   555           ?SYMB   'dmPrintQuality',464,23,4
                   556           ?SYMB   'dmColor',480,23,4
                   557           ?SYMB   'dmDuplex',496,23,4
                   558           ?SYMB   'dmYResolution',512,23,4
                   559           ?SYMB   'dmTTOption',528,23,4
                   560           ?SYMB   'dmCollate',544,23,4
                   561           ?SYMB   'dmFormName',560,23,490
                   562           ?SYMB   'dmLogPixels',816,23,264
                   563           ?SYMB   'dmBitsPerPel',832,23,268
                   564           ?SYMB   'dmPelsWidth',864,23,268
                   565           ?SYMB   'dmPelsHeight',896,23,268
                   566           ?SYMB   'dmDisplayFlags',928,23,268
                   567           ?SYMB   'dmDisplayFrequency',960,23,268
                   568           ?SYMB   'dmICMMethod',992,23,268
                   569           ?SYMB   'dmICMIntent',1024,23,268
                   570           ?SYMB   'dmMediaType',1056,23,268
                   571           ?SYMB   'dmDitherType',1088,23,268
                   572           ?SYMB   'dmICCManufacturer',1120,23,268
                   573           ?SYMB   'dmICCModel',1152,23,268
                   574           ?SYMB   'dmPanningWidth',1184,23,268
                   575           ?SYMB   'dmPanningHeight',1216,23,268
                   576           ?SYMB   '',1248,18,0
                   577           ?SYMB   '',01a01ecH,38,494
                   578           ?SYMB   'PDEVMODE',494,13,495
                   579           ?SYMB   '',0,86,1
                   580   ; me_comn.c    4        #include "string.h"
                   581           ?SYMB   './include\string.h',0,29,2
                   582           ?SYMB   '',0,86,2
                   583           ?SYMB   '',0,86,1
                   584   ; me_comn.c    5        #include "me_func.h"
                   585           ?SYMB   'me_func.h',0,29,2
                   586           ?SYMB   '',0,86,2
                   587           ?SYMB   '',1,55,496
                   588           ?SYMB   '',0a01f0H,38,498
                   589           ?SYMB   'ME_ReqCallback',498,13,499
                   590           ?SYMB   '',1,55,500
                   591           ?SYMB   '',0a01f4H,38,502
                   592           ?SYMB   'ME_IndCallback',502,13,503
                   593           ?SYMB   '',0,86,1
                   594   ; me_comn.c    6        #include "me_wnd.h"
                   595           ?SYMB   './include\me_wnd.h',0,29,2
                   596           ?SYMB   '',0,86,2
                   597           ?SYMB   './include\hp_modcfg.h',0,29,3
                   598           ?SYMB   '',0,86,3
                   599           ?SYMB   '',0,86,2
                   600           ?SYMB   '',01f90002H,5,504
                   601           ?SYMB   '',16,47,505
                   602           ?SYMB   '',0,30,0
                   603           ?SYMB   '',23,49,0
                   604           ?SYMB   'tagCALL_FWD',0,40,506
                   605           ?SYMB   'Reason',0,23,16
                   606           ?SYMB   'bEnable',16,23,262
                   607           ?SYMB   'PhoneNum',32,23,504
                   608           ?SYMB   'Class',224,23,16
                   609           ?SYMB   'Time',240,23,16
                   610           ?SYMB   '',256,18,0
                   611           ?SYMB   '',01a01faH,38,508
                   612           ?SYMB   'PCALL_FWD',508,13,509
                   613           ?SYMB   '',01ff0002H,5,510
                   614           ?SYMB   '',16,47,511
                   615           ?SYMB   '',0,30,0
                   616           ?SYMB   '',163,49,0
                   617           ?SYMB   'tagSMS_Send',0,40,512
                   618           ?SYMB   'SCA',0,23,504
                   619           ?SYMB   'Type',192,23,16
                   620           ?SYMB   'ConLen',208,23,16
                   621           ?SYMB   'Report',224,23,262
                   622           ?SYMB   'ReplyPath',240,23,262
                   623           ?SYMB   'PID',256,23,16
                   624           ?SYMB   'VPvalue',272,23,16
                   625           ?SYMB   'PhoneNum',288,23,504
                   626           ?SYMB   'Context',480,23,510
                   627           ?SYMB   '',1792,18,0
                   628           ?SYMB   '',01a0200H,38,514
                   629           ?SYMB   'PSMS_SEND',514,13,515
                   630           ?SYMB   'tagIND_STATUS',0,40,516
                   631           ?SYMB   'Mt',0,23,16
                   632           ?SYMB   'Bm',16,23,16
                   633           ?SYMB   'Ds',32,23,16
                   634           ?SYMB   '',48,18,0
                   635           ?SYMB   '',01a0204H,38,518
                   636           ?SYMB   'PIND_STATUS',518,13,519
                   637           ?SYMB   '',02090002H,5,520
                   638           ?SYMB   '',16,47,521
                   639           ?SYMB   '',0,30,0
                   640           ?SYMB   '',39,49,0
                   641           ?SYMB   '',020b0002H,5,522
                   642           ?SYMB   '',16,47,523
                   643           ?SYMB   '',0,30,0
                   644           ?SYMB   '',19,49,0
                   645           ?SYMB   'tagCELL_BROADCAST',0,40,524
                   646           ?SYMB   'mode',0,23,262
                   647           ?SYMB   'ids',16,23,520
                   648           ?SYMB   'code',336,23,522
                   649           ?SYMB   '',496,18,0
                   650           ?SYMB   '',01a020cH,38,526
                   651           ?SYMB   'PCELL_BROADCAST',526,13,527
                   652           ?SYMB   '',02110002H,5,528
                   653           ?SYMB   '',16,47,529
                   654           ?SYMB   '',0,30,0
                   655           ?SYMB   '',15,49,0
                   656           ?SYMB   'tagPHONEBOOK',0,40,530
                   657           ?SYMB   'Index',0,23,16
                   658           ?SYMB   'PhoneNum',16,23,504
                   659           ?SYMB   'Text',208,23,528
                   660           ?SYMB   '',336,18,0
                   661           ?SYMB   '',01a0212H,38,532
                   662           ?SYMB   'PPHONEBOOK',532,13,533
                   663           ?SYMB   '',02170002H,5,534
                   664           ?SYMB   '',16,47,535
                   665           ?SYMB   '',0,30,0
                   666           ?SYMB   '',63,49,0
                   667           ?SYMB   'tagSTK_PARAM',0,40,536
                   668           ?SYMB   'cmd',0,23,534
                   669           ?SYMB   'timeout',512,23,16
                   670           ?SYMB   'line_count',528,23,16
                   671           ?SYMB   'line_len',544,23,16
                   672           ?SYMB   'revbuf',560,23,273
                   673           ?SYMB   '',592,18,0
                   674           ?SYMB   'STK_PARAM',536,13,537
                   675           ?SYMB   '',0,86,1
                   676   ; me_comn.c    7        #include "me_comn.h"
                   677           ?SYMB   'me_comn.h',0,29,2
                   678           ?SYMB   '',0,86,2
                   679           ?SYMB   'tagNETOPREATOR',0,40,538
                   680           ?SYMB   'stat',0,23,16
                   681           ?SYMB   'alpha_oper',16,23,522
                   682           ?SYMB   'num_oper',176,23,522
                   683           ?SYMB   '',336,18,0
                   684           ?SYMB   'NETOPRATOR',538,13,539
                   685           ?SYMB   'tagCALLS_INFO',0,40,540
                   686           ?SYMB   'index',0,23,16
                   687           ?SYMB   'Stat',16,23,16
                   688           ?SYMB   'Mode',32,23,16
                   689           ?SYMB   'Dir',48,23,16
                   690           ?SYMB   'Mpty',64,23,16
                   691           ?SYMB   'PhoneNum',80,23,504
                   692           ?SYMB   'Text',272,23,528
                   693           ?SYMB   '',400,18,0
                   694           ?SYMB   '',01a021cH,38,542
                   695           ?SYMB   'PCALLS_INFO',542,13,543
                   696           ?SYMB   '',02210002H,5,544
                   697           ?SYMB   '',16,47,545
                   698           ?SYMB   '',0,30,0
                   699           ?SYMB   '',7,49,0
                   700           ?SYMB   'tagSERV_CELL',0,40,546
                   701           ?SYMB   'BCH',0,23,544
                   702           ?SYMB   'BRXL',64,23,544
                   703           ?SYMB   'BCC',128,23,544
                   704           ?SYMB   'RXLev',192,23,544
                   705           ?SYMB   'MCC',256,23,544
                   706           ?SYMB   'MNC',320,23,544
                   707           ?SYMB   'BSIC',384,23,544
                   708           ?SYMB   'NCC',448,23,544
                   709           ?SYMB   'RSSI',512,23,544
                   710           ?SYMB   'LAC',576,23,544
                   711           ?SYMB   'CELLID',640,23,544
                   712           ?SYMB   'C1',704,23,544
                   713           ?SYMB   'C2',768,23,544
                   714           ?SYMB   'PWR',832,23,544
                   715           ?SYMB   'TA',896,23,544
                   716           ?SYMB   'TCH',960,23,544
                   717           ?SYMB   'TRXL',1024,23,544
                   718           ?SYMB   'TS',1088,23,544
                   719           ?SYMB   'PWRLev',1152,23,544
                   720           ?SYMB   'Q',1216,23,544
                   721           ?SYMB   'Chmod',1280,23,544
                   722           ?SYMB   '',1344,18,0
                   723           ?SYMB   '',01a0222H,38,548
                   724           ?SYMB   'PSCELL_INFO',548,13,549
                   725           ?SYMB   'tagNEIB_CELL',0,40,550
                   726           ?SYMB   'BCH',0,23,544
                   727           ?SYMB   'BRXL',64,23,544
                   728           ?SYMB   'C1',128,23,544
                   729           ?SYMB   'C2',192,23,544
                   730           ?SYMB   '',256,18,0
                   731           ?SYMB   '',01a0226H,38,552
                   732           ?SYMB   'PNCELL_INFO',552,13,553
                   733           ?SYMB   '',0,86,1
                   734   ; me_comn.c    8        #include "smspdu.h"
                   735           ?SYMB   'smspdu.h',0,29,2
                   736           ?SYMB   '',0,86,2
                   737           ?SYMB   'tagSMS_INFO',0,40,554
                   738           ?SYMB   'Index',0,23,16
                   739           ?SYMB   'Stat',16,23,16
                   740           ?SYMB   'Type',32,23,16
                   741           ?SYMB   'Status',48,23,16
                   742           ?SYMB   'ConLen',64,23,16
                   743           ?SYMB   'Class',80,23,16
                   744           ?SYMB   'SCA',96,23,504
                   745           ?SYMB   'SenderNum',288,23,504
                   746           ?SYMB   'SendTime',480,23,520
                   747           ?SYMB   'Context',800,23,510
                   748           ?SYMB   '',2112,18,0
                   749           ?SYMB   '',01a022aH,38,556
                   750           ?SYMB   'PSMS_INFO',556,13,557
                   751           ?SYMB   '',0,86,1
                   752   ; me_comn.c    9        
                   753   ; me_comn.c   10        #ifndef NULL
                   754   ; me_comn.c   11        #define NULL    (void *)0
                   755   ; me_comn.c   12        #endif
                   756   ; me_comn.c   13        
                   757   ; me_comn.c   14        extern void debugex_nonl(char *fmt, ...);
                   758   ; me_comn.c   15        #define RESULT_BUFSIZE      1000
                   759   ; me_comn.c   16        static char me_result_buf[RESULT_BUFSIZE];
                   760   ME_COMN_1_FB    SECTION DATA WORD PUBLIC 'CFAR'
0000               761   ME_COMN_1_FB_ENTRY      LABEL   BYTE
0000               762   _me_result_buf  LABEL   BYTE
0000               763           DS      1000
                   764           ?SYMB   '',022f0002H,5,558
                   765           ?SYMB   '',16,47,559
                   766           ?SYMB   '',0,30,0
                   767           ?SYMB   '',999,49,0
               R   768           ?SYMB   'me_result_buf',_me_result_buf,31,558
                   769   ; me_comn.c   17        
                   770   ; me_comn.c   18        typedef struct tagME_MemBlock
                   771   ; me_comn.c   19        {
                   772   ; me_comn.c   20                char*   p;
                   773   ; me_comn.c   21                int             len;
                   774   ; me_comn.c   22                int             offset;
                   775   ; me_comn.c   23        
                   776   ; me_comn.c   24        }ME_MemBlock, *PME_MemBlock;
                   777           ?SYMB   'tagME_MemBlock',0,40,560
                   778           ?SYMB   'p',0,23,270
                   779           ?SYMB   'len',32,23,16
                   780           ?SYMB   'offset',48,23,16
                   781           ?SYMB   '',64,18,0
                   782           ?SYMB   'ME_MemBlock',560,13,561
                   783   ; me_comn.c   25        
                   784   ; me_comn.c   26        ME_MemBlock     ME_RcvBuf;
03E8               785   _ME_RcvBuf      LABEL   WORD
03E8               786           DS      8
                   787           PUBLIC  _ME_RcvBuf
               R   788           ?SYMB   'ME_RcvBuf',_ME_RcvBuf,22,561
                   789   ; me_comn.c   27        
                   790   ; me_comn.c   28        //extern void *realloc(void *memblock, size_t newsize);
                   791   ; me_comn.c   29        /*********************************************************************\
                          
                   792   ; me_comn.c   30        * Function
                   793   ; me_comn.c   31        * Purpose
                   794   ; me_comn.c   32        * Params
                   795   ; me_comn.c   33        * Return
                   796   ; me_comn.c   34        * Remarks
                   797   ; me_comn.c   35        **********************************************************************/
                   798   ; me_comn.c   36        void ME_MemInitial( void )
                   799   ; me_comn.c   37        {
                   800   ME_COMN_1_FB    ENDS
                   801   
                   802   ME_COMN_2_PR    SECTION CODE WORD PUBLIC 'CPROGRAM'
                   803           ?LINE   37
                   804           PUBLIC  _ME_MemInitial
               R   805           ?SYMB   'ME_MemInitial',_ME_MemInitial,37,1
                   806           ?SYMB   '',37,8,34
                   807   _ME_MemInitial  PROC    FAR
                   808           ?SYMB   '',00H,95,0
                   809   ; Locals:
                   810   ; 
                   811   ; Statics:
                   812   ; 
                   813   ; CSEs:
                   814   ; 
                   815   ; me_comn.c   38                if ( ME_RcvBuf.len > RESULT_BUFSIZE )
                   816           ?LINE   38
0000 E6000000  R   817           MOV     DPP0,#PAG _ME_RcvBuf
0004 CC00          818           NOP
0006 F2FC0000  R   819           MOV     R12,POF (_ME_RcvBuf+4)
000A 46FCE803      820           CMP     R12,#03E8h
000E BD0A          821           JMPR    cc_SLE,_3
                   822   ; me_comn.c   39                        free( ME_RcvBuf.p );
                   823           ?LINE   39
0010 F2FC0000  R   824           MOV     R12,POF _ME_RcvBuf
0014 F2FD0000  R   825           MOV     R13,POF (_ME_RcvBuf+2)
0018 F0ED          826           MOV     R14,R13
001A 5CEE          827           SHL     R14,#0Eh
001C 70CE          828           OR      R12,R14
001E 7C2D          829           SHR     R13,#02h
0020 DA000000  R   830           CALLS   SEG _os_free,_os_free
0024               831   _3:
                   832   ; me_comn.c   40        
                   833   ; me_comn.c   41                ME_RcvBuf.p = me_result_buf;
                   834           ?LINE   41
0024 E6FC0000  R   835           MOV     R12,#POF _me_result_buf
0028 E6000000  R   836           MOV     DPP0,#PAG _ME_RcvBuf
002C E6FD0000  R   837           MOV     R13,#PAG _me_result_buf
0030 F6FC0000  R   838           MOV     POF _ME_RcvBuf,R12
0034 F6FD0000  R   839           MOV     POF (_ME_RcvBuf+2),R13
                   840   ; me_comn.c   42                memset( ME_RcvBuf.p, 0, RESULT_BUFSIZE );
                   841           ?LINE   42
0038 E00E          842           MOV     R14,#00h
003A E6FFE803      843           MOV     R15,#03E8h
003E DA000000  R   844           CALLS   SEG _memset,_memset
                   845   ; me_comn.c   43                ME_RcvBuf.len = RESULT_BUFSIZE;
                   846           ?LINE   43
0042 E6000000  R   847           MOV     DPP0,#PAG _ME_RcvBuf
0046 E6FCE803      848           MOV     R12,#03E8h
004A F6FC0000  R   849           MOV     POF (_ME_RcvBuf+4),R12
                   850   ; me_comn.c   44                ME_RcvBuf.offset = 0;
                   851           ?LINE   44
004E F68E0000  R   852           MOV     POF (_ME_RcvBuf+6),ZEROS
                   853   ; me_comn.c   45        
                   854   ; me_comn.c   46                return;
                   855   ; me_comn.c   47        }
                   856           ?LINE   47
0052 DB00          857           RETS
                   858   _ME_MemInitial  ENDP
               R   859           ?SYMB   '',$,17,47
                   860   ; me_comn.c   48        
                   861   ; me_comn.c   49        /*********************************************************************\
                          
                   862   ; me_comn.c   50        * Function
                   863   ; me_comn.c   51        * Purpose
                   864   ; me_comn.c   52        * Params
                   865   ; me_comn.c   53        * Return
                   866   ; me_comn.c   54        * Remarks
                   867   ; me_comn.c   55        **********************************************************************/
                   868   ; me_comn.c   56        BOOL ME_Malloc( int len )
                   869   ; me_comn.c   57        {
                   870           ?LINE   57
                   871           PUBLIC  _ME_Malloc
               R   872           ?SYMB   'ME_Malloc',_ME_Malloc,37,262
                   873           ?SYMB   '',57,8,34
                   874   _ME_Malloc      PROC    FAR
                   875           ?SYMB   '',0340H,95,0
0054 8890          876           MOV     [-R0],R9
               R   877           ?SYMB   '',$,96,2
0056 8880          878           MOV     [-R0],R8
               R   879           ?SYMB   '',$,96,4
0058 8860          880           MOV     [-R0],R6
               R   881           ?SYMB   '',$,96,6
005A F08C          882           MOV     R8,R12
                   883   ; Locals:
                   884   ; 
                   885   ; Statics:
                   886   ; 
                   887   ; CSEs:
                   888   ;     len = R8
                   889   ;     current = R9R6
                   890   ; 
                   891           ?SYMB   'len',2,99,16
                   892           ?SYMB   'current',1,98,270
               R   893           ?SYMB   'R8',$,100,2
                   894   ; me_comn.c   58                char* current;
                   895   ; me_comn.c   59        
                   896   ; me_comn.c   60        #if defined VME_DEBUG
                   897   ; me_comn.c   61            debugex_nonl( "\r\nME malloc memory: %d", len );
                   898           ?LINE   61
005C 8880          899           MOV     [-R0],R8
               R   900           ?SYMB   '',$,96,8
005E E6FC0000  R   901           MOV     R12,#POF _4
0062 E6FD0000  R   902           MOV     R13,#PAG _4
0066 DA000000  R   903           CALLS   SEG _debugex_nonl,_debugex_nonl
               R   904           ?SYMB   '',$,96,6
                   905   ; me_comn.c   62        #endif
                   906   ; me_comn.c   63                if ( ME_RcvBuf.len == RESULT_BUFSIZE )
                   907           ?LINE   63
006A E6000000  R   908           MOV     DPP0,#PAG _ME_RcvBuf
006E 0802          909           ADD     R0,#02h
0070 F2F90000  R   910           MOV     R9,POF (_ME_RcvBuf+4)
0074 46F9E803      911           CMP     R9,#03E8h
0078 3D30          912           JMPR    cc_NE,_11
                   913   ; me_comn.c   64                {
                   914   ; me_comn.c   65                        current = ME_RcvBuf.p;
                   915           ?LINE   65
007A F2F90000  R   916           MOV     R9,POF _ME_RcvBuf
007E F2F60000  R   917           MOV     R6,POF (_ME_RcvBuf+2)
               R   918           ?SYMB   'R9R6',$,100,1
                   919   ; me_comn.c   66        
                   920   ; me_comn.c   67                        ME_RcvBuf.p = malloc( len );
                   921           ?LINE   67
0082 F0C8          922           MOV     R12,R8
0084 F0DC          923           MOV     R13,R12
0086 BCFD          924           ASHR    R13,#0Fh
0088 DA000000  R   925           CALLS   SEG _os_malloc,_os_malloc
008C E6000000  R   926           MOV     DPP0,#PAG _ME_RcvBuf
0090 CC00          927           NOP
0092 F6F40000  R   928           MOV     POF _ME_RcvBuf,R4
0096 F6F50000  R   929           MOV     POF (_ME_RcvBuf+2),R5
                   930   ; me_comn.c   68        
                   931   ; me_comn.c   69                        if ( NULL == ME_RcvBuf.p )
                   932           ?LINE   69
009A 7045          933           OR      R4,R5
009C 2D3B          934           JMPR    cc_Z,_12
                   935   ; me_comn.c   70                        {
                   936   ; me_comn.c   71                                ME_RcvBuf.p = current;
                   937   ; me_comn.c   72                                return FALSE;
                   938   ; me_comn.c   73                        }
                   939   ; me_comn.c   74        
                   940   ; me_comn.c   75                        memset( ME_RcvBuf.p, 0, len );
                   941           ?LINE   75
009E F2FC0000  R   942           MOV     R12,POF _ME_RcvBuf
00A2 F2FD0000  R   943           MOV     R13,POF (_ME_RcvBuf+2)
00A6 E00E          944           MOV     R14,#00h
00A8 F0F8          945           MOV     R15,R8
00AA DA000000  R   946           CALLS   SEG _memset,_memset
                   947   ; me_comn.c   76                        memcpy( ME_RcvBuf.p, current, ME_RcvBuf.offset );
                   948           ?LINE   76
00AE E6000000  R   949           MOV     DPP0,#PAG _ME_RcvBuf
00B2 F0E9          950           MOV     R14,R9
00B4 F2FC0000  R   951           MOV     R12,POF (_ME_RcvBuf+6)
00B8 88C0          952           MOV     [-R0],R12
               R   953           ?SYMB   '',$,96,8
00BA F2FC0000  R   954           MOV     R12,POF _ME_RcvBuf
00BE F2FD0000  R   955           MOV     R13,POF (_ME_RcvBuf+2)
00C2 F0F6          956           MOV     R15,R6
00C4 DA000000  R   957           CALLS   SEG _memcpy,_memcpy
00C8 0802          958           ADD     R0,#02h
               R   959           ?SYMB   '',$,96,6
                   960   ; me_comn.c   77                        memset( current, 0, RESULT_BUFSIZE );
                   961           ?LINE   77
00CA F0C9          962           MOV     R12,R9
00CC F0D6          963           MOV     R13,R6
00CE E00E          964           MOV     R14,#00h
00D0 E6FFE803      965           MOV     R15,#03E8h
00D4 DA000000  R   966           CALLS   SEG _memset,_memset
               R   967           ?SYMB   '',$,102,1
                   968   ; me_comn.c   78                }
                   969           ?LINE   78
00D8 0D33          970           JMPR    cc_UC,_14
00DA               971   _11:
                   972   ; me_comn.c   79                else
                   973   ; me_comn.c   80                {
                   974   ; me_comn.c   81                        current = ME_RcvBuf.p;
                   975           ?LINE   81
00DA E6000000  R   976           MOV     DPP0,#PAG _ME_RcvBuf
00DE CC00          977           NOP
00E0 F2F90000  R   978           MOV     R9,POF _ME_RcvBuf
00E4 F2F60000  R   979           MOV     R6,POF (_ME_RcvBuf+2)
               R   980           ?SYMB   'R9R6',$,100,1
                   981   ; me_comn.c   82        
                   982   ; me_comn.c   83                        ME_RcvBuf.p = realloc( ME_RcvBuf.p, len );
                   983           ?LINE   83
00E8 F2FC0000  R   984           MOV     R12,POF _ME_RcvBuf
00EC F2FD0000  R   985           MOV     R13,POF (_ME_RcvBuf+2)
00F0 F0ED          986           MOV     R14,R13
00F2 5CEE          987           SHL     R14,#0Eh
00F4 70CE          988           OR      R12,R14
00F6 7C2D          989           SHR     R13,#02h
00F8 F0E8          990           MOV     R14,R8
00FA F0FE          991           MOV     R15,R14
00FC BCFF          992           ASHR    R15,#0Fh
00FE DA000000  R   993           CALLS   SEG _os_realloc,_os_realloc
0102 E6000000  R   994           MOV     DPP0,#PAG _ME_RcvBuf
0106 CC00          995           NOP
0108 F6F40000  R   996           MOV     POF _ME_RcvBuf,R4
010C F6F50000  R   997           MOV     POF (_ME_RcvBuf+2),R5
                   998   ; me_comn.c   84        
                   999   ; me_comn.c   85                        if ( NULL == ME_RcvBuf.p )
                  1000           ?LINE   85
0110 7045         1001           OR      R4,R5
0112 3D08         1002           JMPR    cc_NZ,_13
                  1003   ; me_comn.c   86                        {
                  1004   ; me_comn.c   87                                ME_RcvBuf.p = current;
                  1005           ?LINE   87
0114              1006   _12:
               R  1007           ?SYMB   '',$,102,2
0114 E6000000  R  1008           MOV     DPP0,#PAG _ME_RcvBuf
0118 E004         1009           MOV     R4,#00h
011A F6F90000  R  1010           MOV     POF _ME_RcvBuf,R9
011E F6F60000  R  1011           MOV     POF (_ME_RcvBuf+2),R6
                  1012   ; me_comn.c   88                                return FALSE;
                  1013           ?LINE   88
0122 0D13         1014           JMPR    cc_UC,_15
                  1015   ; me_comn.c   89                        }
                  1016           ?LINE   89
0124              1017   _13:
               R  1018           ?SYMB   '',$,102,1
               R  1019           ?SYMB   'R8',$,100,2
                  1020   ; me_comn.c   90                        memset( &ME_RcvBuf.p[ME_RcvBuf.len], 0, len-ME_RcvBuf.l
                         en );
                  1021           ?LINE   90
0124 E6000000  R  1022           MOV     DPP0,#PAG _ME_RcvBuf
0128 E00E         1023           MOV     R14,#00h
012A F2FC0000  R  1024           MOV     R12,POF _ME_RcvBuf
012E F2FD0000  R  1025           MOV     R13,POF (_ME_RcvBuf+2)
0132 02FC0000  R  1026           ADD     R12,POF (_ME_RcvBuf+4)
0136 F0F8         1027           MOV     R15,R8
0138 22FF0000  R  1028           SUB     R15,POF (_ME_RcvBuf+4)
013C DA000000  R  1029           CALLS   SEG _memset,_memset
                  1030   ; me_comn.c   91                }
                  1031           ?LINE   91
0140              1032   _14:
                  1033   ; me_comn.c   92        
                  1034   ; me_comn.c   93                ME_RcvBuf.len = len;
                  1035           ?LINE   93
0140 E6000000  R  1036           MOV     DPP0,#PAG _ME_RcvBuf
0144 E014         1037           MOV     R4,#01h
0146 F6F80000  R  1038           MOV     POF (_ME_RcvBuf+4),R8
                  1039   ; me_comn.c   94        
                  1040   ; me_comn.c   95                return TRUE;
                  1041   ; me_comn.c   96        }
                  1042           ?LINE   96
014A              1043   _15:
               R  1044           ?SYMB   '',$,102,2
014A 9860         1045           MOV     R6,[R0+]
               R  1046           ?SYMB   '',$,96,4
014C 9880         1047           MOV     R8,[R0+]
               R  1048           ?SYMB   '',$,96,2
014E 9890         1049           MOV     R9,[R0+]
               R  1050           ?SYMB   '',$,96,0
0150 DB00         1051           RETS
                  1052   _ME_Malloc      ENDP
               R  1053           ?SYMB   '',$,17,96
                  1054   ; me_comn.c   97        
                  1055   ; me_comn.c   98        /*********************************************************************\
                          
                  1056   ; me_comn.c   99        * Function
                  1057   ; me_comn.c  100        * Purpose
                  1058   ; me_comn.c  101        * Params
                  1059   ; me_comn.c  102        * Return
                  1060   ; me_comn.c  103        * Remarks
                  1061   ; me_comn.c  104        **********************************************************************/
                  1062   ; me_comn.c  105        int ME_MemAssign( char* data, int datalen )
                  1063   ; me_comn.c  106        {
                  1064           ?LINE   106
                  1065           PUBLIC  _ME_MemAssign
               R  1066           ?SYMB   'ME_MemAssign',_ME_MemAssign,37,16
                  1067           ?SYMB   '',106,8,34
                  1068   _ME_MemAssign   PROC    FAR
                  1069           ?SYMB   '',0340H,95,0
0152 8890         1070           MOV     [-R0],R9
               R  1071           ?SYMB   '',$,96,2
0154 8880         1072           MOV     [-R0],R8
               R  1073           ?SYMB   '',$,96,4
0156 8860         1074           MOV     [-R0],R6
               R  1075           ?SYMB   '',$,96,6
0158 F08E         1076           MOV     R8,R14
015A F06D         1077           MOV     R6,R13
                  1078   ; Locals:
                  1079   ; 
                  1080   ; Statics:
                  1081   ; 
                  1082   ; CSEs:
                  1083   ;     datalen = R8
                  1084   ;     data = R9R6
                  1085   ; 
                  1086           ?SYMB   'data',1,99,270
                  1087           ?SYMB   'datalen',2,99,16
               R  1088           ?SYMB   'R8',$,100,2
               R  1089           ?SYMB   'R9R6',$,100,1
                  1090   ; me_comn.c  107        #if defined VME_DEBUG
                  1091   ; me_comn.c  108            debugex_nonl( "\r\nME Memory offset = %d", ME_RcvBuf.offset );
                  1092           ?LINE   108
015C E6000000  R  1093           MOV     DPP0,#PAG _ME_RcvBuf
0160 F09C         1094           MOV     R9,R12
0162 F2FC0000  R  1095           MOV     R12,POF (_ME_RcvBuf+6)
0166 88C0         1096           MOV     [-R0],R12
               R  1097           ?SYMB   '',$,96,8
0168 E6FC0000  R  1098           MOV     R12,#POF _16
016C E6FD0000  R  1099           MOV     R13,#PAG _16
0170 DA000000  R  1100           CALLS   SEG _debugex_nonl,_debugex_nonl
               R  1101           ?SYMB   '',$,96,6
                  1102   ; me_comn.c  109            debugex_nonl( "\r\nME Memory datalen = %d", datalen );
                  1103           ?LINE   109
0174 B880         1104           MOV     [R0],R8
               R  1105           ?SYMB   '',$,96,8
0176 E6FC0000  R  1106           MOV     R12,#POF _17
017A E6FD0000  R  1107           MOV     R13,#PAG _17
017E DA000000  R  1108           CALLS   SEG _debugex_nonl,_debugex_nonl
               R  1109           ?SYMB   '',$,96,6
                  1110   ; me_comn.c  110            debugex_nonl( "\r\nME Memory len = %d", ME_RcvBuf.len );
                  1111           ?LINE   110
0182 E6000000  R  1112           MOV     DPP0,#PAG _ME_RcvBuf
0186 0802         1113           ADD     R0,#02h
0188 F2FC0000  R  1114           MOV     R12,POF (_ME_RcvBuf+4)
018C 88C0         1115           MOV     [-R0],R12
               R  1116           ?SYMB   '',$,96,8
018E E6FC0000  R  1117           MOV     R12,#POF _18
0192 E6FD0000  R  1118           MOV     R13,#PAG _18
0196 DA000000  R  1119           CALLS   SEG _debugex_nonl,_debugex_nonl
               R  1120           ?SYMB   '',$,96,6
                  1121   ; me_comn.c  111        #endif
                  1122   ; me_comn.c  112            if ( ME_RcvBuf.offset + datalen >=  ME_RcvBuf.len )
                  1123           ?LINE   112
019A E6000000  R  1124           MOV     DPP0,#PAG _ME_RcvBuf
019E 0802         1125           ADD     R0,#02h
01A0 F2FC0000  R  1126           MOV     R12,POF (_ME_RcvBuf+6)
01A4 00C8         1127           ADD     R12,R8
01A6 42FC0000  R  1128           CMP     R12,POF (_ME_RcvBuf+4)
01AA CD19         1129           JMPR    cc_SLT,_24
                  1130   ; me_comn.c  113                {
                  1131   ; me_comn.c  114        #if defined VME_DEBUG
                  1132   ; me_comn.c  115                debugex_nonl( "\r\nME request new memory: %d", 
                  1133   ; me_comn.c  116                    ME_RcvBuf.len + RESULT_BUFSIZE );
                  1134           ?LINE   116
01AC F2FC0000  R  1135           MOV     R12,POF (_ME_RcvBuf+4)
01B0 06FCE803     1136           ADD     R12,#03E8h
01B4 88C0         1137           MOV     [-R0],R12
               R  1138           ?SYMB   '',$,96,8
01B6 E6FC0000  R  1139           MOV     R12,#POF _19
01BA E6FD0000  R  1140           MOV     R13,#PAG _19
01BE DA000000  R  1141           CALLS   SEG _debugex_nonl,_debugex_nonl
               R  1142           ?SYMB   '',$,96,6
                  1143   ; me_comn.c  117        #endif
                  1144   ; me_comn.c  118                        if ( !ME_Malloc( ME_RcvBuf.len + RESULT_BUFSIZE ) )
                  1145           ?LINE   118
01C2 E6000000  R  1146           MOV     DPP0,#PAG _ME_RcvBuf
01C6 0802         1147           ADD     R0,#02h
01C8 F2FC0000  R  1148           MOV     R12,POF (_ME_RcvBuf+4)
01CC 06FCE803     1149           ADD     R12,#03E8h
01D0 DA005400  R  1150           CALLS   SEG _ME_Malloc,_ME_Malloc
01D4 4840         1151           CMP     R4,#00h
01D6 3D03         1152           JMPR    cc_NZ,_24
                  1153   ; me_comn.c  119                                return -1;
                  1154           ?LINE   119
01D8 E6F4FFFF     1155           MOV     R4,#0FFFFh
01DC 0D28         1156           JMPR    cc_UC,_25
                  1157   ; me_comn.c  120                }
                  1158           ?LINE   120
01DE              1159   _24:
               R  1160           ?SYMB   '',$,102,2
               R  1161           ?SYMB   '',$,102,1
               R  1162           ?SYMB   'R8',$,100,2
               R  1163           ?SYMB   'R9R6',$,100,1
                  1164   ; me_comn.c  121        
                  1165   ; me_comn.c  122        #if defined VME_DEBUG
                  1166   ; me_comn.c  123            debugex_nonl( "\r\ncall memcpy in ME_MemAssign begin" );
                  1167           ?LINE   123
01DE E6FC0000  R  1168           MOV     R12,#POF _20
01E2 E6FD0000  R  1169           MOV     R13,#PAG _20
01E6 DA000000  R  1170           CALLS   SEG _debugex_nonl,_debugex_nonl
               R  1171           ?SYMB   '',$,96,8
                  1172   ; me_comn.c  124        #endif
                  1173   ; me_comn.c  125                memcpy( &ME_RcvBuf.p[ME_RcvBuf.offset], data, datalen );
                  1174           ?LINE   125
01EA E6000000  R  1175           MOV     DPP0,#PAG _ME_RcvBuf
01EE 8880         1176           MOV     [-R0],R8
01F0 F2FC0000  R  1177           MOV     R12,POF _ME_RcvBuf
01F4 F2FD0000  R  1178           MOV     R13,POF (_ME_RcvBuf+2)
01F8 02FC0000  R  1179           ADD     R12,POF (_ME_RcvBuf+6)
01FC F0E9         1180           MOV     R14,R9
01FE F0F6         1181           MOV     R15,R6
0200 DA000000  R  1182           CALLS   SEG _memcpy,_memcpy
               R  1183           ?SYMB   '',$,102,1
0204 0802         1184           ADD     R0,#02h
               R  1185           ?SYMB   '',$,96,6
                  1186   ; me_comn.c  126        #if defined VME_DEBUG
                  1187   ; me_comn.c  127            debugex_nonl( "\r\ncall memcpy in ME_MemAssign end" );
                  1188           ?LINE   127
0206 E6FC0000  R  1189           MOV     R12,#POF _21
020A E6FD0000  R  1190           MOV     R13,#PAG _21
020E DA000000  R  1191           CALLS   SEG _debugex_nonl,_debugex_nonl
                  1192   ; me_comn.c  128        #endif
                  1193   ; me_comn.c  129        
                  1194   ; me_comn.c  130                ME_RcvBuf.offset += datalen;
                  1195           ?LINE   130
0212 E6000000  R  1196           MOV     DPP0,#PAG _ME_RcvBuf
0216 E6FC0000  R  1197           MOV     R12,#POF _22
021A F2F90000  R  1198           MOV     R9,POF (_ME_RcvBuf+6)
021E 0098         1199           ADD     R9,R8
0220 F6F90000  R  1200           MOV     POF (_ME_RcvBuf+6),R9
                  1201   ; me_comn.c  131        #if defined VME_DEBUG
                  1202   ; me_comn.c  132            debugex_nonl( "\r\nleave ME_MemAssign" );
                  1203           ?LINE   132
0224 E6FD0000  R  1204           MOV     R13,#PAG _22
0228 DA000000  R  1205           CALLS   SEG _debugex_nonl,_debugex_nonl
               R  1206           ?SYMB   '',$,102,2
                  1207   ; me_comn.c  133        #endif
                  1208   ; me_comn.c  134        
                  1209   ; me_comn.c  135                return 0;
                  1210           ?LINE   135
022C E004         1211           MOV     R4,#00h
                  1212   ; me_comn.c  136        }
                  1213           ?LINE   136
022E              1214   _25:
022E 9860         1215           MOV     R6,[R0+]
               R  1216           ?SYMB   '',$,96,4
0230 9880         1217           MOV     R8,[R0+]
               R  1218           ?SYMB   '',$,96,2
0232 9890         1219           MOV     R9,[R0+]
               R  1220           ?SYMB   '',$,96,0
0234 DB00         1221           RETS
                  1222   _ME_MemAssign   ENDP
               R  1223           ?SYMB   '',$,17,136
                  1224   ; me_comn.c  137        
                  1225   ; me_comn.c  138        /*********************************************************************\
                          
                  1226   ; me_comn.c  139        * Function         
                  1227   ; me_comn.c  140        * Purpose      
                  1228   ; me_comn.c  141        * Params           
                  1229   ; me_comn.c  142        * Return                   
                  1230   ; me_comn.c  143        * Remarks          
                  1231   ; me_comn.c  144        **********************************************************************/
                  1232   ; me_comn.c  145        char* ME_MemGetPntr(void)
                  1233   ; me_comn.c  146        {
                  1234           ?LINE   146
                  1235           PUBLIC  _ME_MemGetPntr
               R  1236           ?SYMB   'ME_MemGetPntr',_ME_MemGetPntr,37,270
                  1237           ?SYMB   '',146,8,34
                  1238   _ME_MemGetPntr  PROC    FAR
                  1239           ?SYMB   '',00H,95,0
                  1240   ; Locals:
                  1241   ; 
                  1242   ; Statics:
                  1243   ; 
                  1244   ; CSEs:
                  1245   ; 
                  1246   ; me_comn.c  147                return ME_RcvBuf.p;
                  1247           ?LINE   147
0236 E6000000  R  1248           MOV     DPP0,#PAG _ME_RcvBuf
023A CC00         1249           NOP
023C F2F40000  R  1250           MOV     R4,POF _ME_RcvBuf
0240 F2F50000  R  1251           MOV     R5,POF (_ME_RcvBuf+2)
                  1252   ; me_comn.c  148        }
                  1253           ?LINE   148
0244 DB00         1254           RETS
                  1255   _ME_MemGetPntr  ENDP
               R  1256           ?SYMB   '',$,17,148
                  1257   ; me_comn.c  149        
                  1258   ; me_comn.c  150        /*********************************************************************\
                          
                  1259   ; me_comn.c  151        * Function         
                  1260   ; me_comn.c  152        * Purpose      
                  1261   ; me_comn.c  153        * Params           
                  1262   ; me_comn.c  154        * Return                   
                  1263   ; me_comn.c  155        * Remarks          
                  1264   ; me_comn.c  156        **********************************************************************/
                  1265   ; me_comn.c  157        int ME_MemGetOffset(void)
                  1266   ; me_comn.c  158        {
                  1267           ?LINE   158
                  1268           PUBLIC  _ME_MemGetOffset
               R  1269           ?SYMB   'ME_MemGetOffset',_ME_MemGetOffset,37,16
                  1270           ?SYMB   '',158,8,34
                  1271   _ME_MemGetOffset        PROC    FAR
                  1272           ?SYMB   '',00H,95,0
                  1273   ; Locals:
                  1274   ; 
                  1275   ; Statics:
                  1276   ; 
                  1277   ; CSEs:
                  1278   ; 
                  1279   ; me_comn.c  159                return ME_RcvBuf.offset;
                  1280           ?LINE   159
0246 E6000000  R  1281           MOV     DPP0,#PAG _ME_RcvBuf
024A CC00         1282           NOP
024C F2F40000  R  1283           MOV     R4,POF (_ME_RcvBuf+6)
                  1284   ; me_comn.c  160        }
                  1285           ?LINE   160
0250 DB00         1286           RETS
                  1287   _ME_MemGetOffset        ENDP
               R  1288           ?SYMB   '',$,17,160
                  1289   ; me_comn.c  161        
                  1290   ; me_comn.c  162        /***************************************************************
                  1291   ; me_comn.c  163        * Purpose: 
                  1292   ; me_comn.c  164        * 
                  1293   ; me_comn.c  165        * Parameter:
                  1294   ; me_comn.c  166        *       pSrc:           
                  1295   ; me_comn.c  167        *       pnResult:       
                  1296   ; me_comn.c  168        *       Identf:         "+CPBR:"
                  1297   ; me_comn.c  169        *       index:          
                         1
                  1298   ; me_comn.c  170        *  
                  1299   ; me_comn.c  171        * Return Value:
                  1300   ; me_comn.c  172        *       !=-1:  
                  1301   ; me_comn.c  173        *       -1: 
                  1302   ; me_comn.c  174        *****************************************************************/
                  1303   ; me_comn.c  175        int ME_GetIntSection( char* pSrc, char* Identf, int index )
                  1304   ; me_comn.c  176        {
                  1305           ?LINE   176
                  1306           PUBLIC  _ME_GetIntSection
               R  1307           ?SYMB   'ME_GetIntSection',_ME_GetIntSection,37,16
                  1308           ?SYMB   '',176,8,34
                  1309   _ME_GetIntSection       PROC    FAR
                  1310           ?SYMB   '',0340H,95,0
0252 8890         1311           MOV     [-R0],R9
               R  1312           ?SYMB   '',$,96,2
0254 8880         1313           MOV     [-R0],R8
               R  1314           ?SYMB   '',$,96,4
0256 8860         1315           MOV     [-R0],R6
               R  1316           ?SYMB   '',$,96,6
0258 26F01400     1317           SUB     R0,#014h
               R  1318           ?SYMB   '',$,96,26
                  1319   ; Locals:
                  1320   ;     pResult = offset 0
                  1321   ; 
                  1322   ; Statics:
                  1323   ; 
                  1324   ; CSEs:
                  1325   ;     pBegin = R8R9
                  1326   ;     nSectionNum = R6
                  1327   ;     pEnd = R12R13
                  1328   ;     nSecLen = R6
                  1329   ;     Identf = R14R15
                  1330   ;     pSrc = R12R13
                  1331   ;     nResult = R12
                  1332   ;     index = offset 26
                  1333   ; 
                  1334           ?SYMB   'pSrc',8,99,270
                  1335           ?SYMB   'Identf',5,99,270
                  1336           ?SYMB   'index',3,99,16
                  1337           ?SYMB   'pBegin',7,98,270
               R  1338           ?SYMB   'R12R13',$,100,8
               R  1339           ?SYMB   'R14R15',$,100,5
               R  1340           ?SYMB   '0',$,101,3
                  1341   ; me_comn.c  177                char* pBegin = pSrc;
                  1342           ?LINE   177
025C F08C         1343           MOV     R8,R12
025E F09D         1344           MOV     R9,R13
               R  1345           ?SYMB   'R8R9',$,100,7
                  1346           ?SYMB   'pEnd',4,98,270
                  1347           ?SYMB   'pResult',9,98,522
               R  1348           ?SYMB   '-1a',$,101,9
                  1349           ?SYMB   'nResult',1,98,16
                  1350           ?SYMB   'nSectionNum',6,98,16
                  1351   ; me_comn.c  178                char *pEnd = NULL;
                  1352   ; me_comn.c  179                char pResult[20];
                  1353   ; me_comn.c  180                int nResult = 0;
                  1354   ; me_comn.c  181                int nSectionNum = 0;
                  1355           ?LINE   181
0260 E006         1356           MOV     R6,#00h
               R  1357           ?SYMB   'R6',$,100,6
                  1358           ?SYMB   'nSecLen',2,98,16
                  1359   ; me_comn.c  182                int nSecLen;
                  1360   ; me_comn.c  183        
                  1361   ; me_comn.c  184                if (strlen(Identf) > 0 )
                  1362           ?LINE   184
0262 88F0         1363           MOV     [-R0],R15
               R  1364           ?SYMB   '',$,96,28
0264 88E0         1365           MOV     [-R0],R14
               R  1366           ?SYMB   '',$,96,30
0266 88C0         1367           MOV     [-R0],R12
               R  1368           ?SYMB   '',$,96,32
0268 88D0         1369           MOV     [-R0],R13
               R  1370           ?SYMB   '',$,96,34
026A D4D00600     1371           MOV     R13,[R0+#06H]
               R  1372           ?SYMB   '',$,102,8
026E D4C00400     1373           MOV     R12,[R0+#04H]
0272 DA000000  R  1374           CALLS   SEG _strlen,_strlen
               R  1375           ?SYMB   '',$,102,5
0276 98D0         1376           MOV     R13,[R0+]
               R  1377           ?SYMB   '',$,96,32
0278 98C0         1378           MOV     R12,[R0+]
               R  1379           ?SYMB   '',$,96,30
               R  1380           ?SYMB   'R12R13',$,100,8
027A 98E0         1381           MOV     R14,[R0+]
               R  1382           ?SYMB   '',$,96,28
027C 98F0         1383           MOV     R15,[R0+]
               R  1384           ?SYMB   '',$,96,26
               R  1385           ?SYMB   'R14R15',$,100,5
027E 4840         1386           CMP     R4,#00h
0280 FD12         1387           JMPR    cc_ULE,_80
                  1388   ; me_comn.c  185                {
                  1389   ; me_comn.c  186                        pBegin = strstr(pSrc, Identf);
                  1390           ?LINE   186
0282 88F0         1391           MOV     [-R0],R15
               R  1392           ?SYMB   '',$,96,28
0284 88E0         1393           MOV     [-R0],R14
               R  1394           ?SYMB   '',$,96,30
0286 DA000000  R  1395           CALLS   SEG _strstr,_strstr
               R  1396           ?SYMB   '',$,102,7
               R  1397           ?SYMB   '',$,102,8
               R  1398           ?SYMB   '',$,102,5
028A F084         1399           MOV     R8,R4
028C F095         1400           MOV     R9,R5
               R  1401           ?SYMB   'R8R9',$,100,7
028E 98E0         1402           MOV     R14,[R0+]
               R  1403           ?SYMB   '',$,96,28
0290 98F0         1404           MOV     R15,[R0+]
               R  1405           ?SYMB   '',$,96,26
               R  1406           ?SYMB   'R14R15',$,100,5
                  1407   ; me_comn.c  187                        if ( pBegin == NULL )
                  1408           ?LINE   187
0292 F0C9         1409           MOV     R12,R9
0294 70C8         1410           OR      R12,R8
0296 EA206203  R  1411           JMPA    cc_Z,_95
                  1412   ; me_comn.c  188                                return -1;
                  1413   ; me_comn.c  189                        pBegin += (strlen(Identf));
                  1414           ?LINE   189
029A F0CE         1415           MOV     R12,R14
029C F0DF         1416           MOV     R13,R15
029E DA000000  R  1417           CALLS   SEG _strlen,_strlen
               R  1418           ?SYMB   '',$,102,5
02A2 E00C         1419           MOV     R12,#00h
02A4 0084         1420           ADD     R8,R4
               R  1421           ?SYMB   '',$,102,7
               R  1422           ?SYMB   'R8R9',$,100,7
                  1423   ; me_comn.c  190                }
                  1424   ; me_comn.c  191        
                  1425   ; me_comn.c  192                while ( (pEnd = strchr(pBegin, ',')) != NULL )
                  1426           ?LINE   192
02A6              1427   _80:
02A6 0D1E         1428           JMPR    cc_UC,_88
                  1429   ; me_comn.c  193                {
                  1430   ; me_comn.c  194                        while (*pBegin == ' ')
                  1431           ?LINE   194
02A8              1432   _81:
               R  1433           ?SYMB   'R12R13',$,100,4
02A8 0D01         1434           JMPR    cc_UC,_83
02AA              1435   _82:
                  1436   ; me_comn.c  195                                pBegin++;
                  1437           ?LINE   195
02AA 0881         1438           ADD     R8,#01h
               R  1439           ?SYMB   '',$,102,7
               R  1440           ?SYMB   'R8R9',$,100,7
                  1441           ?LINE   194
02AC              1442   _83:
02AC DC49         1443           EXTP    R9,#01h
02AE A928     1   1444           MOVB    RL1,[R8]
02B0 47F22000     1445           CMPB    RL1,#020h
02B4 2DFA         1446           JMPR    cc_EQ,_82
                  1447   ; me_comn.c  196                        if ((pEnd == pBegin))
                  1448           ?LINE   196
02B6 F0EC         1449           MOV     R14,R12
02B8 F0FD         1450           MOV     R15,R13
02BA 20E8         1451           SUB     R14,R8
02BC 30F9         1452           SUBC    R15,R9
02BE 3D02         1453           JMPR    cc_NE,_84
                  1454   ; me_comn.c  197                        {
                  1455   ; me_comn.c  198                                pBegin++;
                  1456           ?LINE   198
02C0 0881         1457           ADD     R8,#01h
               R  1458           ?SYMB   '',$,102,7
               R  1459           ?SYMB   'R8R9',$,100,7
                  1460   ; me_comn.c  199                                continue;
                  1461           ?LINE   199
02C2 0D10         1462           JMPR    cc_UC,_88
                  1463   ; me_comn.c  200                        }
                  1464           ?LINE   200
02C4              1465   _84:
               R  1466           ?SYMB   '',$,102,4
               R  1467           ?SYMB   'R12R13',$,100,4
                  1468   ; me_comn.c  201                        if (*pBegin == '"')
                  1469           ?LINE   201
02C4 DC49         1470           EXTP    R9,#01h
02C6 A928     1   1471           MOVB    RL1,[R8]
02C8 47F22200     1472           CMPB    RL1,#022h
02CC 2D08         1473           JMPR    cc_EQ,_86
                  1474   ; me_comn.c  202                        {
                  1475   ; me_comn.c  203                                pBegin = pEnd+1;
                  1476   ; me_comn.c  204                                continue;
                  1477   ; me_comn.c  205                        }
                  1478   ; me_comn.c  206                        nSectionNum++;
                  1479           ?LINE   206
02CE 0861         1480           ADD     R6,#01h
               R  1481           ?SYMB   '',$,102,6
               R  1482           ?SYMB   'R6',$,100,6
                  1483   ; me_comn.c  207                        if (nSectionNum == index)
                  1484           ?LINE   207
02D0 D4E01A00     1485           MOV     R14,[R0+#01AH]
02D4 406E         1486           CMP     R6,R14
02D6 3D03         1487           JMPR    cc_NE,_86
               R  1488           ?SYMB   '',$,102,3
                  1489   ; me_comn.c  208                        {
                  1490   ; me_comn.c  209                                nSecLen = pEnd-pBegin;
                  1491           ?LINE   209
02D8 20C8         1492           SUB     R12,R8
               R  1493           ?SYMB   '',$,102,4
02DA F06C         1494           MOV     R6,R12
               R  1495           ?SYMB   '',$,102,6
               R  1496           ?SYMB   'R6',$,100,2
                  1497   ; me_comn.c  210                                memcpy(pResult, pBegin, nSecLen);
                  1498           ?LINE   210
02DC 0D2A         1499           JMPR    cc_UC,_91
                  1500   ; me_comn.c  211                                pResult[nSecLen] = '\0';
                  1501   ; me_comn.c  212                                nResult = atoi(pResult);
                  1502   ; me_comn.c  213                                return nResult;
                  1503   ; me_comn.c  214                        }
                  1504           ?LINE   214
02DE              1505   _86:
               R  1506           ?SYMB   '',$,102,7
               R  1507           ?SYMB   '',$,102,2
               R  1508           ?SYMB   'R6',$,100,6
               R  1509           ?SYMB   'R12R13',$,100,4
               R  1510           ?SYMB   '0',$,101,3
                  1511   ; me_comn.c  215                        pBegin = pEnd+1;
                  1512           ?LINE   215
02DE F08C         1513           MOV     R8,R12
02E0 F09D         1514           MOV     R9,R13
02E2 0881         1515           ADD     R8,#01h
               R  1516           ?SYMB   'R8R9',$,100,7
                  1517           ?LINE   192
02E4              1518   _88:
               R  1519           ?SYMB   '',$,102,4
02E4 F0C8         1520           MOV     R12,R8
02E6 F0D9         1521           MOV     R13,R9
02E8 E6FE2C00     1522           MOV     R14,#02Ch
02EC DA000000  R  1523           CALLS   SEG _strchr,_strchr
02F0 F0C4         1524           MOV     R12,R4
02F2 F0D5         1525           MOV     R13,R5
               R  1526           ?SYMB   'R12R13',$,100,4
02F4 F0ED         1527           MOV     R14,R13
02F6 70EC         1528           OR      R14,R12
02F8 3DD7         1529           JMPR    cc_NZ,_81
                  1530   ; me_comn.c  216                }
                  1531   ; me_comn.c  217        
                  1532   ; me_comn.c  218                if (strlen(pBegin) > 0 )
                  1533           ?LINE   218
02FA F0C8         1534           MOV     R12,R8
               R  1535           ?SYMB   '',$,102,4
02FC F0D9         1536           MOV     R13,R9
02FE DA000000  R  1537           CALLS   SEG _strlen,_strlen
0302 4840         1538           CMP     R4,#00h
0304 FD2E         1539           JMPR    cc_ULE,_95
                  1540   ; me_comn.c  219                {
                  1541   ; me_comn.c  220                        while (*pBegin == ' ')
                  1542           ?LINE   220
0306 0D01         1543           JMPR    cc_UC,_90
0308              1544   _89:
                  1545   ; me_comn.c  221                                pBegin++;
                  1546           ?LINE   221
0308 0881         1547           ADD     R8,#01h
               R  1548           ?SYMB   '',$,102,7
               R  1549           ?SYMB   'R8R9',$,100,7
                  1550           ?LINE   220
030A              1551   _90:
030A DC49         1552           EXTP    R9,#01h
030C A928     1   1553           MOVB    RL1,[R8]
030E 47F22000     1554           CMPB    RL1,#020h
0312 2DFA         1555           JMPR    cc_EQ,_89
                  1556   ; me_comn.c  222        
                  1557   ; me_comn.c  223                        if ( *pBegin != '"' && nSectionNum == index-1)
                  1558           ?LINE   223
0314 DC49         1559           EXTP    R9,#01h
0316 A928     1   1560           MOVB    RL1,[R8]
0318 47F22200     1561           CMPB    RL1,#022h
031C 2D22         1562           JMPR    cc_EQ,_95
031E D4C01A00     1563           MOV     R12,[R0+#01AH]
0322 28C1         1564           SUB     R12,#01h
0324 40C6         1565           CMP     R12,R6
0326 3D1D         1566           JMPR    cc_NE,_95
                  1567   ; me_comn.c  224                        {
                  1568   ; me_comn.c  225                                nSectionNum++;
                  1569   ; me_comn.c  226                                nSecLen = strlen(pBegin);
                  1570           ?LINE   226
0328 F0C8         1571           MOV     R12,R8
032A F0D9         1572           MOV     R13,R9
032C DA000000  R  1573           CALLS   SEG _strlen,_strlen
               R  1574           ?SYMB   '',$,102,6
0330 F064         1575           MOV     R6,R4
               R  1576           ?SYMB   'R6',$,100,2
                  1577   ; me_comn.c  227                                memcpy(pResult, pBegin, nSecLen);
                  1578           ?LINE   227
0332              1579   _91:
0332 8860         1580           MOV     [-R0],R6
               R  1581           ?SYMB   '',$,96,28
0334 E02C         1582           MOV     R12,#02h
0336 00C0         1583           ADD     R12,R0
0338 66FCFF3F     1584           AND     R12,#03FFFh
033C F2FD02FE     1585           MOV     R13,DPP1
0340 F0E8         1586           MOV     R14,R8
0342 F0F9         1587           MOV     R15,R9
0344 DA000000  R  1588           CALLS   SEG _memcpy,_memcpy
               R  1589           ?SYMB   '',$,102,7
0348 0802         1590           ADD     R0,#02h
               R  1591           ?SYMB   '',$,96,26
                  1592   ; me_comn.c  228                                pResult[nSecLen] = '\0';
                  1593           ?LINE   228
034A E102         1594           MOVB    RL1,#00h
034C 0060         1595           ADD     R6,R0
               R  1596           ?SYMB   '',$,102,2
034E B926         1597           MOVB    [R6],RL1
                  1598   ; me_comn.c  229                                nResult = atoi(pResult);
                  1599           ?LINE   229
0350 F0C0         1600           MOV     R12,R0
0352 66FCFF3F     1601           AND     R12,#03FFFh
0356 F2FD02FE     1602           MOV     R13,DPP1
035A DA000000  R  1603           CALLS   SEG _atoi,_atoi
035E F0C4         1604           MOV     R12,R4
               R  1605           ?SYMB   'R12',$,100,1
                  1606   ; me_comn.c  230                                
                  1607   ; me_comn.c  231                                return (nResult);
                  1608           ?LINE   231
0360 0D02         1609           JMPR    cc_UC,_96
                  1610   ; me_comn.c  232                        }
                  1611   ; me_comn.c  233                }
                  1612           ?LINE   233
0362              1613   _95:
               R  1614           ?SYMB   '',$,102,1
                  1615   ; me_comn.c  234        
                  1616   ; me_comn.c  235                return -1;
                  1617           ?LINE   235
0362 E6F4FFFF     1618           MOV     R4,#0FFFFh
                  1619   ; me_comn.c  236        }
                  1620           ?LINE   236
0366              1621   _96:
               R  1622           ?SYMB   '',$,102,9
0366 06F01400     1623           ADD     R0,#014h
               R  1624           ?SYMB   '',$,96,6
036A 9860         1625           MOV     R6,[R0+]
               R  1626           ?SYMB   '',$,96,4
036C 9880         1627           MOV     R8,[R0+]
               R  1628           ?SYMB   '',$,96,2
036E 9890         1629           MOV     R9,[R0+]
               R  1630           ?SYMB   '',$,96,0
0370 DB00         1631           RETS
                  1632   _ME_GetIntSection       ENDP
               R  1633           ?SYMB   '',$,17,236
                  1634   ; me_comn.c  237        
                  1635   ; me_comn.c  238        /***************************************************************
                  1636   ; me_comn.c  239        * Purpose: 
                  1637   ; me_comn.c  240        * 
                  1638   ; me_comn.c  241        * Parameter:
                  1639   ; me_comn.c  242        *       pSrc:           
                  1640   ; me_comn.c  243        *       pResult:        
                  1641   ; me_comn.c  244        *       Identf:         "+CPBR:"
                  1642   ; me_comn.c  245        *       index:          1
                         
                  1643   ; me_comn.c  246        *  
                  1644   ; me_comn.c  247        * Return Value:
                  1645   ; me_comn.c  248        *       TRUE:  
                  1646   ; me_comn.c  249        *       FALSE: 
                  1647   ; me_comn.c  250        *****************************************************************/
                  1648   ; me_comn.c  251        int ME_GetStrSection(char* pSrc, char* pResult, int nLen, char* Identf,
                          int index)
                  1649   ; me_comn.c  252        {
                  1650           ?LINE   252
                  1651           PUBLIC  _ME_GetStrSection
               R  1652           ?SYMB   'ME_GetStrSection',_ME_GetStrSection,37,16
                  1653           ?SYMB   '',252,8,34
                  1654   _ME_GetStrSection       PROC    FAR
                  1655           ?SYMB   '',03c0H,95,0
0372 8890         1656           MOV     [-R0],R9
               R  1657           ?SYMB   '',$,96,2
0374 8880         1658           MOV     [-R0],R8
               R  1659           ?SYMB   '',$,96,4
0376 8870         1660           MOV     [-R0],R7
               R  1661           ?SYMB   '',$,96,6
0378 8860         1662           MOV     [-R0],R6
               R  1663           ?SYMB   '',$,96,8
037A 88F0         1664           MOV     [-R0],R15
               R  1665           ?SYMB   '',$,96,10
037C 88E0         1666           MOV     [-R0],R14
               R  1667           ?SYMB   '',$,96,12
037E 2802         1668           SUB     R0,#02h
               R  1669           ?SYMB   '',$,96,14
0380 D4701200     1670           MOV     R7,[R0+#012H]
0384 D4601000     1671           MOV     R6,[R0+#010H]
                  1672   ; Locals:
                  1673   ; 
                  1674   ; Statics:
                  1675   ; 
                  1676   ; CSEs:
                  1677   ;     pBegin = R8R9
                  1678   ;     pFirstQuota = R6R7
                  1679   ;     pSecondQuota = R12R13
                  1680   ;     nSecLen = R12
                  1681   ;     pEnd = R1R2
                  1682   ;     nSectionNum = offset 0
                  1683   ;     pResult = offset 2
                  1684   ;     Identf = R6R7
                  1685   ;     pSrc = R12R13
                  1686   ;     index = offset 20
                  1687   ;     nLen = offset 14
                  1688   ; 
                  1689           ?SYMB   'pSrc',11,99,270
                  1690           ?SYMB   'pResult',1,99,270
                  1691           ?SYMB   'nLen',2,99,16
                  1692           ?SYMB   'Identf',8,99,270
                  1693           ?SYMB   'index',4,99,16
                  1694           ?SYMB   'pBegin',10,98,270
               R  1695           ?SYMB   'R12R13',$,100,11
               R  1696           ?SYMB   'R6R7',$,100,8
               R  1697           ?SYMB   '6',$,101,4
               R  1698           ?SYMB   '0',$,101,2
               R  1699           ?SYMB   '-c',$,101,1
                  1700   ; me_comn.c  253                char* pBegin = pSrc;
                  1701           ?LINE   253
0388 F08C         1702           MOV     R8,R12
038A F09D         1703           MOV     R9,R13
               R  1704           ?SYMB   'R8R9',$,100,10
                  1705           ?SYMB   'pEnd',5,98,270
                  1706           ?SYMB   'pFirstQuota',7,98,270
                  1707           ?SYMB   'pSecondQuota',6,98,270
                  1708           ?SYMB   'nSectionNum',9,98,16
                  1709   ; me_comn.c  254                char* pEnd = NULL;
                  1710   ; me_comn.c  255                char *pFirstQuota, *pSecondQuota;
                  1711   ; me_comn.c  256                int nSectionNum = 0;
                  1712           ?LINE   256
038C E001         1713           MOV     R1,#00h
038E B810         1714           MOV     [R0],R1
               R  1715           ?SYMB   '-e',$,101,9
                  1716           ?SYMB   'nSecLen',3,98,16
                  1717   ; me_comn.c  257                int nSecLen;
                  1718   ; me_comn.c  258        
                  1719   ; me_comn.c  259                if (strlen(Identf) > 0 )
                  1720           ?LINE   259
0390 88C0         1721           MOV     [-R0],R12
               R  1722           ?SYMB   '',$,96,16
0392 88D0         1723           MOV     [-R0],R13
               R  1724           ?SYMB   '',$,96,18
0394 F0C6         1725           MOV     R12,R6
               R  1726           ?SYMB   '',$,102,11
0396 F0D7         1727           MOV     R13,R7
0398 DA000000  R  1728           CALLS   SEG _strlen,_strlen
039C 98D0         1729           MOV     R13,[R0+]
               R  1730           ?SYMB   '',$,96,16
039E 98C0         1731           MOV     R12,[R0+]
               R  1732           ?SYMB   '',$,96,14
               R  1733           ?SYMB   'R12R13',$,100,11
03A0 4840         1734           CMP     R4,#00h
03A2 FD10         1735           JMPR    cc_ULE,_173
                  1736   ; me_comn.c  260                {
                  1737   ; me_comn.c  261                        pBegin = strstr(pSrc, Identf);
                  1738           ?LINE   261
03A4 F0E6         1739           MOV     R14,R6
03A6 F0F7         1740           MOV     R15,R7
03A8 DA000000  R  1741           CALLS   SEG _strstr,_strstr
               R  1742           ?SYMB   '',$,102,10
               R  1743           ?SYMB   '',$,102,11
03AC F084         1744           MOV     R8,R4
03AE F095         1745           MOV     R9,R5
               R  1746           ?SYMB   'R8R9',$,100,10
                  1747   ; me_comn.c  262                        if (!pBegin)
                  1748           ?LINE   262
03B0 F0C9         1749           MOV     R12,R9
03B2 70C8         1750           OR      R12,R8
03B4 EA20EC04  R  1751           JMPA    cc_Z,_191
                  1752   ; me_comn.c  263                                return -1;
                  1753   ; me_comn.c  264                        pBegin += (strlen(Identf));
                  1754           ?LINE   264
03B8 F0C6         1755           MOV     R12,R6
03BA F0D7         1756           MOV     R13,R7
03BC DA000000  R  1757           CALLS   SEG _strlen,_strlen
               R  1758           ?SYMB   '',$,102,8
03C0 E006         1759           MOV     R6,#00h
03C2 0084         1760           ADD     R8,R4
               R  1761           ?SYMB   '',$,102,10
               R  1762           ?SYMB   'R8R9',$,100,10
                  1763   ; me_comn.c  265                }
                  1764           ?LINE   265
03C4              1765   _173:
                  1766   ; me_comn.c  266        
                  1767   ; me_comn.c  267                pFirstQuota = strchr(pBegin, '"');
                  1768           ?LINE   267
03C4 F0C8         1769           MOV     R12,R8
03C6 F0D9         1770           MOV     R13,R9
03C8 E6FE2200     1771           MOV     R14,#022h
03CC DA000000  R  1772           CALLS   SEG _strchr,_strchr
03D0 F064         1773           MOV     R6,R4
03D2 F075         1774           MOV     R7,R5
               R  1775           ?SYMB   'R6R7',$,100,7
                  1776   ; me_comn.c  268                if (!pFirstQuota)
                  1777           ?LINE   268
03D4 F0C7         1778           MOV     R12,R7
03D6 70C6         1779           OR      R12,R6
03D8 EA20EC04  R  1780           JMPA    cc_Z,_191
                  1781   ; me_comn.c  269                        return -1;
                  1782   ; me_comn.c  270                pSecondQuota = strchr(pFirstQuota+1, '"');
                  1783           ?LINE   270
03DC F0C6         1784           MOV     R12,R6
03DE F0D7         1785           MOV     R13,R7
03E0 08C1         1786           ADD     R12,#01h
03E2 E6FE2200     1787           MOV     R14,#022h
03E6 DA000000  R  1788           CALLS   SEG _strchr,_strchr
03EA F0C4         1789           MOV     R12,R4
03EC F0D5         1790           MOV     R13,R5
               R  1791           ?SYMB   'R12R13',$,100,6
                  1792   ; me_comn.c  271                if (!pSecondQuota)
                  1793           ?LINE   271
03EE F0ED         1794           MOV     R14,R13
03F0 70EC         1795           OR      R14,R12
               R  1796           ?SYMB   '',$,102,9
               R  1797           ?SYMB   '',$,102,4
               R  1798           ?SYMB   '',$,102,2
               R  1799           ?SYMB   '',$,102,1
                  1800   ; me_comn.c  272                        return -1;
                  1801           ?LINE   272
03F2 EA20EC04  R  1802           JMPA    cc_Z,_191
                  1803   ; me_comn.c  273        
                  1804   ; me_comn.c  274                while ( (pEnd=strchr(pBegin, ',')) != NULL )
                  1805           ?LINE   274
03F6              1806   _174:
               R  1807           ?SYMB   '',$,102,10
               R  1808           ?SYMB   '',$,102,7
               R  1809           ?SYMB   '',$,102,6
               R  1810           ?SYMB   'R8R9',$,100,10
               R  1811           ?SYMB   '-e',$,101,9
               R  1812           ?SYMB   'R6R7',$,100,7
               R  1813           ?SYMB   'R12R13',$,100,6
               R  1814           ?SYMB   '6',$,101,4
               R  1815           ?SYMB   '0',$,101,2
               R  1816           ?SYMB   '-c',$,101,1
03F6 0D35         1817           JMPR    cc_UC,_180
03F8              1818   _175:
               R  1819           ?SYMB   'R1R2',$,100,5
                  1820   ; me_comn.c  275                {
                  1821   ; me_comn.c  276                        if (pEnd < pSecondQuota)
                  1822           ?LINE   276
03F8 F0E1         1823           MOV     R14,R1
03FA F0F2         1824           MOV     R15,R2
03FC 20EC         1825           SUB     R14,R12
03FE 30FD         1826           SUBC    R15,R13
0400 9D04         1827           JMPR    cc_UGE,_176
                  1828   ; me_comn.c  277                        {
                  1829   ; me_comn.c  278                                pBegin = pEnd+1;
                  1830           ?LINE   278
0402 F081         1831           MOV     R8,R1
               R  1832           ?SYMB   '',$,102,10
0404 F092         1833           MOV     R9,R2
0406 0881         1834           ADD     R8,#01h
               R  1835           ?SYMB   'R8R9',$,100,10
                  1836   ; me_comn.c  279                                continue;
                  1837           ?LINE   279
0408 0D2C         1838           JMPR    cc_UC,_180
                  1839   ; me_comn.c  280                        }
                  1840           ?LINE   280
040A              1841   _176:
               R  1842           ?SYMB   '',$,102,5
               R  1843           ?SYMB   'R1R2',$,100,5
                  1844   ; me_comn.c  281                        if ((pEnd == pBegin))
                  1845           ?LINE   281
040A F0E1         1846           MOV     R14,R1
040C F0F2         1847           MOV     R15,R2
040E 20E8         1848           SUB     R14,R8
0410 30F9         1849           SUBC    R15,R9
0412 3D02         1850           JMPR    cc_NE,_177
                  1851   ; me_comn.c  282                        {
                  1852   ; me_comn.c  283                                pBegin++;
                  1853           ?LINE   283
0414 0881         1854           ADD     R8,#01h
               R  1855           ?SYMB   '',$,102,10
               R  1856           ?SYMB   'R8R9',$,100,10
                  1857   ; me_comn.c  284                                continue;
                  1858           ?LINE   284
0416 0D25         1859           JMPR    cc_UC,_180
                  1860   ; me_comn.c  285                        }
                  1861           ?LINE   285
0418              1862   _177:
               R  1863           ?SYMB   '',$,102,5
               R  1864           ?SYMB   '',$,102,10
               R  1865           ?SYMB   'R1R2',$,100,5
                  1866   ; me_comn.c  286        
                  1867   ; me_comn.c  287                        pBegin = pEnd+1;
                  1868           ?LINE   287
0418 F081         1869           MOV     R8,R1
041A F092         1870           MOV     R9,R2
041C 0881         1871           ADD     R8,#01h
               R  1872           ?SYMB   'R8R9',$,100,10
                  1873   ; me_comn.c  288                        nSectionNum++;
                  1874           ?LINE   288
041E A8E0         1875           MOV     R14,[R0]
0420 08E1         1876           ADD     R14,#01h
0422 B8E0         1877           MOV     [R0],R14
                  1878   ; me_comn.c  289                        if (nSectionNum == index)
                  1879           ?LINE   289
0424 D4F01400     1880           MOV     R15,[R0+#014H]
0428 40EF         1881           CMP     R14,R15
042A 2D36         1882           JMPR    cc_EQ,_183
                  1883   ; me_comn.c  290                        {
                  1884   ; me_comn.c  291                                nSecLen = pSecondQuota-pFirstQuota-1;
                  1885   ; me_comn.c  292                                if (nLen < nSecLen +1)
                  1886   ; me_comn.c  293                                        return -1;
                  1887   ; me_comn.c  294                                if (nSecLen < 0)
                  1888   ; me_comn.c  295                                {
                  1889   ; me_comn.c  296                                        memset(pResult, 0, nLen);
                  1890   ; me_comn.c  297                                        return -1;
                  1891   ; me_comn.c  298                                }
                  1892   ; me_comn.c  299                                else
                  1893   ; me_comn.c  300                                {
                  1894   ; me_comn.c  301                                        memcpy(pResult, pFirstQuota+1, nSecLen)
                         ;
                  1895   ; me_comn.c  302                                        pResult[nSecLen] = 0;
                  1896   ; me_comn.c  303                                        return nSecLen;
                  1897   ; me_comn.c  304                                }
                  1898   ; me_comn.c  305                        }
                  1899   ; me_comn.c  306                        pFirstQuota = strchr(pBegin, '"');
                  1900           ?LINE   306
042C 88C0         1901           MOV     [-R0],R12
               R  1902           ?SYMB   '',$,96,16
042E 88D0         1903           MOV     [-R0],R13
               R  1904           ?SYMB   '',$,96,18
0430 F0C8         1905           MOV     R12,R8
               R  1906           ?SYMB   '',$,102,6
0432 F0D9         1907           MOV     R13,R9
0434 E6FE2200     1908           MOV     R14,#022h
0438 DA000000  R  1909           CALLS   SEG _strchr,_strchr
               R  1910           ?SYMB   '',$,102,7
               R  1911           ?SYMB   '',$,102,5
043C F064         1912           MOV     R6,R4
043E F075         1913           MOV     R7,R5
               R  1914           ?SYMB   'R6R7',$,100,7
0440 98D0         1915           MOV     R13,[R0+]
               R  1916           ?SYMB   '',$,96,16
0442 98C0         1917           MOV     R12,[R0+]
               R  1918           ?SYMB   '',$,96,14
               R  1919           ?SYMB   'R12R13',$,100,6
                  1920   ; me_comn.c  307                        if (!pFirstQuota)
                  1921           ?LINE   307
0444 F0E7         1922           MOV     R14,R7
0446 70E6         1923           OR      R14,R6
0448 2D1B         1924           JMPR    cc_Z,_182
                  1925   ; me_comn.c  308                                break;
                  1926   ; me_comn.c  309                        pSecondQuota = strchr(pFirstQuota+1, '"');
                  1927           ?LINE   309
044A F0C6         1928           MOV     R12,R6
               R  1929           ?SYMB   '',$,102,6
044C F0D7         1930           MOV     R13,R7
044E 08C1         1931           ADD     R12,#01h
0450 E6FE2200     1932           MOV     R14,#022h
0454 DA000000  R  1933           CALLS   SEG _strchr,_strchr
0458 F0C4         1934           MOV     R12,R4
045A F0D5         1935           MOV     R13,R5
               R  1936           ?SYMB   'R12R13',$,100,6
                  1937   ; me_comn.c  310                        if (!pSecondQuota)
                  1938           ?LINE   310
045C F0ED         1939           MOV     R14,R13
045E 70EC         1940           OR      R14,R12
0460 2D0F         1941           JMPR    cc_Z,_182
                  1942           ?LINE   274
0462              1943   _180:
0462 88D0         1944           MOV     [-R0],R13
               R  1945           ?SYMB   '',$,96,16
0464 88C0         1946           MOV     [-R0],R12
               R  1947           ?SYMB   '',$,96,18
0466 F0C8         1948           MOV     R12,R8
               R  1949           ?SYMB   '',$,102,6
0468 F0D9         1950           MOV     R13,R9
046A E6FE2C00     1951           MOV     R14,#02Ch
046E DA000000  R  1952           CALLS   SEG _strchr,_strchr
0472 F014         1953           MOV     R1,R4
0474 F025         1954           MOV     R2,R5
               R  1955           ?SYMB   'R1R2',$,100,5
0476 F0E2         1956           MOV     R14,R2
0478 98C0         1957           MOV     R12,[R0+]
               R  1958           ?SYMB   '',$,96,16
047A 98D0         1959           MOV     R13,[R0+]
               R  1960           ?SYMB   '',$,96,14
               R  1961           ?SYMB   'R12R13',$,100,6
047C 70E1         1962           OR      R14,R1
047E 3DBC         1963           JMPR    cc_NZ,_175
                  1964   ; me_comn.c  311                                break;
                  1965   ; me_comn.c  312                }
                  1966           ?LINE   312
0480              1967   _182:
               R  1968           ?SYMB   '',$,102,10
               R  1969           ?SYMB   '',$,102,5
                  1970   ; me_comn.c  313        
                  1971   ; me_comn.c  314                if (pFirstQuota && pSecondQuota && nSectionNum == index-1)
                  1972           ?LINE   314
0480 F087         1973           MOV     R8,R7
0482 7086         1974           OR      R8,R6
0484 2D33         1975           JMPR    cc_Z,_191
0486 F08D         1976           MOV     R8,R13
0488 708C         1977           OR      R8,R12
048A 2D30         1978           JMPR    cc_Z,_191
048C D4801400     1979           MOV     R8,[R0+#014H]
0490 2881         1980           SUB     R8,#01h
0492 A890         1981           MOV     R9,[R0]
0494 4089         1982           CMP     R8,R9
0496 3D2A         1983           JMPR    cc_NE,_191
                  1984   ; me_comn.c  315                {
                  1985   ; me_comn.c  316                        nSecLen = pSecondQuota-pFirstQuota-1;
                  1986           ?LINE   316
0498              1987   _183:
0498 20C6         1988           SUB     R12,R6
               R  1989           ?SYMB   '',$,102,6
049A 28C1         1990           SUB     R12,#01h
               R  1991           ?SYMB   'R12',$,100,3
                  1992   ; me_comn.c  317        
                  1993   ; me_comn.c  318                        if (nLen < nSecLen +1)
                  1994           ?LINE   318
049C F08C         1995           MOV     R8,R12
049E 0881         1996           ADD     R8,#01h
04A0 D4900E00     1997           MOV     R9,[R0+#0EH]
04A4 4089         1998           CMP     R8,R9
04A6 AD22         1999           JMPR    cc_SGT,_191
                  2000   ; me_comn.c  319                                return -1;
                  2001   ; me_comn.c  320        
                  2002   ; me_comn.c  321                        if (nSecLen < 0)
                  2003           ?LINE   321
04A8 48C0         2004           CMP     R12,#00h
04AA CD17         2005           JMPR    cc_SLT,_184
               R  2006           ?SYMB   '',$,102,2
                  2007   ; me_comn.c  322                        {
                  2008   ; me_comn.c  323                                memset(pResult, 0, nLen);
                  2009   ; me_comn.c  324                                return -1;
                  2010   ; me_comn.c  325                        }
                  2011   ; me_comn.c  326                        else
                  2012   ; me_comn.c  327                        {
                  2013   ; me_comn.c  328                                memcpy(pResult, pFirstQuota+1, nSecLen);
                  2014           ?LINE   328
04AC F08C         2015           MOV     R8,R12
04AE 8880         2016           MOV     [-R0],R8
               R  2017           ?SYMB   '',$,96,16
04B0 D4C00400     2018           MOV     R12,[R0+#04H]
               R  2019           ?SYMB   '',$,102,3
04B4 D4D00600     2020           MOV     R13,[R0+#06H]
04B8 F0E6         2021           MOV     R14,R6
04BA F0F7         2022           MOV     R15,R7
04BC 08E1         2023           ADD     R14,#01h
04BE DA000000  R  2024           CALLS   SEG _memcpy,_memcpy
               R  2025           ?SYMB   '',$,102,7
04C2 0802         2026           ADD     R0,#02h
               R  2027           ?SYMB   '',$,96,14
04C4 F0C8         2028           MOV     R12,R8
               R  2029           ?SYMB   'R12',$,100,3
                  2030   ; me_comn.c  329                                pResult[nSecLen] = 0;
                  2031           ?LINE   329
04C6 E10C         2032           MOVB    RL6,#00h
04C8 D4800200     2033           MOV     R8,[R0+#02H]
04CC D4900400     2034           MOV     R9,[R0+#04H]
04D0 008C         2035           ADD     R8,R12
04D2 DC49         2036           EXTP    R9,#01h
04D4 B9C8     1   2037           MOVB    [R8],RL6
                  2038   ; me_comn.c  330                                return nSecLen;
                  2039           ?LINE   330
04D6 F04C         2040           MOV     R4,R12
04D8 0D0B         2041           JMPR    cc_UC,_192
                  2042           ?LINE   323
04DA              2043   _184:
               R  2044           ?SYMB   '',$,102,3
               R  2045           ?SYMB   '0',$,101,2
04DA D4C00200     2046           MOV     R12,[R0+#02H]
04DE D4D00400     2047           MOV     R13,[R0+#04H]
04E2 E00E         2048           MOV     R14,#00h
04E4 D4F00E00     2049           MOV     R15,[R0+#0EH]
04E8 DA000000  R  2050           CALLS   SEG _memset,_memset
                  2051   ; me_comn.c  331                        }
                  2052   ; me_comn.c  332                }
                  2053           ?LINE   332
04EC              2054   _191:
                  2055   ; me_comn.c  333        
                  2056   ; me_comn.c  334                return -1;
                  2057           ?LINE   334
04EC E6F4FFFF     2058           MOV     R4,#0FFFFh
                  2059   ; me_comn.c  335        }
                  2060           ?LINE   335
04F0              2061   _192:
04F0 0806         2062           ADD     R0,#06h
               R  2063           ?SYMB   '',$,96,8
04F2 9860         2064           MOV     R6,[R0+]
               R  2065           ?SYMB   '',$,96,6
04F4 9870         2066           MOV     R7,[R0+]
               R  2067           ?SYMB   '',$,96,4
04F6 9880         2068           MOV     R8,[R0+]
               R  2069           ?SYMB   '',$,96,2
04F8 9890         2070           MOV     R9,[R0+]
               R  2071           ?SYMB   '',$,96,0
04FA DB00         2072           RETS
                  2073   _ME_GetStrSection       ENDP
               R  2074           ?SYMB   '',$,17,335
                  2075   ; me_comn.c  336        
                  2076   ; me_comn.c  337        /*********************************************************************\
                          
                  2077   ; me_comn.c  338        * Function         
                  2078   ; me_comn.c  339        * Purpose      
                  2079   ; me_comn.c  340        * Params           
                  2080   ; me_comn.c  341        * Return                   
                  2081   ; me_comn.c  342        * Remarks          
                  2082   ; me_comn.c  343        **********************************************************************/
                  2083   ; me_comn.c  344        int ME_CurCalls_Dec( char *Scr, PCALLS_INFO pCallInfo )
                  2084   ; me_comn.c  345        {
                  2085           ?LINE   345
                  2086           PUBLIC  _ME_CurCalls_Dec
               R  2087           ?SYMB   'ME_CurCalls_Dec',_ME_CurCalls_Dec,37,16
                  2088           ?SYMB   '',345,8,34
                  2089   _ME_CurCalls_Dec        PROC    FAR
                  2090           ?SYMB   '',03c0H,95,0
04FC 8890         2091           MOV     [-R0],R9
               R  2092           ?SYMB   '',$,96,2
04FE 8880         2093           MOV     [-R0],R8
               R  2094           ?SYMB   '',$,96,4
0500 8870         2095           MOV     [-R0],R7
               R  2096           ?SYMB   '',$,96,6
0502 8860         2097           MOV     [-R0],R6
               R  2098           ?SYMB   '',$,96,8
0504 88D0         2099           MOV     [-R0],R13
               R  2100           ?SYMB   '',$,96,10
0506 88C0         2101           MOV     [-R0],R12
               R  2102           ?SYMB   '',$,96,12
0508 88F0         2103           MOV     [-R0],R15
               R  2104           ?SYMB   '',$,96,14
050A 88E0         2105           MOV     [-R0],R14
               R  2106           ?SYMB   '',$,96,16
050C 26F06800     2107           SUB     R0,#068h
               R  2108           ?SYMB   '',$,96,120
                  2109   ; Locals:
                  2110   ;     pTemp = offset 0
                  2111   ;     TempText = offset 4
                  2112   ; 
                  2113   ; Statics:
                  2114   ; 
                  2115   ; CSEs:
                  2116   ;     pBegin = R8R9
                  2117   ;     len = R6
                  2118   ;     pEnd = R7R1
                  2119   ;     pCallInfo = offset 104
                  2120   ;     Scr = offset 108
                  2121   ;     pBegin + 1 = R12R13
                  2122   ;     pBegin + 1 = R12R13
                  2123   ;     pBegin + 1 = R12R13
                  2124   ;     pSpe = R12R13
                  2125   ; 
                  2126           ?SYMB   'Scr',6,99,270
                  2127           ?SYMB   'pCallInfo',2,99,543
                  2128           ?SYMB   'pBegin',5,98,270
                  2129           ?SYMB   'pEnd',4,98,270
                  2130           ?SYMB   'pSpe',1,98,270
                  2131           ?SYMB   'len',3,98,16
                  2132           ?SYMB   '',023b0002H,5,570
                  2133           ?SYMB   '',16,47,571
                  2134           ?SYMB   '',0,30,0
                  2135           ?SYMB   '',99,49,0
                  2136           ?SYMB   'TempText',8,98,570
               R  2137           ?SYMB   '-74',$,101,8
                  2138           ?SYMB   '',023d0002H,5,572
                  2139           ?SYMB   '',16,47,573
                  2140           ?SYMB   '',0,30,0
                  2141           ?SYMB   '',3,49,0
                  2142           ?SYMB   'pTemp',7,98,572
               R  2143           ?SYMB   '-78',$,101,7
               R  2144           ?SYMB   '-c',$,101,6
               R  2145           ?SYMB   '-10',$,101,2
                  2146   ; me_comn.c  346                //+CLCC: 1,0,0,0,0,"01062629970",129,"01062629970+507"
                  2147   ; me_comn.c  347                //+CLCC: 2,1,5,0,0,"13641190277",161
                  2148   ; me_comn.c  348        
                  2149   ; me_comn.c  349                char    *pBegin, *pEnd, *pSpe;
                  2150   ; me_comn.c  350                int             len;
                  2151   ; me_comn.c  351                char    TempText[100];
                  2152   ; me_comn.c  352                char    pTemp[4];
                  2153   ; me_comn.c  353        
                  2154   ; me_comn.c  354                if (strstr(Scr, "+CLCC: ") != Scr)
                  2155           ?LINE   354
0510 E6FE0000  R  2156           MOV     R14,#POF _193
0514 E6FF0000  R  2157           MOV     R15,#PAG _193
0518 DA000000  R  2158           CALLS   SEG _strstr,_strstr
051C D4806C00     2159           MOV     R8,[R0+#06CH]
0520 D4906E00     2160           MOV     R9,[R0+#06EH]
0524 2048         2161           SUB     R4,R8
0526 3059         2162           SUBC    R5,R9
0528 2D04         2163           JMPR    cc_EQ,_212
               R  2164           ?SYMB   '',$,102,6
               R  2165           ?SYMB   '',$,102,2
                  2166   ; me_comn.c  355                        return -1;
                  2167           ?LINE   355
052A E6F4FFFF     2168           MOV     R4,#0FFFFh
052E EA007207  R  2169           JMPA    cc_UC,_219
0532              2170   _212:
               R  2171           ?SYMB   '-c',$,101,6
               R  2172           ?SYMB   '-10',$,101,2
                  2173   ; me_comn.c  356        
                  2174   ; me_comn.c  357                pBegin  = Scr + strlen( "+CLCC: ");
                  2175           ?LINE   357
0532 E6FC0000  R  2176           MOV     R12,#POF _193
0536 E6FD0000  R  2177           MOV     R13,#PAG _193
053A DA000000  R  2178           CALLS   SEG _strlen,_strlen
053E D4806C00     2179           MOV     R8,[R0+#06CH]
0542 D4906E00     2180           MOV     R9,[R0+#06EH]
0546 0084         2181           ADD     R8,R4
               R  2182           ?SYMB   'R8R9',$,100,5
                  2183   ; me_comn.c  358                pEnd    = strstr( pBegin, "," );
                  2184           ?LINE   358
0548 F0C8         2185           MOV     R12,R8
054A F0D9         2186           MOV     R13,R9
054C E6FE0000  R  2187           MOV     R14,#POF _194
0550 E6FF0000  R  2188           MOV     R15,#PAG _194
0554 DA000000  R  2189           CALLS   SEG _strstr,_strstr
0558 F074         2190           MOV     R7,R4
055A F015         2191           MOV     R1,R5
               R  2192           ?SYMB   'R7R1',$,100,4
                  2193   ; me_comn.c  359                len = pEnd - pBegin;
                  2194           ?LINE   359
055C 2078         2195           SUB     R7,R8
               R  2196           ?SYMB   '',$,102,4
055E F067         2197           MOV     R6,R7
               R  2198           ?SYMB   'R6',$,100,3
                  2199   ; me_comn.c  360        
                  2200   ; me_comn.c  361                memcpy( pTemp, pBegin, len );
                  2201           ?LINE   361
0560 8860         2202           MOV     [-R0],R6
               R  2203           ?SYMB   '',$,96,122
0562 E02C         2204           MOV     R12,#02h
0564 00C0         2205           ADD     R12,R0
0566 66FCFF3F     2206           AND     R12,#03FFFh
056A F2FD02FE     2207           MOV     R13,DPP1
056E F0E8         2208           MOV     R14,R8
0570 F0F9         2209           MOV     R15,R9
0572 DA000000  R  2210           CALLS   SEG _memcpy,_memcpy
               R  2211           ?SYMB   '',$,102,5
0576 0802         2212           ADD     R0,#02h
               R  2213           ?SYMB   '',$,96,120
                  2214   ; me_comn.c  362                pTemp[len] = 0;
                  2215           ?LINE   362
0578 E10E         2216           MOVB    RL7,#00h
057A 0060         2217           ADD     R6,R0
               R  2218           ?SYMB   '',$,102,3
057C B9E6         2219           MOVB    [R6],RL7
                  2220   ; me_comn.c  363                pCallInfo->index = atoi(pTemp);
                  2221           ?LINE   363
057E F0C0         2222           MOV     R12,R0
0580 66FCFF3F     2223           AND     R12,#03FFFh
0584 F2FD02FE     2224           MOV     R13,DPP1
0588 DA000000  R  2225           CALLS   SEG _atoi,_atoi
058C D4806800     2226           MOV     R8,[R0+#068H]
0590 D4906A00     2227           MOV     R9,[R0+#06AH]
0594 DC49         2228           EXTP    R9,#01h
0596 B848     1   2229           MOV     [R8],R4
                  2230   ; me_comn.c  364        
                  2231   ; me_comn.c  365                pBegin  = strstr( Scr, "," );           // dir
                  2232           ?LINE   365
0598 D4C06C00     2233           MOV     R12,[R0+#06CH]
059C D4D06E00     2234           MOV     R13,[R0+#06EH]
05A0 E6FE0000  R  2235           MOV     R14,#POF _194
05A4 E6FF0000  R  2236           MOV     R15,#PAG _194
05A8 DA000000  R  2237           CALLS   SEG _strstr,_strstr
05AC F084         2238           MOV     R8,R4
05AE F095         2239           MOV     R9,R5
               R  2240           ?SYMB   'R8R9',$,100,5
                  2241   ; me_comn.c  366                pCallInfo->Dir = (int)(*(pBegin+1));
                  2242           ?LINE   366
05B0 F0C8         2243           MOV     R12,R8
05B2 F0D9         2244           MOV     R13,R9
05B4 08C1         2245           ADD     R12,#01h
05B6 DC4D         2246           EXTP    R13,#01h
05B8 A9CC     1   2247           MOVB    RL6,[R12]
05BA D0C8         2248           MOVBS   R8,RL6
               R  2249           ?SYMB   '',$,102,5
05BC D4906800     2250           MOV     R9,[R0+#068H]
05C0 D4606A00     2251           MOV     R6,[R0+#06AH]
05C4 DC46         2252           EXTP    R6,#01h
05C6 C4890600 1   2253           MOV     [R9+#06H],R8
                  2254   ; me_comn.c  367        
                  2255   ; me_comn.c  368                pBegin  = strstr( pBegin+1, "," );      // stat
                  2256           ?LINE   368
05CA E6FE0000  R  2257           MOV     R14,#POF _194
05CE E6FF0000  R  2258           MOV     R15,#PAG _194
05D2 DA000000  R  2259           CALLS   SEG _strstr,_strstr
05D6 F084         2260           MOV     R8,R4
05D8 F095         2261           MOV     R9,R5
               R  2262           ?SYMB   'R8R9',$,100,5
                  2263   ; me_comn.c  369                pCallInfo->Stat = (int)(*(pBegin+1));
                  2264           ?LINE   369
05DA F0C8         2265           MOV     R12,R8
05DC F0D9         2266           MOV     R13,R9
05DE 08C1         2267           ADD     R12,#01h
05E0 DC4D         2268           EXTP    R13,#01h
05E2 A9CC     1   2269           MOVB    RL6,[R12]
05E4 D0C8         2270           MOVBS   R8,RL6
               R  2271           ?SYMB   '',$,102,5
05E6 D4906800     2272           MOV     R9,[R0+#068H]
05EA D4606A00     2273           MOV     R6,[R0+#06AH]
05EE DC46         2274           EXTP    R6,#01h
05F0 C4890200 1   2275           MOV     [R9+#02H],R8
                  2276   ; me_comn.c  370        
                  2277   ; me_comn.c  371                pBegin  = strstr( pBegin+1, "," );      // mode
                  2278           ?LINE   371
05F4 E6FE0000  R  2279           MOV     R14,#POF _194
05F8 E6FF0000  R  2280           MOV     R15,#PAG _194
05FC DA000000  R  2281           CALLS   SEG _strstr,_strstr
0600 F084         2282           MOV     R8,R4
0602 F095         2283           MOV     R9,R5
               R  2284           ?SYMB   'R8R9',$,100,5
                  2285   ; me_comn.c  372                pCallInfo->Mode = (int)(*(pBegin+1));
                  2286           ?LINE   372
0604 F0C8         2287           MOV     R12,R8
0606 F0D9         2288           MOV     R13,R9
0608 08C1         2289           ADD     R12,#01h
060A DC4D         2290           EXTP    R13,#01h
060C A9CC     1   2291           MOVB    RL6,[R12]
060E D0C8         2292           MOVBS   R8,RL6
               R  2293           ?SYMB   '',$,102,5
0610 D4906800     2294           MOV     R9,[R0+#068H]
0614 D4606A00     2295           MOV     R6,[R0+#06AH]
0618 DC46         2296           EXTP    R6,#01h
061A C4890400 1   2297           MOV     [R9+#04H],R8
                  2298   ; me_comn.c  373        
                  2299   ; me_comn.c  374                pBegin  = strstr( pBegin+1, "," );      // mpty
                  2300           ?LINE   374
061E E6FE0000  R  2301           MOV     R14,#POF _194
0622 E6FF0000  R  2302           MOV     R15,#PAG _194
0626 DA000000  R  2303           CALLS   SEG _strstr,_strstr
062A F084         2304           MOV     R8,R4
062C F095         2305           MOV     R9,R5
               R  2306           ?SYMB   'R8R9',$,100,5
                  2307   ; me_comn.c  375                pCallInfo->Mpty = (int)(*(pBegin+1));
                  2308           ?LINE   375
062E DC49         2309           EXTP    R9,#01h
0630 F4C80100 1   2310           MOVB    RL6,[R8+#01H]
0634 D0C6         2311           MOVBS   R6,RL6
0636 D4706800     2312           MOV     R7,[R0+#068H]
063A D4C06A00     2313           MOV     R12,[R0+#06AH]
063E DC4C         2314           EXTP    R12,#01h
0640 C4670800 1   2315           MOV     [R7+#08H],R6
                  2316   ; me_comn.c  376        
                  2317   ; me_comn.c  377                pBegin  = strstr( pBegin, "\"" );       // "telephone_number"
                  2318           ?LINE   377
0644 F0C8         2319           MOV     R12,R8
0646 F0D9         2320           MOV     R13,R9
0648 E6FE0000  R  2321           MOV     R14,#POF _195
064C E6FF0000  R  2322           MOV     R15,#PAG _195
0650 DA000000  R  2323           CALLS   SEG _strstr,_strstr
               R  2324           ?SYMB   '',$,102,5
0654 F084         2325           MOV     R8,R4
0656 F095         2326           MOV     R9,R5
               R  2327           ?SYMB   'R8R9',$,100,5
                  2328   ; me_comn.c  378                pEnd    = strstr( pBegin+1, "\"" );
                  2329           ?LINE   378
0658 F0C8         2330           MOV     R12,R8
065A F0D9         2331           MOV     R13,R9
065C 08C1         2332           ADD     R12,#01h
065E E6FE0000  R  2333           MOV     R14,#POF _195
0662 E6FF0000  R  2334           MOV     R15,#PAG _195
0666 DA000000  R  2335           CALLS   SEG _strstr,_strstr
066A F074         2336           MOV     R7,R4
066C F015         2337           MOV     R1,R5
               R  2338           ?SYMB   'R7R1',$,100,4
                  2339   ; me_comn.c  379                len = pEnd - pBegin;
                  2340           ?LINE   379
066E F067         2341           MOV     R6,R7
0670 2068         2342           SUB     R6,R8
               R  2343           ?SYMB   'R6',$,100,3
                  2344   ; me_comn.c  380                memcpy( pCallInfo->PhoneNum, pBegin+1, len-1 );
                  2345           ?LINE   380
0672 8810         2346           MOV     [-R0],R1
               R  2347           ?SYMB   '',$,96,122
0674 F0C6         2348           MOV     R12,R6
0676 28C1         2349           SUB     R12,#01h
0678 88C0         2350           MOV     [-R0],R12
               R  2351           ?SYMB   '',$,96,124
067A D4C06C00     2352           MOV     R12,[R0+#06CH]
067E D4D06E00     2353           MOV     R13,[R0+#06EH]
0682 06FC0A00     2354           ADD     R12,#0Ah
0686 F0E8         2355           MOV     R14,R8
0688 F0F9         2356           MOV     R15,R9
068A 08E1         2357           ADD     R14,#01h
068C DA000000  R  2358           CALLS   SEG _memcpy,_memcpy
               R  2359           ?SYMB   '',$,102,5
               R  2360           ?SYMB   '',$,102,4
0690 0802         2361           ADD     R0,#02h
               R  2362           ?SYMB   '',$,96,122
0692 9810         2363           MOV     R1,[R0+]
               R  2364           ?SYMB   '',$,96,120
               R  2365           ?SYMB   'R7R1',$,100,4
                  2366   ; me_comn.c  381                pCallInfo->PhoneNum[len-1]=0;
                  2367           ?LINE   381
0694 E104         2368           MOVB    RL2,#00h
0696 D4806800     2369           MOV     R8,[R0+#068H]
069A D4906A00     2370           MOV     R9,[R0+#06AH]
069E 06F80900     2371           ADD     R8,#09h
06A2 0086         2372           ADD     R8,R6
06A4 DC49         2373           EXTP    R9,#01h
06A6 B948     1   2374           MOVB    [R8],RL2
                  2375   ; me_comn.c  382        
                  2376   ; me_comn.c  383                pBegin = strstr( pEnd+1, "\"" );
                  2377           ?LINE   383
06A8 F061         2378           MOV     R6,R1
               R  2379           ?SYMB   '',$,102,3
06AA F0D6         2380           MOV     R13,R6
06AC F0C7         2381           MOV     R12,R7
06AE 08C1         2382           ADD     R12,#01h
06B0 E6FE0000  R  2383           MOV     R14,#POF _195
06B4 E6FF0000  R  2384           MOV     R15,#PAG _195
06B8 DA000000  R  2385           CALLS   SEG _strstr,_strstr
               R  2386           ?SYMB   '',$,102,4
06BC F084         2387           MOV     R8,R4
06BE F095         2388           MOV     R9,R5
               R  2389           ?SYMB   'R8R9',$,100,5
06C0 F016         2390           MOV     R1,R6
               R  2391           ?SYMB   'R7R1',$,100,4
                  2392   ; me_comn.c  384                if( pBegin == NULL )
                  2393           ?LINE   384
06C2 F069         2394           MOV     R6,R9
06C4 7068         2395           OR      R6,R8
06C6 3D0E         2396           JMPR    cc_NZ,_213
                  2397   ; me_comn.c  385                {
                  2398   ; me_comn.c  386                        strcpy( pCallInfo->Text, "" );
                  2399           ?LINE   386
06C8 D4C06800     2400           MOV     R12,[R0+#068H]
06CC D4D06A00     2401           MOV     R13,[R0+#06AH]
06D0 06FC2200     2402           ADD     R12,#022h
06D4 E6FE0000  R  2403           MOV     R14,#POF _196
06D8 E6FF0000  R  2404           MOV     R15,#PAG _196
06DC DA000000  R  2405           CALLS   SEG _strcpy,_strcpy
               R  2406           ?SYMB   '',$,102,5
               R  2407           ?SYMB   '',$,102,4
                  2408   ; me_comn.c  387                        return 0;
                  2409           ?LINE   387
06E0 EA007007  R  2410           JMPA    cc_UC,_218
                  2411   ; me_comn.c  388                }
                  2412   ; me_comn.c  389        
                  2413   ; me_comn.c  390                while( NULL != (pSpe =strstr( pEnd+1, "\"" )) )
                  2414           ?LINE   390
06E4              2415   _213:
               R  2416           ?SYMB   'R8R9',$,100,5
               R  2417           ?SYMB   'R7R1',$,100,4
06E4 0D02         2418           JMPR    cc_UC,_215
06E6              2419   _214:
               R  2420           ?SYMB   '',$,102,4
               R  2421           ?SYMB   'R12R13',$,100,1
                  2422   ; me_comn.c  391                        pEnd = pSpe;
                  2423           ?LINE   391
06E6 F07C         2424           MOV     R7,R12
06E8 F01D         2425           MOV     R1,R13
               R  2426           ?SYMB   'R7R1',$,100,4
                  2427           ?LINE   390
06EA              2428   _215:
               R  2429           ?SYMB   '',$,102,1
06EA F061         2430           MOV     R6,R1
06EC F0D6         2431           MOV     R13,R6
06EE F0C7         2432           MOV     R12,R7
06F0 08C1         2433           ADD     R12,#01h
06F2 E6FE0000  R  2434           MOV     R14,#POF _195
06F6 E6FF0000  R  2435           MOV     R15,#PAG _195
06FA DA000000  R  2436           CALLS   SEG _strstr,_strstr
               R  2437           ?SYMB   '',$,102,4
06FE F0C4         2438           MOV     R12,R4
0700 F0D5         2439           MOV     R13,R5
               R  2440           ?SYMB   'R12R13',$,100,1
0702 F0ED         2441           MOV     R14,R13
0704 F016         2442           MOV     R1,R6
               R  2443           ?SYMB   'R7R1',$,100,4
0706 70EC         2444           OR      R14,R12
0708 3DEE         2445           JMPR    cc_NZ,_214
                  2446   ; me_comn.c  392        
                  2447   ; me_comn.c  393                if (pEnd != pBegin)
                  2448           ?LINE   393
070A F067         2449           MOV     R6,R7
070C F0C1         2450           MOV     R12,R1
               R  2451           ?SYMB   '',$,102,1
070E 2068         2452           SUB     R6,R8
0710 30C9         2453           SUBC    R12,R9
0712 2D03         2454           JMPR    cc_EQ,_216
                  2455   ; me_comn.c  394                        len = pEnd - pBegin;
                  2456           ?LINE   394
0714 2078         2457           SUB     R7,R8
               R  2458           ?SYMB   '',$,102,4
0716 F067         2459           MOV     R6,R7
               R  2460           ?SYMB   'R6',$,100,3
0718 0D05         2461           JMPR    cc_UC,_217
071A              2462   _216:
               R  2463           ?SYMB   '',$,102,3
                  2464   ; me_comn.c  395                else
                  2465   ; me_comn.c  396                        len = strlen(pBegin);
                  2466           ?LINE   396
071A F0C8         2467           MOV     R12,R8
071C F0D9         2468           MOV     R13,R9
071E DA000000  R  2469           CALLS   SEG _strlen,_strlen
0722 F064         2470           MOV     R6,R4
               R  2471           ?SYMB   'R6',$,100,3
0724              2472   _217:
                  2473   ; me_comn.c  397                memcpy( TempText, pBegin+1, len-1 );
                  2474           ?LINE   397
0724 F076         2475           MOV     R7,R6
0726 2871         2476           SUB     R7,#01h
0728 8870         2477           MOV     [-R0],R7
               R  2478           ?SYMB   '',$,96,122
072A E06C         2479           MOV     R12,#06h
072C 00C0         2480           ADD     R12,R0
072E 66FCFF3F     2481           AND     R12,#03FFFh
0732 F2FD02FE     2482           MOV     R13,DPP1
0736 F0E8         2483           MOV     R14,R8
0738 F0F9         2484           MOV     R15,R9
073A 08E1         2485           ADD     R14,#01h
073C DA000000  R  2486           CALLS   SEG _memcpy,_memcpy
               R  2487           ?SYMB   '',$,102,5
0740 0802         2488           ADD     R0,#02h
               R  2489           ?SYMB   '',$,96,120
                  2490   ; me_comn.c  398                TempText[len-1] = 0;
                  2491           ?LINE   398
0742 E10E         2492           MOVB    RL7,#00h
0744 0060         2493           ADD     R6,R0
               R  2494           ?SYMB   '',$,102,3
0746 E4E60300     2495           MOVB    [R6+#03H],RL7
                  2496   ; me_comn.c  399        
                  2497   ; me_comn.c  400                PhoneText_Decode( pCallInfo->Text, ME_PHONETXT_LEN, TempText );
                  2498           ?LINE   400
074A E048         2499           MOV     R8,#04h
074C 0080         2500           ADD     R8,R0
074E 66F8FF3F     2501           AND     R8,#03FFFh
0752 F2F902FE     2502           MOV     R9,DPP1
0756 8890         2503           MOV     [-R0],R9
               R  2504           ?SYMB   '',$,96,122
0758 8880         2505           MOV     [-R0],R8
               R  2506           ?SYMB   '',$,96,124
075A D4C06C00     2507           MOV     R12,[R0+#06CH]
075E D4D06E00     2508           MOV     R13,[R0+#06EH]
0762 06FC2200     2509           ADD     R12,#022h
0766 E6FE1000     2510           MOV     R14,#010h
076A DA00F60A  R  2511           CALLS   SEG _PhoneText_Decode,_PhoneText_Decode
076E 0804         2512           ADD     R0,#04h
               R  2513           ?SYMB   '',$,96,120
                  2514   ; me_comn.c  401        
                  2515   ; me_comn.c  402                return 0;
                  2516           ?LINE   402
0770              2517   _218:
0770 E004         2518           MOV     R4,#00h
                  2519   ; me_comn.c  403        }
                  2520           ?LINE   403
0772              2521   _219:
               R  2522           ?SYMB   '',$,102,7
               R  2523           ?SYMB   '',$,102,8
0772 06F07000     2524           ADD     R0,#070h
               R  2525           ?SYMB   '',$,96,8
0776 9860         2526           MOV     R6,[R0+]
               R  2527           ?SYMB   '',$,96,6
0778 9870         2528           MOV     R7,[R0+]
               R  2529           ?SYMB   '',$,96,4
077A 9880         2530           MOV     R8,[R0+]
               R  2531           ?SYMB   '',$,96,2
077C 9890         2532           MOV     R9,[R0+]
               R  2533           ?SYMB   '',$,96,0
077E DB00         2534           RETS
                  2535   _ME_CurCalls_Dec        ENDP
               R  2536           ?SYMB   '',$,17,403
                  2537   ; me_comn.c  404        
                  2538   ; me_comn.c  405        
                  2539   ; me_comn.c  406        /*********************************************************************\
                          
                  2540   ; me_comn.c  407        * Function         
                  2541   ; me_comn.c  408        * Purpose      
                  2542   ; me_comn.c  409        * Params           
                  2543   ; me_comn.c  410        * Return                   
                  2544   ; me_comn.c  411        * Remarks          
                  2545   ; me_comn.c  412        **********************************************************************/
                  2546   ; me_comn.c  413        int ME_PhoneBook_Dec( char *Scr, PPHONEBOOK pDesPB )
                  2547   ; me_comn.c  414        {
                  2548           ?LINE   414
                  2549           PUBLIC  _ME_PhoneBook_Dec
               R  2550           ?SYMB   'ME_PhoneBook_Dec',_ME_PhoneBook_Dec,37,16
                  2551           ?SYMB   '',414,8,34
                  2552   _ME_PhoneBook_Dec       PROC    FAR
                  2553           ?SYMB   '',03c0H,95,0
0780 8890         2554           MOV     [-R0],R9
               R  2555           ?SYMB   '',$,96,2
0782 8880         2556           MOV     [-R0],R8
               R  2557           ?SYMB   '',$,96,4
0784 8870         2558           MOV     [-R0],R7
               R  2559           ?SYMB   '',$,96,6
0786 8860         2560           MOV     [-R0],R6
               R  2561           ?SYMB   '',$,96,8
0788 88F0         2562           MOV     [-R0],R15
               R  2563           ?SYMB   '',$,96,10
078A 88E0         2564           MOV     [-R0],R14
               R  2565           ?SYMB   '',$,96,12
078C 26F02C01     2566           SUB     R0,#012Ch
               R  2567           ?SYMB   '',$,96,312
0790 F08C         2568           MOV     R8,R12
0792 F09D         2569           MOV     R9,R13
                  2570   ; Locals:
                  2571   ;     TempText = offset 0
                  2572   ;     WideText = offset 100
                  2573   ;     PDUText = offset 200
                  2574   ; 
                  2575   ; Statics:
                  2576   ; 
                  2577   ; CSEs:
                  2578   ;     pBegin = R8R9
                  2579   ;     pEnd = R6R7
                  2580   ;     Scr = R8R9
                  2581   ;     len = R12
                  2582   ;     pDesPB = offset 300
                  2583   ;     pSpe = R12R13
                  2584   ; 
                  2585           ?SYMB   'Scr',6,99,270
                  2586           ?SYMB   'pDesPB',3,99,533
                  2587           ?SYMB   'pBegin',5,98,270
                  2588           ?SYMB   'pEnd',4,98,270
                  2589           ?SYMB   'pSpe',1,98,270
                  2590           ?SYMB   'len',2,98,16
                  2591           ?SYMB   'TempText',9,98,570
               R  2592           ?SYMB   '-138',$,101,9
                  2593           ?SYMB   'PDUText',8,98,570
               R  2594           ?SYMB   '-70',$,101,8
                  2595           ?SYMB   'WideText',7,98,570
               R  2596           ?SYMB   '-d4',$,101,7
               R  2597           ?SYMB   'R8R9',$,100,6
               R  2598           ?SYMB   '-c',$,101,3
                  2599   ; me_comn.c  415                //+CPBR: 4,"+32498",145,"dsafa"
                  2600   ; me_comn.c  416                char    *pBegin, *pEnd, *pSpe;
                  2601   ; me_comn.c  417                int             len;
                  2602   ; me_comn.c  418                char    TempText[100];
                  2603   ; me_comn.c  419                char    PDUText[100];
                  2604   ; me_comn.c  420                char    WideText[100];
                  2605   ; me_comn.c  421        
                  2606   ; me_comn.c  422                if (strstr(Scr, "+CPBR: ") != Scr && strstr(Scr, "+CPBP: ") != 
                         Scr
                  2607   ; me_comn.c  423                        && strstr(Scr, "+CPBF: ") != Scr && strstr(Scr, "+CPBN:
                          ") != Scr)
                  2608           ?LINE   423
0794 E6FE0000  R  2609           MOV     R14,#POF _220
0798 E6FF0000  R  2610           MOV     R15,#PAG _220
079C DA000000  R  2611           CALLS   SEG _strstr,_strstr
07A0 2048         2612           SUB     R4,R8
07A2 3059         2613           SUBC    R5,R9
07A4 2D25         2614           JMPR    cc_EQ,_236
07A6 F0C8         2615           MOV     R12,R8
07A8 F0D9         2616           MOV     R13,R9
07AA E6FE0000  R  2617           MOV     R14,#POF _221
07AE E6FF0000  R  2618           MOV     R15,#PAG _221
07B2 DA000000  R  2619           CALLS   SEG _strstr,_strstr
07B6 2048         2620           SUB     R4,R8
07B8 3059         2621           SUBC    R5,R9
07BA 2D1A         2622           JMPR    cc_EQ,_236
07BC F0C8         2623           MOV     R12,R8
07BE F0D9         2624           MOV     R13,R9
07C0 E6FE0000  R  2625           MOV     R14,#POF _222
07C4 E6FF0000  R  2626           MOV     R15,#PAG _222
07C8 DA000000  R  2627           CALLS   SEG _strstr,_strstr
07CC 2048         2628           SUB     R4,R8
07CE 3059         2629           SUBC    R5,R9
07D0 2D0F         2630           JMPR    cc_EQ,_236
07D2 F0C8         2631           MOV     R12,R8
07D4 F0D9         2632           MOV     R13,R9
07D6 E6FE0000  R  2633           MOV     R14,#POF _223
07DA E6FF0000  R  2634           MOV     R15,#PAG _223
07DE DA000000  R  2635           CALLS   SEG _strstr,_strstr
07E2 2048         2636           SUB     R4,R8
07E4 3059         2637           SUBC    R5,R9
07E6 2D04         2638           JMPR    cc_EQ,_236
               R  2639           ?SYMB   '',$,102,3
                  2640   ; me_comn.c  424                        return -1;
                  2641           ?LINE   424
07E8 E6F4FFFF     2642           MOV     R4,#0FFFFh
07EC EA007609  R  2643           JMPA    cc_UC,_241
07F0              2644   _236:
               R  2645           ?SYMB   '',$,102,6
               R  2646           ?SYMB   'R8R9',$,100,6
               R  2647           ?SYMB   '-c',$,101,3
                  2648   ; me_comn.c  425        
                  2649   ; me_comn.c  426                memset(TempText, 0, 100);
                  2650           ?LINE   426
07F0 F0C0         2651           MOV     R12,R0
07F2 66FCFF3F     2652           AND     R12,#03FFFh
07F6 F2FD02FE     2653           MOV     R13,DPP1
07FA E00E         2654           MOV     R14,#00h
07FC E6FF6400     2655           MOV     R15,#064h
0800 DA000000  R  2656           CALLS   SEG _memset,_memset
                  2657   ; me_comn.c  427                memset(PDUText, 0, 100);
                  2658           ?LINE   427
0804 E6FCC800     2659           MOV     R12,#0C8h
0808 00C0         2660           ADD     R12,R0
080A 66FCFF3F     2661           AND     R12,#03FFFh
080E F2FD02FE     2662           MOV     R13,DPP1
0812 E00E         2663           MOV     R14,#00h
0814 E6FF6400     2664           MOV     R15,#064h
0818 DA000000  R  2665           CALLS   SEG _memset,_memset
                  2666   ; me_comn.c  428                memset(WideText, 0, 100);
                  2667           ?LINE   428
081C E6FC6400     2668           MOV     R12,#064h
0820 00C0         2669           ADD     R12,R0
0822 66FCFF3F     2670           AND     R12,#03FFFh
0826 F2FD02FE     2671           MOV     R13,DPP1
082A E00E         2672           MOV     R14,#00h
082C E6FF6400     2673           MOV     R15,#064h
0830 DA000000  R  2674           CALLS   SEG _memset,_memset
                  2675   ; me_comn.c  429        
                  2676   ; me_comn.c  430                pBegin  = Scr + strlen( "+CPBR: ");
                  2677           ?LINE   430
0834 E6FC0000  R  2678           MOV     R12,#POF _220
0838 E6FD0000  R  2679           MOV     R13,#PAG _220
083C DA000000  R  2680           CALLS   SEG _strlen,_strlen
0840 0084         2681           ADD     R8,R4
               R  2682           ?SYMB   '',$,102,6
0842 F068         2683           MOV     R6,R8
0844 F079         2684           MOV     R7,R9
               R  2685           ?SYMB   'R8R9',$,100,5
                  2686   ; me_comn.c  431                pEnd    = strstr( pBegin, "," );
                  2687           ?LINE   431
0846 F0C8         2688           MOV     R12,R8
0848 F0D9         2689           MOV     R13,R9
084A E6FE0000  R  2690           MOV     R14,#POF _194
084E E6FF0000  R  2691           MOV     R15,#PAG _194
0852 DA000000  R  2692           CALLS   SEG _strstr,_strstr
0856 F064         2693           MOV     R6,R4
0858 F075         2694           MOV     R7,R5
               R  2695           ?SYMB   'R6R7',$,100,4
                  2696   ; me_comn.c  432                len = pEnd - pBegin;
                  2697   ; me_comn.c  433        
                  2698   ; me_comn.c  434                *pEnd = '\0';
                  2699           ?LINE   434
085A E102         2700           MOVB    RL1,#00h
085C DC47         2701           EXTP    R7,#01h
085E B926     1   2702           MOVB    [R6],RL1
                  2703   ; me_comn.c  435        
                  2704   ; me_comn.c  436                pDesPB->Index = atoi( pBegin );
                  2705           ?LINE   436
0860 F0C8         2706           MOV     R12,R8
0862 F0D9         2707           MOV     R13,R9
0864 DA000000  R  2708           CALLS   SEG _atoi,_atoi
               R  2709           ?SYMB   '',$,102,5
0868 D4802C01     2710           MOV     R8,[R0+#012CH]
086C D4902E01     2711           MOV     R9,[R0+#012EH]
0870 DC49         2712           EXTP    R9,#01h
0872 B848     1   2713           MOV     [R8],R4
                  2714   ; me_comn.c  437        
                  2715   ; me_comn.c  438                pBegin  = strstr( pEnd+1, "\"" );
                  2716           ?LINE   438
0874 F0C6         2717           MOV     R12,R6
0876 F0D7         2718           MOV     R13,R7
0878 08C1         2719           ADD     R12,#01h
087A E6FE0000  R  2720           MOV     R14,#POF _195
087E E6FF0000  R  2721           MOV     R15,#PAG _195
0882 DA000000  R  2722           CALLS   SEG _strstr,_strstr
               R  2723           ?SYMB   '',$,102,4
0886 F084         2724           MOV     R8,R4
0888 F095         2725           MOV     R9,R5
               R  2726           ?SYMB   'R8R9',$,100,5
                  2727   ; me_comn.c  439                pEnd    = strstr( pBegin+1, "\"" );
                  2728           ?LINE   439
088A F0C8         2729           MOV     R12,R8
088C F0D9         2730           MOV     R13,R9
088E 08C1         2731           ADD     R12,#01h
0890 E6FE0000  R  2732           MOV     R14,#POF _195
0894 E6FF0000  R  2733           MOV     R15,#PAG _195
0898 DA000000  R  2734           CALLS   SEG _strstr,_strstr
089C F064         2735           MOV     R6,R4
089E F075         2736           MOV     R7,R5
               R  2737           ?SYMB   'R6R7',$,100,4
                  2738   ; me_comn.c  440                len = pEnd - pBegin;
                  2739           ?LINE   440
08A0 F0C6         2740           MOV     R12,R6
08A2 20C8         2741           SUB     R12,R8
               R  2742           ?SYMB   'R12',$,100,2
                  2743   ; me_comn.c  441                memcpy( pDesPB->PhoneNum, pBegin+1, len-1 );
                  2744           ?LINE   441
08A4 88C0         2745           MOV     [-R0],R12
               R  2746           ?SYMB   '',$,96,314
08A6 28C1         2747           SUB     R12,#01h
               R  2748           ?SYMB   '',$,102,2
08A8 88C0         2749           MOV     [-R0],R12
               R  2750           ?SYMB   '',$,96,316
08AA D4C03001     2751           MOV     R12,[R0+#0130H]
08AE D4D03201     2752           MOV     R13,[R0+#0132H]
08B2 08C2         2753           ADD     R12,#02h
08B4 F0E8         2754           MOV     R14,R8
08B6 F0F9         2755           MOV     R15,R9
08B8 08E1         2756           ADD     R14,#01h
08BA DA000000  R  2757           CALLS   SEG _memcpy,_memcpy
               R  2758           ?SYMB   '',$,102,5
08BE 0802         2759           ADD     R0,#02h
               R  2760           ?SYMB   '',$,96,314
08C0 98C0         2761           MOV     R12,[R0+]
               R  2762           ?SYMB   '',$,96,312
               R  2763           ?SYMB   'R12',$,100,2
                  2764   ; me_comn.c  442                pDesPB->PhoneNum[len-1]=0;
                  2765           ?LINE   442
08C2 E102         2766           MOVB    RL1,#00h
08C4 D4802C01     2767           MOV     R8,[R0+#012CH]
08C8 D4902E01     2768           MOV     R9,[R0+#012EH]
08CC 0881         2769           ADD     R8,#01h
08CE 008C         2770           ADD     R8,R12
08D0 DC49         2771           EXTP    R9,#01h
08D2 B928     1   2772           MOVB    [R8],RL1
                  2773   ; me_comn.c  443        
                  2774   ; me_comn.c  444                pBegin  = strstr( pEnd+1, "\"" );
                  2775           ?LINE   444
08D4 F0C6         2776           MOV     R12,R6
               R  2777           ?SYMB   '',$,102,2
08D6 F0D7         2778           MOV     R13,R7
08D8 08C1         2779           ADD     R12,#01h
08DA E6FE0000  R  2780           MOV     R14,#POF _195
08DE E6FF0000  R  2781           MOV     R15,#PAG _195
08E2 DA000000  R  2782           CALLS   SEG _strstr,_strstr
08E6 F084         2783           MOV     R8,R4
08E8 F095         2784           MOV     R9,R5
               R  2785           ?SYMB   'R8R9',$,100,5
                  2786   ; me_comn.c  445                while( NULL != (pSpe =strstr( pEnd+1, "\"" )) )
                  2787           ?LINE   445
08EA 0D02         2788           JMPR    cc_UC,_238
08EC              2789   _237:
               R  2790           ?SYMB   '',$,102,4
               R  2791           ?SYMB   'R12R13',$,100,1
                  2792   ; me_comn.c  446                        pEnd = pSpe;
                  2793           ?LINE   446
08EC F06C         2794           MOV     R6,R12
08EE F07D         2795           MOV     R7,R13
               R  2796           ?SYMB   'R6R7',$,100,4
                  2797           ?LINE   445
08F0              2798   _238:
               R  2799           ?SYMB   '',$,102,1
08F0 F0C6         2800           MOV     R12,R6
08F2 F0D7         2801           MOV     R13,R7
08F4 08C1         2802           ADD     R12,#01h
08F6 E6FE0000  R  2803           MOV     R14,#POF _195
08FA E6FF0000  R  2804           MOV     R15,#PAG _195
08FE DA000000  R  2805           CALLS   SEG _strstr,_strstr
0902 F0C4         2806           MOV     R12,R4
0904 F0D5         2807           MOV     R13,R5
               R  2808           ?SYMB   'R12R13',$,100,1
0906 F0ED         2809           MOV     R14,R13
0908 70EC         2810           OR      R14,R12
090A 3DF0         2811           JMPR    cc_NZ,_237
                  2812   ; me_comn.c  447        
                  2813   ; me_comn.c  448                if (pEnd != pBegin)
                  2814           ?LINE   448
090C F0C6         2815           MOV     R12,R6
               R  2816           ?SYMB   '',$,102,1
090E F0D7         2817           MOV     R13,R7
0910 20C8         2818           SUB     R12,R8
0912 30D9         2819           SUBC    R13,R9
0914 2D03         2820           JMPR    cc_EQ,_239
                  2821   ; me_comn.c  449                        len = pEnd - pBegin;
                  2822           ?LINE   449
0916 2068         2823           SUB     R6,R8
               R  2824           ?SYMB   '',$,102,4
0918 F0C6         2825           MOV     R12,R6
               R  2826           ?SYMB   'R12',$,100,2
091A 0D05         2827           JMPR    cc_UC,_240
091C              2828   _239:
               R  2829           ?SYMB   '',$,102,2
                  2830   ; me_comn.c  450                else
                  2831   ; me_comn.c  451                        len = strlen(pBegin);
                  2832           ?LINE   451
091C F0C8         2833           MOV     R12,R8
091E F0D9         2834           MOV     R13,R9
0920 DA000000  R  2835           CALLS   SEG _strlen,_strlen
0924 F0C4         2836           MOV     R12,R4
               R  2837           ?SYMB   'R12',$,100,2
0926              2838   _240:
                  2839   ; me_comn.c  452                memcpy(TempText, pBegin+1, len-1);
                  2840           ?LINE   452
0926 F06C         2841           MOV     R6,R12
0928 F076         2842           MOV     R7,R6
092A 2871         2843           SUB     R7,#01h
092C 8870         2844           MOV     [-R0],R7
               R  2845           ?SYMB   '',$,96,314
092E E02C         2846           MOV     R12,#02h
               R  2847           ?SYMB   '',$,102,2
0930 00C0         2848           ADD     R12,R0
0932 66FCFF3F     2849           AND     R12,#03FFFh
0936 F2FD02FE     2850           MOV     R13,DPP1
093A F0E8         2851           MOV     R14,R8
093C F0F9         2852           MOV     R15,R9
093E 08E1         2853           ADD     R14,#01h
0940 DA000000  R  2854           CALLS   SEG _memcpy,_memcpy
               R  2855           ?SYMB   '',$,102,5
0944 0802         2856           ADD     R0,#02h
               R  2857           ?SYMB   '',$,96,312
0946 F0C6         2858           MOV     R12,R6
               R  2859           ?SYMB   'R12',$,100,2
                  2860   ; me_comn.c  453                TempText[len-1] = 0;
                  2861           ?LINE   453
0948 E10C         2862           MOVB    RL6,#00h
094A 00C0         2863           ADD     R12,R0
               R  2864           ?SYMB   '',$,102,2
094C E4CCFFFF     2865           MOVB    [R12+#0FFFFH],RL6
                  2866   ; me_comn.c  454        
                  2867   ; me_comn.c  455                PhoneText_Decode( pDesPB->Text, ME_PHONETXT_LEN, TempText );
                  2868           ?LINE   455
0950 F080         2869           MOV     R8,R0
0952 66F8FF3F     2870           AND     R8,#03FFFh
0956 F2F902FE     2871           MOV     R9,DPP1
095A 8890         2872           MOV     [-R0],R9
               R  2873           ?SYMB   '',$,96,314
095C 8880         2874           MOV     [-R0],R8
               R  2875           ?SYMB   '',$,96,316
095E D4C03001     2876           MOV     R12,[R0+#0130H]
0962 D4D03201     2877           MOV     R13,[R0+#0132H]
0966 06FC1A00     2878           ADD     R12,#01Ah
096A E6FE1000     2879           MOV     R14,#010h
096E DA00F60A  R  2880           CALLS   SEG _PhoneText_Decode,_PhoneText_Decode
0972 0804         2881           ADD     R0,#04h
               R  2882           ?SYMB   '',$,96,312
                  2883   ; me_comn.c  456        
                  2884   ; me_comn.c  457                return 0;
                  2885           ?LINE   457
0974 E004         2886           MOV     R4,#00h
                  2887   ; me_comn.c  458        }
                  2888           ?LINE   458
0976              2889   _241:
               R  2890           ?SYMB   '',$,102,7
               R  2891           ?SYMB   '',$,102,8
               R  2892           ?SYMB   '',$,102,9
0976 06F03001     2893           ADD     R0,#0130h
               R  2894           ?SYMB   '',$,96,8
097A 9860         2895           MOV     R6,[R0+]
               R  2896           ?SYMB   '',$,96,6
097C 9870         2897           MOV     R7,[R0+]
               R  2898           ?SYMB   '',$,96,4
097E 9880         2899           MOV     R8,[R0+]
               R  2900           ?SYMB   '',$,96,2
0980 9890         2901           MOV     R9,[R0+]
               R  2902           ?SYMB   '',$,96,0
0982 DB00         2903           RETS
                  2904   _ME_PhoneBook_Dec       ENDP
               R  2905           ?SYMB   '',$,17,458
                  2906   ; me_comn.c  459        
                  2907   ; me_comn.c  460        /*********************************************************************\
                          
                  2908   ; me_comn.c  461        * Function         
                  2909   ; me_comn.c  462        * Purpose      
                  2910   ; me_comn.c  463        * Params           
                  2911   ; me_comn.c  464        * Return                   
                  2912   ; me_comn.c  465        * Remarks          
                  2913   ; me_comn.c  466        **********************************************************************/
                  2914   ; me_comn.c  467        int ME_NetOpratorDec( NETOPRATOR* pNetOp, char* pBuf, int BufCount )
                  2915   ; me_comn.c  468        {
                  2916           ?LINE   468
                  2917           PUBLIC  _ME_NetOpratorDec
               R  2918           ?SYMB   'ME_NetOpratorDec',_ME_NetOpratorDec,37,16
                  2919           ?SYMB   '',468,8,34
                  2920   _ME_NetOpratorDec       PROC    FAR
                  2921           ?SYMB   '',03c0H,95,0
0984 8890         2922           MOV     [-R0],R9
               R  2923           ?SYMB   '',$,96,2
0986 8880         2924           MOV     [-R0],R8
               R  2925           ?SYMB   '',$,96,4
0988 8870         2926           MOV     [-R0],R7
               R  2927           ?SYMB   '',$,96,6
098A 8860         2928           MOV     [-R0],R6
               R  2929           ?SYMB   '',$,96,8
098C 88D0         2930           MOV     [-R0],R13
               R  2931           ?SYMB   '',$,96,10
098E 88C0         2932           MOV     [-R0],R12
               R  2933           ?SYMB   '',$,96,12
0990 26F06600     2934           SUB     R0,#066h
               R  2935           ?SYMB   '',$,96,114
                  2936   ; Locals:
                  2937   ;     Section = offset 0
                  2938   ; 
                  2939   ; Statics:
                  2940   ; 
                  2941   ; CSEs:
                  2942   ;     pBegin = R8R9
                  2943   ;     nCount = R6
                  2944   ;     pEnd = R7R14
                  2945   ;     pNetOp = offset 102
                  2946   ;     nCount * 42 = offset 100
                  2947   ;     pBuf = R14R15
                  2948   ;     BufCount = offset 114
                  2949   ; 
                  2950           ?SYMB   '',01a021bH,38,577
                  2951           ?SYMB   'pNetOp',1,99,577
                  2952           ?SYMB   'pBuf',4,99,270
                  2953           ?SYMB   'BufCount',6,99,16
                  2954           ?SYMB   'Section',7,98,570
               R  2955           ?SYMB   '-72',$,101,7
                  2956           ?SYMB   'pBegin',3,98,270
                  2957           ?SYMB   'pEnd',2,98,270
                  2958           ?SYMB   'nCount',5,98,16
               R  2959           ?SYMB   '0',$,101,6
               R  2960           ?SYMB   'R14R15',$,100,4
               R  2961           ?SYMB   '-c',$,101,1
                  2962   ; me_comn.c  469                char Section[100];
                  2963   ; me_comn.c  470                char *pBegin, *pEnd;
                  2964   ; me_comn.c  471                int nCount;
                  2965   ; me_comn.c  472        
                  2966   ; me_comn.c  473                if ( BufCount <= 0 )
                  2967           ?LINE   473
0994 D4107200     2968           MOV     R1,[R0+#072H]
0998 4810         2969           CMP     R1,#00h
099A AD03         2970           JMPR    cc_SGT,_252
               R  2971           ?SYMB   '',$,102,6
               R  2972           ?SYMB   '',$,102,1
                  2973   ; me_comn.c  474                        return 0;
                  2974           ?LINE   474
099C E004         2975           MOV     R4,#00h
099E EA00E80A  R  2976           JMPA    cc_UC,_258
09A2              2977   _252:
               R  2978           ?SYMB   '',$,102,4
               R  2979           ?SYMB   '0',$,101,6
               R  2980           ?SYMB   'R14R15',$,100,4
               R  2981           ?SYMB   '-c',$,101,1
                  2982   ; me_comn.c  475        
                  2983   ; me_comn.c  476                nCount = 0;
                  2984           ?LINE   476
09A2 E006         2985           MOV     R6,#00h
               R  2986           ?SYMB   'R6',$,100,5
                  2987   ; me_comn.c  477        
                  2988   ; me_comn.c  478                pBegin = strchr(pBuf, '(');
                  2989           ?LINE   478
09A4 F0CE         2990           MOV     R12,R14
09A6 F0DF         2991           MOV     R13,R15
09A8 E6FE2800     2992           MOV     R14,#028h
               R  2993           ?SYMB   '',$,102,4
09AC DA000000  R  2994           CALLS   SEG _strchr,_strchr
09B0 F084         2995           MOV     R8,R4
09B2 F095         2996           MOV     R9,R5
               R  2997           ?SYMB   'R8R9',$,100,3
                  2998   ; me_comn.c  479        
                  2999   ; me_comn.c  480                if (pBegin != NULL )
                  3000           ?LINE   480
09B4 EA00C80A  R  3001           JMPA    cc_UC,_254
                  3002   ; me_comn.c  481                {
                  3003   ; me_comn.c  482                        while ( (pEnd = strchr(pBegin, ')')) != NULL )
                  3004           ?LINE   482
09B8              3005   _253:
               R  3006           ?SYMB   'R7R14',$,100,2
                  3007   ; me_comn.c  483                        {
                  3008   ; me_comn.c  484                                memcpy(Section, pBegin, pEnd-pBegin+1);
                  3009           ?LINE   484
09B8 88E0         3010           MOV     [-R0],R14
               R  3011           ?SYMB   '',$,96,116
09BA F0C7         3012           MOV     R12,R7
09BC 20C8         3013           SUB     R12,R8
09BE 08C1         3014           ADD     R12,#01h
09C0 88C0         3015           MOV     [-R0],R12
               R  3016           ?SYMB   '',$,96,118
09C2 E04C         3017           MOV     R12,#04h
09C4 00C0         3018           ADD     R12,R0
09C6 66FCFF3F     3019           AND     R12,#03FFFh
09CA F2FD02FE     3020           MOV     R13,DPP1
09CE F0E8         3021           MOV     R14,R8
               R  3022           ?SYMB   '',$,102,2
09D0 F0F9         3023           MOV     R15,R9
09D2 DA000000  R  3024           CALLS   SEG _memcpy,_memcpy
09D6 0802         3025           ADD     R0,#02h
               R  3026           ?SYMB   '',$,96,116
09D8 98E0         3027           MOV     R14,[R0+]
               R  3028           ?SYMB   '',$,96,114
               R  3029           ?SYMB   'R7R14',$,100,2
                  3030   ; me_comn.c  485        
                  3031   ; me_comn.c  486                                Section[pEnd-pBegin+1] = 0;
                  3032           ?LINE   486
09DA E102         3033           MOVB    RL1,#00h
09DC F097         3034           MOV     R9,R7
               R  3035           ?SYMB   '',$,102,3
09DE 2098         3036           SUB     R9,R8
09E0 0090         3037           ADD     R9,R0
09E2 E4290100     3038           MOVB    [R9+#01H],RL1
                  3039   ; me_comn.c  487                                if ( ME_GetStrSection(Section, pNetOp[nCount].a
                         lpha_oper, ME_OPRATOR_LEN, "(", 1 ) == -1 )
                  3040           ?LINE   487
09E6 F08E         3041           MOV     R8,R14
09E8 E019         3042           MOV     R9,#01h
09EA 8890         3043           MOV     [-R0],R9
               R  3044           ?SYMB   '',$,96,116
09EC E6FC0000  R  3045           MOV     R12,#POF _242
09F0 E6FD0000  R  3046           MOV     R13,#PAG _242
09F4 88D0         3047           MOV     [-R0],R13
               R  3048           ?SYMB   '',$,96,118
09F6 88C0         3049           MOV     [-R0],R12
               R  3050           ?SYMB   '',$,96,120
09F8 E6FE1400     3051           MOV     R14,#014h
               R  3052           ?SYMB   '',$,102,2
09FC 88E0         3053           MOV     [-R0],R14
               R  3054           ?SYMB   '',$,96,122
09FE E08C         3055           MOV     R12,#08h
0A00 00C0         3056           ADD     R12,R0
0A02 66FCFF3F     3057           AND     R12,#03FFFh
0A06 F2FD02FE     3058           MOV     R13,DPP1
0A0A E6FF2A00     3059           MOV     R15,#02Ah
0A0E D110         3060           ATOMIC  #02h
0A10 1B6F     2   3061           MULU    R6,R15
0A12 CC00     1   3062           NOP
0A14 F2F20EFE     3063           MOV     R2,MDL
0A18 C4206C00     3064           MOV     [R0+#06CH],R2
0A1C D4E06E00     3065           MOV     R14,[R0+#06EH]
0A20 D4F07000     3066           MOV     R15,[R0+#070H]
0A24 00E2         3067           ADD     R14,R2
0A26 08E2         3068           ADD     R14,#02h
0A28 DA007203  R  3069           CALLS   SEG _ME_GetStrSection,_ME_GetStrSection
0A2C 06F00800     3070           ADD     R0,#08h
               R  3071           ?SYMB   '',$,96,114
0A30 F0E8         3072           MOV     R14,R8
               R  3073           ?SYMB   'R7R14',$,100,2
0A32 46F4FFFF     3074           CMP     R4,#0FFFFh
0A36 EA20E60A  R  3075           JMPA    cc_EQ,_257
                  3076   ; me_comn.c  488                                        break;
                  3077   ; me_comn.c  489        
                  3078   ; me_comn.c  490                                ME_GetStrSection(Section, pNetOp[nCount].num_op
                         er, ME_OPRATOR_LEN, "(", 2);
                  3079           ?LINE   490
0A3A F08E         3080           MOV     R8,R14
0A3C E029         3081           MOV     R9,#02h
0A3E 8890         3082           MOV     [-R0],R9
               R  3083           ?SYMB   '',$,96,116
0A40 E6FC0000  R  3084           MOV     R12,#POF _242
0A44 E6FD0000  R  3085           MOV     R13,#PAG _242
0A48 88D0         3086           MOV     [-R0],R13
               R  3087           ?SYMB   '',$,96,118
0A4A 88C0         3088           MOV     [-R0],R12
               R  3089           ?SYMB   '',$,96,120
0A4C E6FE1400     3090           MOV     R14,#014h
               R  3091           ?SYMB   '',$,102,2
0A50 88E0         3092           MOV     [-R0],R14
               R  3093           ?SYMB   '',$,96,122
0A52 E08C         3094           MOV     R12,#08h
0A54 00C0         3095           ADD     R12,R0
0A56 66FCFF3F     3096           AND     R12,#03FFFh
0A5A F2FD02FE     3097           MOV     R13,DPP1
0A5E D4F06C00     3098           MOV     R15,[R0+#06CH]
0A62 F01F         3099           MOV     R1,R15
0A64 D4E06E00     3100           MOV     R14,[R0+#06EH]
0A68 D4F07000     3101           MOV     R15,[R0+#070H]
0A6C 00E1         3102           ADD     R14,R1
0A6E 06FE1600     3103           ADD     R14,#016h
0A72 DA007203  R  3104           CALLS   SEG _ME_GetStrSection,_ME_GetStrSection
0A76 06F00800     3105           ADD     R0,#08h
               R  3106           ?SYMB   '',$,96,114
0A7A F0E8         3107           MOV     R14,R8
               R  3108           ?SYMB   'R7R14',$,100,2
                  3109   ; me_comn.c  491                                pNetOp[nCount].stat = ME_GetIntSection(Section,
                          "(", 1);
                  3110           ?LINE   491
0A7C E019         3111           MOV     R9,#01h
0A7E 8890         3112           MOV     [-R0],R9
               R  3113           ?SYMB   '',$,96,116
0A80 E02C         3114           MOV     R12,#02h
0A82 00C0         3115           ADD     R12,R0
0A84 66FCFF3F     3116           AND     R12,#03FFFh
0A88 F2FD02FE     3117           MOV     R13,DPP1
0A8C E6FE0000  R  3118           MOV     R14,#POF _242
               R  3119           ?SYMB   '',$,102,2
0A90 E6FF0000  R  3120           MOV     R15,#PAG _242
0A94 DA005202  R  3121           CALLS   SEG _ME_GetIntSection,_ME_GetIntSection
0A98 0802         3122           ADD     R0,#02h
               R  3123           ?SYMB   '',$,96,114
0A9A D4906400     3124           MOV     R9,[R0+#064H]
0A9E D4C06600     3125           MOV     R12,[R0+#066H]
0AA2 D4D06800     3126           MOV     R13,[R0+#068H]
0AA6 00C9         3127           ADD     R12,R9
0AA8 DC4D         3128           EXTP    R13,#01h
0AAA B84C     1   3129           MOV     [R12],R4
0AAC F0E8         3130           MOV     R14,R8
               R  3131           ?SYMB   'R7R14',$,100,2
                  3132   ; me_comn.c  492        
                  3133   ; me_comn.c  493                                nCount++;
                  3134           ?LINE   493
0AAE 0861         3135           ADD     R6,#01h
               R  3136           ?SYMB   '',$,102,5
               R  3137           ?SYMB   'R6',$,100,5
                  3138   ; me_comn.c  494        
                  3139   ; me_comn.c  495                                if ( nCount >= BufCount )
                  3140           ?LINE   495
0AB0 D4807200     3141           MOV     R8,[R0+#072H]
0AB4 4068         3142           CMP     R6,R8
0AB6 DD17         3143           JMPR    cc_SGE,_257
                  3144   ; me_comn.c  496                                        return nCount;
                  3145   ; me_comn.c  497        
                  3146   ; me_comn.c  498                                pBegin = strchr(pEnd, '(');
                  3147           ?LINE   498
0AB8 F0C7         3148           MOV     R12,R7
0ABA F0DE         3149           MOV     R13,R14
0ABC E6FE2800     3150           MOV     R14,#028h
               R  3151           ?SYMB   '',$,102,2
0AC0 DA000000  R  3152           CALLS   SEG _strchr,_strchr
0AC4 F084         3153           MOV     R8,R4
0AC6 F095         3154           MOV     R9,R5
               R  3155           ?SYMB   'R8R9',$,100,3
                  3156   ; me_comn.c  499        
                  3157   ; me_comn.c  500                                if (pBegin == NULL)
                  3158           ?LINE   500
0AC8              3159   _254:
0AC8 F079         3160           MOV     R7,R9
0ACA 7078         3161           OR      R7,R8
0ACC 2D0C         3162           JMPR    cc_Z,_257
                  3163           ?LINE   482
0ACE F0C8         3164           MOV     R12,R8
0AD0 F0D9         3165           MOV     R13,R9
0AD2 E6FE2900     3166           MOV     R14,#029h
0AD6 DA000000  R  3167           CALLS   SEG _strchr,_strchr
0ADA F074         3168           MOV     R7,R4
0ADC F0E5         3169           MOV     R14,R5
               R  3170           ?SYMB   'R7R14',$,100,2
0ADE F0CE         3171           MOV     R12,R14
0AE0 70C7         3172           OR      R12,R7
0AE2 EA30B809  R  3173           JMPA    cc_NZ,_253
               R  3174           ?SYMB   '',$,102,6
               R  3175           ?SYMB   '',$,102,1
                  3176   ; me_comn.c  501                                        break;
                  3177   ; me_comn.c  502                        }
                  3178   ; me_comn.c  503                }
                  3179           ?LINE   503
0AE6              3180   _257:
               R  3181           ?SYMB   '',$,102,3
               R  3182           ?SYMB   '',$,102,2
                  3183   ; me_comn.c  504        
                  3184   ; me_comn.c  505                return nCount;
                  3185           ?LINE   505
0AE6 F046         3186           MOV     R4,R6
                  3187   ; me_comn.c  506        }
                  3188           ?LINE   506
0AE8              3189   _258:
               R  3190           ?SYMB   '',$,102,5
               R  3191           ?SYMB   '',$,102,7
0AE8 06F06A00     3192           ADD     R0,#06Ah
               R  3193           ?SYMB   '',$,96,8
0AEC 9860         3194           MOV     R6,[R0+]
               R  3195           ?SYMB   '',$,96,6
0AEE 9870         3196           MOV     R7,[R0+]
               R  3197           ?SYMB   '',$,96,4
0AF0 9880         3198           MOV     R8,[R0+]
               R  3199           ?SYMB   '',$,96,2
0AF2 9890         3200           MOV     R9,[R0+]
               R  3201           ?SYMB   '',$,96,0
0AF4 DB00         3202           RETS
                  3203   _ME_NetOpratorDec       ENDP
               R  3204           ?SYMB   '',$,17,506
                  3205   ; me_comn.c  507        
                  3206   ; me_comn.c  508        void PhoneText_Decode( char* pDst, int nDstLen, char* pSrc )
                  3207   ; me_comn.c  509        {
                  3208           ?LINE   509
                  3209           PUBLIC  _PhoneText_Decode
               R  3210           ?SYMB   'PhoneText_Decode',_PhoneText_Decode,37,1
                  3211           ?SYMB   '',509,8,34
                  3212   _PhoneText_Decode       PROC    FAR
                  3213           ?SYMB   '',0340H,95,0
0AF6 8890         3214           MOV     [-R0],R9
               R  3215           ?SYMB   '',$,96,2
0AF8 8880         3216           MOV     [-R0],R8
               R  3217           ?SYMB   '',$,96,4
0AFA 8860         3218           MOV     [-R0],R6
               R  3219           ?SYMB   '',$,96,6
0AFC 26F0C800     3220           SUB     R0,#0C8h
               R  3221           ?SYMB   '',$,96,206
0B00 F09D         3222           MOV     R9,R13
0B02 F08C         3223           MOV     R8,R12
0B04 F06E         3224           MOV     R6,R14
                  3225   ; Locals:
                  3226   ;     WideStr = offset 0
                  3227   ;     PDUStr = offset 100
                  3228   ; 
                  3229   ; Statics:
                  3230   ; 
                  3231   ; CSEs:
                  3232   ;     pDst = R8R9
                  3233   ;     nDstLen = R6
                  3234   ;     pSrc = offset 206
                  3235   ; 
                  3236           ?SYMB   'pDst',1,99,270
                  3237           ?SYMB   'nDstLen',2,99,16
                  3238           ?SYMB   'pSrc',3,99,270
                  3239           ?SYMB   'PDUStr',5,98,570
               R  3240           ?SYMB   '-6a',$,101,5
                  3241           ?SYMB   'WideStr',4,98,570
               R  3242           ?SYMB   '-ce',$,101,4
               R  3243           ?SYMB   '0',$,101,3
               R  3244           ?SYMB   'R6',$,100,2
               R  3245           ?SYMB   'R8R9',$,100,1
                  3246   ; me_comn.c  510                char PDUStr[100], WideStr[100];
                  3247   ; me_comn.c  511        
                  3248   ; me_comn.c  512                memset( PDUStr, 0, 100 );
                  3249           ?LINE   512
0B06 E6FC6400     3250           MOV     R12,#064h
0B0A 00C0         3251           ADD     R12,R0
0B0C 66FCFF3F     3252           AND     R12,#03FFFh
0B10 F2FD02FE     3253           MOV     R13,DPP1
0B14 E00E         3254           MOV     R14,#00h
0B16 E6FF6400     3255           MOV     R15,#064h
0B1A DA000000  R  3256           CALLS   SEG _memset,_memset
                  3257   ; me_comn.c  513                memset( WideStr, 0, 100 );
                  3258           ?LINE   513
0B1E F0C0         3259           MOV     R12,R0
0B20 66FCFF3F     3260           AND     R12,#03FFFh
0B24 F2FD02FE     3261           MOV     R13,DPP1
0B28 E00E         3262           MOV     R14,#00h
0B2A E6FF6400     3263           MOV     R15,#064h
0B2E DA000000  R  3264           CALLS   SEG _memset,_memset
                  3265   ; me_comn.c  514        
                  3266   ; me_comn.c  515        /*      if ( Analyse_UCS2PDUCode(PDUStr, pSrc, 100) < 0 )
                  3267   ; me_comn.c  516                {
                  3268   ; me_comn.c  517                        strcpy( pDst, pSrc );
                  3269   ; me_comn.c  518                        return;
                  3270   ; me_comn.c  519                }*/
                  3271   ; me_comn.c  520                Analyse_PDUCode2WideChar(  WideStr,pSrc, 100 );
                  3272           ?LINE   520
0B32 E6FC6400     3273           MOV     R12,#064h
0B36 88C0         3274           MOV     [-R0],R12
               R  3275           ?SYMB   '',$,96,208
0B38 E02C         3276           MOV     R12,#02h
0B3A 00C0         3277           ADD     R12,R0
0B3C 66FCFF3F     3278           AND     R12,#03FFFh
0B40 F2FD02FE     3279           MOV     R13,DPP1
0B44 D4E0D000     3280           MOV     R14,[R0+#0D0H]
0B48 D4F0D200     3281           MOV     R15,[R0+#0D2H]
0B4C DA000000  R  3282           CALLS   SEG _Analyse_PDUCode2WideChar,_Analyse_PDUCode2WideChar
               R  3283           ?SYMB   '',$,96,206
                  3284   ; me_comn.c  521                WideCharToMultiByte( CP_ACP, 0, (LPCWSTR)WideStr, -1,
                  3285   ; me_comn.c  522                                (LPSTR)pDst, nDstLen, 0, 0);
                  3286           ?LINE   522
0B50 E00C         3287           MOV     R12,#00h
0B52 E00D         3288           MOV     R13,#00h
0B54 B8D0         3289           MOV     [R0],R13
               R  3290           ?SYMB   '',$,96,208
0B56 88C0         3291           MOV     [-R0],R12
               R  3292           ?SYMB   '',$,96,210
0B58 E00E         3293           MOV     R14,#00h
0B5A E00F         3294           MOV     R15,#00h
0B5C 88F0         3295           MOV     [-R0],R15
               R  3296           ?SYMB   '',$,96,212
0B5E 88E0         3297           MOV     [-R0],R14
               R  3298           ?SYMB   '',$,96,214
0B60 8860         3299           MOV     [-R0],R6
               R  3300           ?SYMB   '',$,96,216
0B62 8890         3301           MOV     [-R0],R9
               R  3302           ?SYMB   '',$,96,218
0B64 8880         3303           MOV     [-R0],R8
               R  3304           ?SYMB   '',$,96,220
0B66 E6F1FFFF     3305           MOV     R1,#0FFFFh
0B6A 8810         3306           MOV     [-R0],R1
               R  3307           ?SYMB   '',$,96,222
0B6C E6F21000     3308           MOV     R2,#010h
0B70 0020         3309           ADD     R2,R0
0B72 66F2FF3F     3310           AND     R2,#03FFFh
0B76 F2F302FE     3311           MOV     R3,DPP1
0B7A 8830         3312           MOV     [-R0],R3
               R  3313           ?SYMB   '',$,96,224
0B7C 8820         3314           MOV     [-R0],R2
               R  3315           ?SYMB   '',$,96,226
0B7E E00C         3316           MOV     R12,#00h
0B80 E00D         3317           MOV     R13,#00h
0B82 E00E         3318           MOV     R14,#00h
0B84 DA000000  R  3319           CALLS   SEG _WideCharToMultiByte,_WideCharToMultiByte
               R  3320           ?SYMB   '',$,102,2
               R  3321           ?SYMB   '',$,102,1
0B88 06F0DC00     3322           ADD     R0,#0DCh
               R  3323           ?SYMB   '',$,96,206
               R  3324           ?SYMB   '',$,102,4
               R  3325           ?SYMB   '',$,102,5
               R  3326           ?SYMB   '',$,96,6
                  3327   ; me_comn.c  523        
                  3328   ; me_comn.c  524                return;
                  3329   ; me_comn.c  525        }
                  3330           ?LINE   525
0B8C 9860         3331           MOV     R6,[R0+]
               R  3332           ?SYMB   '',$,96,4
0B8E 9880         3333           MOV     R8,[R0+]
               R  3334           ?SYMB   '',$,96,2
0B90 9890         3335           MOV     R9,[R0+]
               R  3336           ?SYMB   '',$,96,0
0B92 DB00         3337           RETS
                  3338   _PhoneText_Decode       ENDP
               R  3339           ?SYMB   '',$,17,525
                  3340   ; me_comn.c  526        
                  3341   ; me_comn.c  527        /*********************************************************************\
                          
                  3342   ; me_comn.c  528        * Function
                  3343   ; me_comn.c  529        * Purpose
                  3344   ; me_comn.c  530        * Params
                  3345   ; me_comn.c  531        * Return
                  3346   ; me_comn.c  532        * Remarks
                  3347   ; me_comn.c  533        **********************************************************************/
                  3348   ; me_comn.c  534        int PhoneText_Encode( char* pDesStr, char* pSrcStr, unsigned int DestLe
                         n )
                  3349   ; me_comn.c  535        {
                  3350           ?LINE   535
                  3351           PUBLIC  _PhoneText_Encode
               R  3352           ?SYMB   'PhoneText_Encode',_PhoneText_Encode,37,16
                  3353           ?SYMB   '',535,8,34
                  3354   _PhoneText_Encode       PROC    FAR
                  3355           ?SYMB   '',03c0H,95,0
0B94 8890         3356           MOV     [-R0],R9
               R  3357           ?SYMB   '',$,96,2
0B96 8880         3358           MOV     [-R0],R8
               R  3359           ?SYMB   '',$,96,4
0B98 8870         3360           MOV     [-R0],R7
               R  3361           ?SYMB   '',$,96,6
0B9A 8860         3362           MOV     [-R0],R6
               R  3363           ?SYMB   '',$,96,8
0B9C 26F0C800     3364           SUB     R0,#0C8h
               R  3365           ?SYMB   '',$,96,208
0BA0 F09F         3366           MOV     R9,R15
0BA2 F08E         3367           MOV     R8,R14
0BA4 F07D         3368           MOV     R7,R13
0BA6 F06C         3369           MOV     R6,R12
                  3370   ; Locals:
                  3371   ;     PDUText = offset 0
                  3372   ;     WideText = offset 100
                  3373   ; 
                  3374   ; Statics:
                  3375   ; 
                  3376   ; CSEs:
                  3377   ;     pSrcStr = R8R9
                  3378   ;     i = R12
                  3379   ;     pDesStr = R6R7
                  3380   ;     len = R8
                  3381   ;     DestLen = offset 208
                  3382   ; 
                  3383           ?SYMB   'pDesStr',2,99,270
                  3384           ?SYMB   'pSrcStr',4,99,270
                  3385           ?SYMB   'DestLen',3,99,18
                  3386           ?SYMB   'WideText',7,98,570
               R  3387           ?SYMB   '-6c',$,101,7
                  3388           ?SYMB   'PDUText',6,98,570
               R  3389           ?SYMB   '-d0',$,101,6
                  3390           ?SYMB   'len',1,98,16
                  3391           ?SYMB   'i',5,98,18
               R  3392           ?SYMB   'R8R9',$,100,4
               R  3393           ?SYMB   '0',$,101,3
               R  3394           ?SYMB   'R6R7',$,100,2
                  3395   ; me_comn.c  536                char WideText[100];
                  3396   ; me_comn.c  537                char PDUText[100];
                  3397   ; me_comn.c  538                int len;
                  3398   ; me_comn.c  539                unsigned int i = 0;
                  3399           ?LINE   539
0BA8 E00C         3400           MOV     R12,#00h
               R  3401           ?SYMB   'R12',$,100,5
                  3402   ; me_comn.c  540        
                  3403   ; me_comn.c  541                while ( pSrcStr[i] != '\0' )
                  3404           ?LINE   541
0BAA 0D09         3405           JMPR    cc_UC,_269
0BAC              3406   _268:
                  3407   ; me_comn.c  542                {
                  3408   ; me_comn.c  543                        if ( (BYTE)(pSrcStr[i]) >= 0xA0 )
                  3409           ?LINE   543
0BAC F0D8         3410           MOV     R13,R8
0BAE F0E9         3411           MOV     R14,R9
0BB0 00DC         3412           ADD     R13,R12
0BB2 DC4E         3413           EXTP    R14,#01h
0BB4 A92D     1   3414           MOVB    RL1,[R13]
0BB6 47F2A000     3415           CMPB    RL1,#0A0h
0BBA 9D07         3416           JMPR    cc_UGE,_270
                  3417   ; me_comn.c  544                                break;
                  3418   ; me_comn.c  545        
                  3419   ; me_comn.c  546                        i++;
                  3420           ?LINE   546
0BBC 08C1         3421           ADD     R12,#01h
               R  3422           ?SYMB   '',$,102,5
               R  3423           ?SYMB   'R12',$,100,5
                  3424           ?LINE   541
0BBE              3425   _269:
0BBE F0D8         3426           MOV     R13,R8
0BC0 F0E9         3427           MOV     R14,R9
0BC2 00DC         3428           ADD     R13,R12
0BC4 DC4E         3429           EXTP    R14,#01h
0BC6 A92D     1   3430           MOVB    RL1,[R13]
0BC8 3DF1         3431           JMPR    cc_NZ,_268
                  3432   ; me_comn.c  547                }
                  3433           ?LINE   547
0BCA              3434   _270:
                  3435   ; me_comn.c  548        
                  3436   ; me_comn.c  549                if ( i == strlen(pSrcStr) )
                  3437           ?LINE   549
0BCA 88C0         3438           MOV     [-R0],R12
               R  3439           ?SYMB   '',$,96,210
0BCC F0C8         3440           MOV     R12,R8
               R  3441           ?SYMB   '',$,102,5
0BCE F0D9         3442           MOV     R13,R9
0BD0 DA000000  R  3443           CALLS   SEG _strlen,_strlen
               R  3444           ?SYMB   '',$,102,5
0BD4 98C0         3445           MOV     R12,[R0+]
               R  3446           ?SYMB   '',$,96,208
0BD6 404C         3447           CMP     R4,R12
0BD8 3D11         3448           JMPR    cc_NE,_271
                  3449   ; me_comn.c  550                {
                  3450   ; me_comn.c  551                        if ( strlen(pSrcStr) >= DestLen )
                  3451           ?LINE   551
0BDA F0C8         3452           MOV     R12,R8
0BDC F0D9         3453           MOV     R13,R9
0BDE DA000000  R  3454           CALLS   SEG _strlen,_strlen
0BE2 D4C0D000     3455           MOV     R12,[R0+#0D0H]
0BE6 404C         3456           CMP     R4,R12
0BE8 EA90700C  R  3457           JMPA    cc_UGE,_272
                  3458   ; me_comn.c  552                        {
                  3459   ; me_comn.c  553                                strcpy( pDesStr, "" );
                  3460   ; me_comn.c  554                                return 0;
                  3461   ; me_comn.c  555                        }
                  3462   ; me_comn.c  556                        strcpy( pDesStr, pSrcStr );
                  3463           ?LINE   556
0BEC F0C6         3464           MOV     R12,R6
0BEE F0D7         3465           MOV     R13,R7
0BF0 F0E8         3466           MOV     R14,R8
0BF2 F0F9         3467           MOV     R15,R9
0BF4 DA000000  R  3468           CALLS   SEG _strcpy,_strcpy
               R  3469           ?SYMB   '',$,102,4
               R  3470           ?SYMB   '',$,102,2
                  3471   ; me_comn.c  557                        return 0;
                  3472           ?LINE   557
0BF8 EA00800C  R  3473           JMPA    cc_UC,_273
                  3474   ; me_comn.c  558                }
                  3475           ?LINE   558
0BFC              3476   _271:
               R  3477           ?SYMB   'R8R9',$,100,4
               R  3478           ?SYMB   'R6R7',$,100,2
                  3479   ; me_comn.c  559                else
                  3480   ; me_comn.c  560                {
                  3481   ; me_comn.c  561                        len = MultiByteToWideChar( CP_ACP, 0, pSrcStr, strlen(p
                         SrcStr), (LPWSTR)WideText, 100 );
                  3482           ?LINE   561
0BFC E6FC6400     3483           MOV     R12,#064h
0C00 88C0         3484           MOV     [-R0],R12
               R  3485           ?SYMB   '',$,96,210
0C02 E6FD6600     3486           MOV     R13,#066h
0C06 00D0         3487           ADD     R13,R0
0C08 66FDFF3F     3488           AND     R13,#03FFFh
0C0C F2FE02FE     3489           MOV     R14,DPP1
0C10 88E0         3490           MOV     [-R0],R14
               R  3491           ?SYMB   '',$,96,212
0C12 88D0         3492           MOV     [-R0],R13
               R  3493           ?SYMB   '',$,96,214
0C14 F0C8         3494           MOV     R12,R8
0C16 F0D9         3495           MOV     R13,R9
0C18 DA000000  R  3496           CALLS   SEG _strlen,_strlen
0C1C 8840         3497           MOV     [-R0],R4
               R  3498           ?SYMB   '',$,96,216
0C1E 8890         3499           MOV     [-R0],R9
               R  3500           ?SYMB   '',$,96,218
0C20 8880         3501           MOV     [-R0],R8
               R  3502           ?SYMB   '',$,96,220
0C22 E00C         3503           MOV     R12,#00h
0C24 E00D         3504           MOV     R13,#00h
0C26 E00E         3505           MOV     R14,#00h
0C28 DA000000  R  3506           CALLS   SEG _MultiByteToWideChar,_MultiByteToWideChar
               R  3507           ?SYMB   '',$,102,4
0C2C 06F00C00     3508           ADD     R0,#0Ch
               R  3509           ?SYMB   '',$,96,208
0C30 F084         3510           MOV     R8,R4
               R  3511           ?SYMB   'R8',$,100,1
                  3512   ; me_comn.c  562        
                  3513   ; me_comn.c  563                        Analyse_WideChar2PDUCode( PDUText, WideText, 100, len )
                         ;
                  3514           ?LINE   563
0C32 8880         3515           MOV     [-R0],R8
               R  3516           ?SYMB   '',$,96,210
0C34 E6F96400     3517           MOV     R9,#064h
0C38 8890         3518           MOV     [-R0],R9
               R  3519           ?SYMB   '',$,96,212
0C3A E04C         3520           MOV     R12,#04h
0C3C 00C0         3521           ADD     R12,R0
0C3E 66FCFF3F     3522           AND     R12,#03FFFh
0C42 F2FD02FE     3523           MOV     R13,DPP1
0C46 E6FE6800     3524           MOV     R14,#068h
0C4A 00E0         3525           ADD     R14,R0
0C4C 66FEFF3F     3526           AND     R14,#03FFFh
0C50 F2FF02FE     3527           MOV     R15,DPP1
0C54 DA000000  R  3528           CALLS   SEG _Analyse_WideChar2PDUCode,_Analyse_WideChar2PDUCode
               R  3529           ?SYMB   '',$,102,1
0C58 0804         3530           ADD     R0,#04h
               R  3531           ?SYMB   '',$,96,208
                  3532   ; me_comn.c  564        
                  3533   ; me_comn.c  565                        if ( strlen( PDUText ) >= DestLen )
                  3534           ?LINE   565
0C5A F0C0         3535           MOV     R12,R0
0C5C 66FCFF3F     3536           AND     R12,#03FFFh
0C60 F2FD02FE     3537           MOV     R13,DPP1
0C64 DA000000  R  3538           CALLS   SEG _strlen,_strlen
0C68 D480D000     3539           MOV     R8,[R0+#0D0H]
0C6C 4048         3540           CMP     R4,R8
0C6E 8D0A         3541           JMPR    cc_ULT,_274
                  3542   ; me_comn.c  566                        {
                  3543   ; me_comn.c  567                                strcpy( pDesStr, "" );
                  3544           ?LINE   567
0C70              3545   _272:
0C70 F0C6         3546           MOV     R12,R6
0C72 F0D7         3547           MOV     R13,R7
0C74 E6FE0000  R  3548           MOV     R14,#POF _196
0C78 E6FF0000  R  3549           MOV     R15,#PAG _196
0C7C DA000000  R  3550           CALLS   SEG _strcpy,_strcpy
               R  3551           ?SYMB   '',$,102,2
                  3552   ; me_comn.c  568                                return 0;
                  3553           ?LINE   568
0C80              3554   _273:
0C80 E004         3555           MOV     R4,#00h
0C82 0D0A         3556           JMPR    cc_UC,_275
                  3557   ; me_comn.c  569                        }
                  3558           ?LINE   569
0C84              3559   _274:
               R  3560           ?SYMB   'R6R7',$,100,2
                  3561   ; me_comn.c  570        //              strcpy( pDesStr, "80" );
                  3562   ; me_comn.c  571        //              strcat( pDesStr, PDUText );
                  3563   ; me_comn.c  572                        strcpy( pDesStr, PDUText );
                  3564           ?LINE   572
0C84 F0C6         3565           MOV     R12,R6
0C86 F0D7         3566           MOV     R13,R7
0C88 F0E0         3567           MOV     R14,R0
0C8A 66FEFF3F     3568           AND     R14,#03FFFh
0C8E F2FF02FE     3569           MOV     R15,DPP1
0C92 DA000000  R  3570           CALLS   SEG _strcpy,_strcpy
               R  3571           ?SYMB   '',$,102,2
                  3572   ; me_comn.c  573                        return 1;
                  3573           ?LINE   573
0C96 E014         3574           MOV     R4,#01h
                  3575   ; me_comn.c  574                }
                  3576   ; me_comn.c  575        }
                  3577           ?LINE   575
0C98              3578   _275:
               R  3579           ?SYMB   '',$,102,6
               R  3580           ?SYMB   '',$,102,7
0C98 06F0C800     3581           ADD     R0,#0C8h
               R  3582           ?SYMB   '',$,96,8
0C9C 9860         3583           MOV     R6,[R0+]
               R  3584           ?SYMB   '',$,96,6
0C9E 9870         3585           MOV     R7,[R0+]
               R  3586           ?SYMB   '',$,96,4
0CA0 9880         3587           MOV     R8,[R0+]
               R  3588           ?SYMB   '',$,96,2
0CA2 9890         3589           MOV     R9,[R0+]
               R  3590           ?SYMB   '',$,96,0
0CA4 DB00         3591           RETS
                  3592   _PhoneText_Encode       ENDP
               R  3593           ?SYMB   '',$,17,575
                  3594   ; me_comn.c  576        
                  3595   ; me_comn.c  577        int ServCell_Decode( PSCELL_INFO pDest, char* pSource, int Status )
                  3596   ; me_comn.c  578        {
                  3597           ?LINE   578
                  3598           PUBLIC  _ServCell_Decode
               R  3599           ?SYMB   'ServCell_Decode',_ServCell_Decode,37,16
                  3600           ?SYMB   '',578,8,34
                  3601           ?SYMB   'SCELL_INFO',546,13,581
                  3602   _ServCell_Decode        PROC    FAR
                  3603           ?SYMB   '',0340H,95,0
0CA6 8890         3604           MOV     [-R0],R9
               R  3605           ?SYMB   '',$,96,2
0CA8 8880         3606           MOV     [-R0],R8
               R  3607           ?SYMB   '',$,96,4
0CAA 8860         3608           MOV     [-R0],R6
               R  3609           ?SYMB   '',$,96,6
0CAC 26F05400     3610           SUB     R0,#054h
               R  3611           ?SYMB   '',$,96,90
0CB0 F09D         3612           MOV     R9,R13
0CB2 F08C         3613           MOV     R8,R12
                  3614   ; Locals:
                  3615   ;     token = offset 0
                  3616   ; 
                  3617   ; Statics:
                  3618   ; 
                  3619   ; CSEs:
                  3620   ;     pDest = R8R9
                  3621   ;     i = R6
                  3622   ;     p = R12R13
                  3623   ;     q = offset 80
                  3624   ;     pSource = R14R15
                  3625   ;     Status = offset 90
                  3626   ; 
                  3627           ?SYMB   'pDest',1,99,549
                  3628           ?SYMB   'pSource',4,99,270
                  3629           ?SYMB   'Status',5,99,16
                  3630           ?SYMB   'p',2,98,270
                  3631           ?SYMB   'q',3,98,270
                  3632           ?SYMB   '',0247010eH,5,582
                  3633           ?SYMB   '',16,47,583
                  3634           ?SYMB   '',0,30,0
                  3635           ?SYMB   '',19,49,0
                  3636           ?SYMB   'token',7,98,582
               R  3637           ?SYMB   '-5a',$,101,7
                  3638           ?SYMB   'i',6,98,16
               R  3639           ?SYMB   '0',$,101,5
               R  3640           ?SYMB   'R14R15',$,100,4
               R  3641           ?SYMB   'R8R9',$,100,1
                  3642   ; me_comn.c  579                char* p, *q;
                  3643   ; me_comn.c  580                char* token[20];
                  3644   ; me_comn.c  581                int i = 0;
                  3645           ?LINE   581
0CB4 E006         3646           MOV     R6,#00h
               R  3647           ?SYMB   'R6',$,100,6
                  3648   ; me_comn.c  582        
                  3649   ; me_comn.c  583                if ( Status == ME_RS_SEARCHING )
                  3650           ?LINE   583
0CB6 D4C05A00     3651           MOV     R12,[R0+#05AH]
0CBA 46FC0D00     3652           CMP     R12,#0Dh
0CBE 2D1F         3653           JMPR    cc_EQ,_305
                  3654   ; me_comn.c  584                        return -1;
                  3655   ; me_comn.c  585        
                  3656   ; me_comn.c  586                q = strstr( pSource, "^SMONC:" );
                  3657           ?LINE   586
0CC0 88F0         3658           MOV     [-R0],R15
               R  3659           ?SYMB   '',$,96,92
0CC2 88E0         3660           MOV     [-R0],R14
               R  3661           ?SYMB   '',$,96,94
0CC4 D4D00200     3662           MOV     R13,[R0+#02H]
0CC8 A8C0         3663           MOV     R12,[R0]
0CCA E6FE0000  R  3664           MOV     R14,#POF _276
               R  3665           ?SYMB   '',$,102,4
0CCE E6FF0000  R  3666           MOV     R15,#PAG _276
0CD2 DA000000  R  3667           CALLS   SEG _strstr,_strstr
0CD6 C4405400     3668           MOV     [R0+#054H],R4
0CDA C4505600     3669           MOV     [R0+#056H],R5
               R  3670           ?SYMB   '-a',$,101,3
0CDE 98E0         3671           MOV     R14,[R0+]
               R  3672           ?SYMB   '',$,96,92
0CE0 98F0         3673           MOV     R15,[R0+]
               R  3674           ?SYMB   '',$,96,90
               R  3675           ?SYMB   'R14R15',$,100,4
                  3676   ; me_comn.c  587                p = strchr( pSource, '\r');
                  3677           ?LINE   587
0CE2 F0CE         3678           MOV     R12,R14
0CE4 F0DF         3679           MOV     R13,R15
0CE6 E0DE         3680           MOV     R14,#0Dh
               R  3681           ?SYMB   '',$,102,4
0CE8 DA000000  R  3682           CALLS   SEG _strchr,_strchr
0CEC F0C4         3683           MOV     R12,R4
0CEE F0D5         3684           MOV     R13,R5
               R  3685           ?SYMB   'R12R13',$,100,2
                  3686   ; me_comn.c  588        
                  3687   ; me_comn.c  589                if ( p == NULL )
                  3688           ?LINE   589
0CF0 F0ED         3689           MOV     R14,R13
0CF2 70EC         3690           OR      R14,R12
0CF4 2D04         3691           JMPR    cc_Z,_305
                  3692   ; me_comn.c  590                        return -1;
                  3693   ; me_comn.c  591        
                  3694   ; me_comn.c  592                p += 2;
                  3695           ?LINE   592
0CF6 08C2         3696           ADD     R12,#02h
               R  3697           ?SYMB   '',$,102,2
               R  3698           ?SYMB   'R12R13',$,100,2
                  3699   ; me_comn.c  593        
                  3700   ; me_comn.c  594                if ( p == NULL )
                  3701           ?LINE   594
0CF8 F0ED         3702           MOV     R14,R13
0CFA 70EC         3703           OR      R14,R12
0CFC 3D04         3704           JMPR    cc_NZ,_306
               R  3705           ?SYMB   '',$,102,5
               R  3706           ?SYMB   '',$,102,3
                  3707   ; me_comn.c  595                        return -1;
                  3708           ?LINE   595
0CFE              3709   _305:
               R  3710           ?SYMB   '',$,102,1
               R  3711           ?SYMB   '',$,102,6
               R  3712           ?SYMB   '',$,102,2
0CFE E6F4FFFF     3713           MOV     R4,#0FFFFh
0D02 EA00660F  R  3714           JMPA    cc_UC,_314
0D06              3715   _306:
               R  3716           ?SYMB   'R6',$,100,6
               R  3717           ?SYMB   '0',$,101,5
               R  3718           ?SYMB   '-a',$,101,3
               R  3719           ?SYMB   'R12R13',$,100,2
               R  3720           ?SYMB   'R8R9',$,100,1
                  3721   ; me_comn.c  596        
                  3722   ; me_comn.c  597                token[0] = strtok( p, " " );
                  3723           ?LINE   597
0D06 E6FE0000  R  3724           MOV     R14,#POF _277
0D0A E6FF0000  R  3725           MOV     R15,#PAG _277
0D0E DA000000  R  3726           CALLS   SEG _strtok,_strtok
               R  3727           ?SYMB   '',$,102,2
0D12 B840         3728           MOV     [R0],R4
0D14 C4500200     3729           MOV     [R0+#02H],R5
                  3730   ; me_comn.c  598        
                  3731   ; me_comn.c  599                while ( token[i] != NULL && i < 20 )
                  3732           ?LINE   599
0D18 0D0F         3733           JMPR    cc_UC,_308
0D1A              3734   _307:
                  3735   ; me_comn.c  600                {
                  3736   ; me_comn.c  601                        i++;
                  3737           ?LINE   601
0D1A 0861         3738           ADD     R6,#01h
               R  3739           ?SYMB   '',$,102,6
               R  3740           ?SYMB   'R6',$,100,6
                  3741   ; me_comn.c  602                        token[i] = strtok( NULL, " " );
                  3742           ?LINE   602
0D1C E00C         3743           MOV     R12,#00h
0D1E E00D         3744           MOV     R13,#00h
0D20 E6FE0000  R  3745           MOV     R14,#POF _277
0D24 E6FF0000  R  3746           MOV     R15,#PAG _277
0D28 DA000000  R  3747           CALLS   SEG _strtok,_strtok
0D2C F0C6         3748           MOV     R12,R6
0D2E 5C2C         3749           SHL     R12,#02h
0D30 00C0         3750           ADD     R12,R0
0D32 B84C         3751           MOV     [R12],R4
0D34 C45C0200     3752           MOV     [R12+#02H],R5
                  3753           ?LINE   599
0D38              3754   _308:
0D38 F0C6         3755           MOV     R12,R6
0D3A 5C2C         3756           SHL     R12,#02h
0D3C 00C0         3757           ADD     R12,R0
0D3E A8DC         3758           MOV     R13,[R12]
0D40 D4EC0200     3759           MOV     R14,[R12+#02H]
0D44 70DE         3760           OR      R13,R14
0D46 2D03         3761           JMPR    cc_Z,_309
0D48 46F61400     3762           CMP     R6,#014h
0D4C CDE6         3763           JMPR    cc_SLT,_307
0D4E              3764   _309:
               R  3765           ?SYMB   '',$,102,6
                  3766   ; me_comn.c  603                }
                  3767   ; me_comn.c  604        
                  3768   ; me_comn.c  605                strcpy( pDest->BCH, token[0] );
                  3769           ?LINE   605
0D4E F0C8         3770           MOV     R12,R8
0D50 F0D9         3771           MOV     R13,R9
0D52 A8E0         3772           MOV     R14,[R0]
0D54 D4F00200     3773           MOV     R15,[R0+#02H]
0D58 DA000000  R  3774           CALLS   SEG _strcpy,_strcpy
                  3775   ; me_comn.c  606                strcpy( pDest->RSSI, token[1] );
                  3776           ?LINE   606
0D5C F0C8         3777           MOV     R12,R8
0D5E F0D9         3778           MOV     R13,R9
0D60 06FC4000     3779           ADD     R12,#040h
0D64 D4E00400     3780           MOV     R14,[R0+#04H]
0D68 D4F00600     3781           MOV     R15,[R0+#06H]
0D6C DA000000  R  3782           CALLS   SEG _strcpy,_strcpy
                  3783   ; me_comn.c  607                strcpy( pDest->BRXL, token[2] );
                  3784           ?LINE   607
0D70 F0C8         3785           MOV     R12,R8
0D72 F0D9         3786           MOV     R13,R9
0D74 06FC0800     3787           ADD     R12,#08h
0D78 D4E00800     3788           MOV     R14,[R0+#08H]
0D7C D4F00A00     3789           MOV     R15,[R0+#0AH]
0D80 DA000000  R  3790           CALLS   SEG _strcpy,_strcpy
                  3791   ; me_comn.c  608                strcpy( pDest->MCC, token[3] );
                  3792           ?LINE   608
0D84 F0C8         3793           MOV     R12,R8
0D86 F0D9         3794           MOV     R13,R9
0D88 06FC2000     3795           ADD     R12,#020h
0D8C D4E00C00     3796           MOV     R14,[R0+#0CH]
0D90 D4F00E00     3797           MOV     R15,[R0+#0EH]
0D94 DA000000  R  3798           CALLS   SEG _strcpy,_strcpy
                  3799   ; me_comn.c  609                strcpy( pDest->MNC, token[4] );
                  3800           ?LINE   609
0D98 F0C8         3801           MOV     R12,R8
0D9A F0D9         3802           MOV     R13,R9
0D9C 06FC2800     3803           ADD     R12,#028h
0DA0 D4E01000     3804           MOV     R14,[R0+#010H]
0DA4 D4F01200     3805           MOV     R15,[R0+#012H]
0DA8 DA000000  R  3806           CALLS   SEG _strcpy,_strcpy
                  3807   ; me_comn.c  610                strcpy( pDest->LAC, token[5] );
                  3808           ?LINE   610
0DAC F0C8         3809           MOV     R12,R8
0DAE F0D9         3810           MOV     R13,R9
0DB0 06FC4800     3811           ADD     R12,#048h
0DB4 D4E01400     3812           MOV     R14,[R0+#014H]
0DB8 D4F01600     3813           MOV     R15,[R0+#016H]
0DBC DA000000  R  3814           CALLS   SEG _strcpy,_strcpy
                  3815   ; me_comn.c  611        
                  3816   ; me_comn.c  612                strcpy( pDest->CELLID, token[6] );
                  3817           ?LINE   612
0DC0 F0C8         3818           MOV     R12,R8
0DC2 F0D9         3819           MOV     R13,R9
0DC4 06FC5000     3820           ADD     R12,#050h
0DC8 D4E01800     3821           MOV     R14,[R0+#018H]
0DCC D4F01A00     3822           MOV     R15,[R0+#01AH]
0DD0 DA000000  R  3823           CALLS   SEG _strcpy,_strcpy
                  3824   ; me_comn.c  613                strcpy( pDest->NCC, token[7] );
                  3825           ?LINE   613
0DD4 F0C8         3826           MOV     R12,R8
0DD6 F0D9         3827           MOV     R13,R9
0DD8 06FC3800     3828           ADD     R12,#038h
0DDC D4E01C00     3829           MOV     R14,[R0+#01CH]
0DE0 D4F01E00     3830           MOV     R15,[R0+#01EH]
0DE4 DA000000  R  3831           CALLS   SEG _strcpy,_strcpy
                  3832   ; me_comn.c  614                strcpy( pDest->BCC, token[8] );
                  3833           ?LINE   614
0DE8 F0C8         3834           MOV     R12,R8
0DEA F0D9         3835           MOV     R13,R9
0DEC 06FC1000     3836           ADD     R12,#010h
0DF0 D4E02000     3837           MOV     R14,[R0+#020H]
0DF4 D4F02200     3838           MOV     R15,[R0+#022H]
0DF8 DA000000  R  3839           CALLS   SEG _strcpy,_strcpy
                  3840   ; me_comn.c  615                strcpy( pDest->PWR, token[9] );
                  3841           ?LINE   615
0DFC F0C8         3842           MOV     R12,R8
0DFE F0D9         3843           MOV     R13,R9
0E00 06FC6800     3844           ADD     R12,#068h
0E04 D4E02400     3845           MOV     R14,[R0+#024H]
0E08 D4F02600     3846           MOV     R15,[R0+#026H]
0E0C DA000000  R  3847           CALLS   SEG _strcpy,_strcpy
                  3848   ; me_comn.c  616                strcpy( pDest->RXLev, token[10] );
                  3849           ?LINE   616
0E10 F0C8         3850           MOV     R12,R8
0E12 F0D9         3851           MOV     R13,R9
0E14 06FC1800     3852           ADD     R12,#018h
0E18 D4E02800     3853           MOV     R14,[R0+#028H]
0E1C D4F02A00     3854           MOV     R15,[R0+#02AH]
0E20 DA000000  R  3855           CALLS   SEG _strcpy,_strcpy
                  3856   ; me_comn.c  617                strcpy( pDest->C1, token[11] );
                  3857           ?LINE   617
0E24 F0C8         3858           MOV     R12,R8
0E26 F0D9         3859           MOV     R13,R9
0E28 06FC5800     3860           ADD     R12,#058h
0E2C D4E02C00     3861           MOV     R14,[R0+#02CH]
0E30 D4F02E00     3862           MOV     R15,[R0+#02EH]
0E34 DA000000  R  3863           CALLS   SEG _strcpy,_strcpy
                  3864   ; me_comn.c  618                
                  3865   ; me_comn.c  619                
                  3866   ; me_comn.c  620                if ( Status == ME_RS_SUCCESS )
                  3867           ?LINE   620
0E38 D4605A00     3868           MOV     R6,[R0+#05AH]
0E3C EA30CC0E  R  3869           JMPA    cc_NZ,_310
                  3870   ; me_comn.c  621                {
                  3871   ; me_comn.c  622                        strcpy( pDest->TCH, token[13] );
                  3872           ?LINE   622
0E40 F0C8         3873           MOV     R12,R8
0E42 F0D9         3874           MOV     R13,R9
0E44 06FC7800     3875           ADD     R12,#078h
0E48 D4E03400     3876           MOV     R14,[R0+#034H]
0E4C D4F03600     3877           MOV     R15,[R0+#036H]
0E50 DA000000  R  3878           CALLS   SEG _strcpy,_strcpy
                  3879   ; me_comn.c  623                        strcpy( pDest->TS, token[14] );
                  3880           ?LINE   623
0E54 F0C8         3881           MOV     R12,R8
0E56 F0D9         3882           MOV     R13,R9
0E58 06FC8800     3883           ADD     R12,#088h
0E5C D4E03800     3884           MOV     R14,[R0+#038H]
0E60 D4F03A00     3885           MOV     R15,[R0+#03AH]
0E64 DA000000  R  3886           CALLS   SEG _strcpy,_strcpy
                  3887   ; me_comn.c  624                        strcpy( pDest->TA, token[15] );
                  3888           ?LINE   624
0E68 F0C8         3889           MOV     R12,R8
0E6A F0D9         3890           MOV     R13,R9
0E6C 06FC7000     3891           ADD     R12,#070h
0E70 D4E03C00     3892           MOV     R14,[R0+#03CH]
0E74 D4F03E00     3893           MOV     R15,[R0+#03EH]
0E78 DA000000  R  3894           CALLS   SEG _strcpy,_strcpy
                  3895   ; me_comn.c  625                        strcpy( pDest->PWRLev, token[16] );
                  3896           ?LINE   625
0E7C F0C8         3897           MOV     R12,R8
0E7E F0D9         3898           MOV     R13,R9
0E80 06FC9000     3899           ADD     R12,#090h
0E84 D4E04000     3900           MOV     R14,[R0+#040H]
0E88 D4F04200     3901           MOV     R15,[R0+#042H]
0E8C DA000000  R  3902           CALLS   SEG _strcpy,_strcpy
                  3903   ; me_comn.c  626                        strcpy( pDest->TRXL, token[17] );
                  3904           ?LINE   626
0E90 F0C8         3905           MOV     R12,R8
0E92 F0D9         3906           MOV     R13,R9
0E94 06FC8000     3907           ADD     R12,#080h
0E98 D4E04400     3908           MOV     R14,[R0+#044H]
0E9C D4F04600     3909           MOV     R15,[R0+#046H]
0EA0 DA000000  R  3910           CALLS   SEG _strcpy,_strcpy
                  3911   ; me_comn.c  627                        strcpy( pDest->Q, token[18] );
                  3912           ?LINE   627
0EA4 F0C8         3913           MOV     R12,R8
0EA6 F0D9         3914           MOV     R13,R9
0EA8 06FC9800     3915           ADD     R12,#098h
0EAC D4E04800     3916           MOV     R14,[R0+#048H]
0EB0 D4F04A00     3917           MOV     R15,[R0+#04AH]
0EB4 DA000000  R  3918           CALLS   SEG _strcpy,_strcpy
                  3919   ; me_comn.c  628                        strcpy( pDest->Chmod, token[19] );
                  3920           ?LINE   628
0EB8 F0C8         3921           MOV     R12,R8
0EBA F0D9         3922           MOV     R13,R9
0EBC 06FCA000     3923           ADD     R12,#0A0h
0EC0 D4E04C00     3924           MOV     R14,[R0+#04CH]
0EC4 D4F04E00     3925           MOV     R15,[R0+#04EH]
0EC8 DA000000  R  3926           CALLS   SEG _strcpy,_strcpy
                  3927   ; me_comn.c  629                }
                  3928           ?LINE   629
0ECC              3929   _310:
                  3930   ; me_comn.c  630        
                  3931   ; me_comn.c  631                q += strlen( "^SMONC:" )+1;
                  3932           ?LINE   631
0ECC E6FC0000  R  3933           MOV     R12,#POF _276
0ED0 E6FD0000  R  3934           MOV     R13,#PAG _276
0ED4 DA000000  R  3935           CALLS   SEG _strlen,_strlen
0ED8 D4605000     3936           MOV     R6,[R0+#050H]
0EDC D4C05200     3937           MOV     R12,[R0+#052H]
0EE0 0861         3938           ADD     R6,#01h
0EE2 0064         3939           ADD     R6,R4
0EE4 C4605000     3940           MOV     [R0+#050H],R6
0EE8 C4C05200     3941           MOV     [R0+#052H],R12
                  3942   ; me_comn.c  632        
                  3943   ; me_comn.c  633                p = q;
                  3944   ; me_comn.c  634        
                  3945   ; me_comn.c  635                token[0] = strtok( p, "," );
                  3946           ?LINE   635
0EEC F0DC         3947           MOV     R13,R12
0EEE F0C6         3948           MOV     R12,R6
0EF0 E6FE0000  R  3949           MOV     R14,#POF _194
0EF4 E6FF0000  R  3950           MOV     R15,#PAG _194
0EF8 DA000000  R  3951           CALLS   SEG _strtok,_strtok
0EFC B840         3952           MOV     [R0],R4
0EFE C4500200     3953           MOV     [R0+#02H],R5
                  3954   ; me_comn.c  636                i = 0;
                  3955           ?LINE   636
0F02 E006         3956           MOV     R6,#00h
               R  3957           ?SYMB   'R6',$,100,6
                  3958   ; me_comn.c  637        
                  3959   ; me_comn.c  638                while ( token[i] != NULL && i < 9 )
                  3960           ?LINE   638
0F04 0D0F         3961           JMPR    cc_UC,_312
0F06              3962   _311:
                  3963   ; me_comn.c  639                {
                  3964   ; me_comn.c  640                        i++;
                  3965           ?LINE   640
0F06 0861         3966           ADD     R6,#01h
               R  3967           ?SYMB   '',$,102,6
               R  3968           ?SYMB   'R6',$,100,6
                  3969   ; me_comn.c  641                        token[i] = strtok( NULL, "," );
                  3970           ?LINE   641
0F08 E00C         3971           MOV     R12,#00h
0F0A E00D         3972           MOV     R13,#00h
0F0C E6FE0000  R  3973           MOV     R14,#POF _194
0F10 E6FF0000  R  3974           MOV     R15,#PAG _194
0F14 DA000000  R  3975           CALLS   SEG _strtok,_strtok
0F18 F0C6         3976           MOV     R12,R6
0F1A 5C2C         3977           SHL     R12,#02h
0F1C 00C0         3978           ADD     R12,R0
0F1E B84C         3979           MOV     [R12],R4
0F20 C45C0200     3980           MOV     [R12+#02H],R5
                  3981           ?LINE   638
0F24              3982   _312:
0F24 F0C6         3983           MOV     R12,R6
0F26 5C2C         3984           SHL     R12,#02h
0F28 00C0         3985           ADD     R12,R0
0F2A A8DC         3986           MOV     R13,[R12]
0F2C D4EC0200     3987           MOV     R14,[R12+#02H]
0F30 70DE         3988           OR      R13,R14
0F32 2D03         3989           JMPR    cc_Z,_313
0F34 46F60900     3990           CMP     R6,#09h
0F38 CDE6         3991           JMPR    cc_SLT,_311
0F3A              3992   _313:
               R  3993           ?SYMB   '',$,102,6
                  3994   ; me_comn.c  642                }
                  3995   ; me_comn.c  643        
                  3996   ; me_comn.c  644                strcpy( pDest->BSIC, token[4] );
                  3997           ?LINE   644
0F3A F0C8         3998           MOV     R12,R8
0F3C F0D9         3999           MOV     R13,R9
0F3E 06FC3000     4000           ADD     R12,#030h
0F42 D4E01000     4001           MOV     R14,[R0+#010H]
0F46 D4F01200     4002           MOV     R15,[R0+#012H]
0F4A DA000000  R  4003           CALLS   SEG _strcpy,_strcpy
                  4004   ; me_comn.c  645                strcpy( pDest->C2, token[8] );
                  4005           ?LINE   645
0F4E F0C8         4006           MOV     R12,R8
0F50 F0D9         4007           MOV     R13,R9
0F52 06FC6000     4008           ADD     R12,#060h
0F56 D4E02000     4009           MOV     R14,[R0+#020H]
0F5A D4F02200     4010           MOV     R15,[R0+#022H]
0F5E DA000000  R  4011           CALLS   SEG _strcpy,_strcpy
               R  4012           ?SYMB   '',$,102,1
                  4013   ; me_comn.c  646        
                  4014   ; me_comn.c  647                return sizeof( SCELL_INFO );
                  4015           ?LINE   647
0F62 E6F4A800     4016           MOV     R4,#0A8h
                  4017   ; me_comn.c  648        }
                  4018           ?LINE   648
0F66              4019   _314:
               R  4020           ?SYMB   '',$,102,7
0F66 06F05400     4021           ADD     R0,#054h
               R  4022           ?SYMB   '',$,96,6
0F6A 9860         4023           MOV     R6,[R0+]
               R  4024           ?SYMB   '',$,96,4
0F6C 9880         4025           MOV     R8,[R0+]
               R  4026           ?SYMB   '',$,96,2
0F6E 9890         4027           MOV     R9,[R0+]
               R  4028           ?SYMB   '',$,96,0
0F70 DB00         4029           RETS
                  4030   _ServCell_Decode        ENDP
               R  4031           ?SYMB   '',$,17,648
                  4032   ; me_comn.c  649        
                  4033   ; me_comn.c  650        int NeibCell_Decode( PNCELL_INFO pDest, char* pSource )
                  4034   ; me_comn.c  651        {
                  4035           ?LINE   651
                  4036           PUBLIC  _NeibCell_Decode
               R  4037           ?SYMB   'NeibCell_Decode',_NeibCell_Decode,37,16
                  4038           ?SYMB   '',651,8,34
                  4039           ?SYMB   'NCELL_INFO',550,13,585
                  4040   _NeibCell_Decode        PROC    FAR
                  4041           ?SYMB   '',0340H,95,0
0F72 8890         4042           MOV     [-R0],R9
               R  4043           ?SYMB   '',$,96,2
0F74 8880         4044           MOV     [-R0],R8
               R  4045           ?SYMB   '',$,96,4
0F76 8860         4046           MOV     [-R0],R6
               R  4047           ?SYMB   '',$,96,6
0F78 26F02200     4048           SUB     R0,#022h
               R  4049           ?SYMB   '',$,96,40
0F7C F06D         4050           MOV     R6,R13
0F7E F09C         4051           MOV     R9,R12
                  4052   ; Locals:
                  4053   ;     token = offset 0
                  4054   ; 
                  4055   ; Statics:
                  4056   ; 
                  4057   ; CSEs:
                  4058   ;     p = R12R13
                  4059   ;     i = R12
                  4060   ;     j = R8
                  4061   ;     j * 32 = offset 32
                  4062   ;     pDest = R9R6
                  4063   ;     pSource = R14R15
                  4064   ; 
                  4065           ?SYMB   'pDest',1,99,553
                  4066           ?SYMB   'pSource',4,99,270
                  4067           ?SYMB   'p',3,98,270
                  4068           ?SYMB   '',024b010eH,5,586
                  4069           ?SYMB   '',16,47,587
                  4070           ?SYMB   '',0,30,0
                  4071           ?SYMB   '',7,49,0
                  4072           ?SYMB   'token',6,98,586
               R  4073           ?SYMB   '-28',$,101,6
                  4074           ?SYMB   'i',2,98,16
                  4075           ?SYMB   'j',5,98,16
               R  4076           ?SYMB   'R14R15',$,100,4
               R  4077           ?SYMB   'R9R6',$,100,1
                  4078   ; me_comn.c  652                char* p;
                  4079   ; me_comn.c  653                char* token[8];
                  4080   ; me_comn.c  654                int i = 0, j = 0;
                  4081           ?LINE   654
0F80 E008         4082           MOV     R8,#00h
               R  4083           ?SYMB   'R8',$,100,5
                  4084   ; me_comn.c  655        
                  4085   ; me_comn.c  656                p = strchr( pSource, '\r');
                  4086           ?LINE   656
0F82 F0CE         4087           MOV     R12,R14
0F84 F0DF         4088           MOV     R13,R15
0F86 E0DE         4089           MOV     R14,#0Dh
               R  4090           ?SYMB   '',$,102,4
0F88 DA000000  R  4091           CALLS   SEG _strchr,_strchr
0F8C F0C4         4092           MOV     R12,R4
0F8E F0D5         4093           MOV     R13,R5
               R  4094           ?SYMB   'R12R13',$,100,3
                  4095   ; me_comn.c  657        
                  4096   ; me_comn.c  658                if ( p == NULL )
                  4097           ?LINE   658
0F90 F0ED         4098           MOV     R14,R13
0F92 70EC         4099           OR      R14,R12
0F94 2D04         4100           JMPR    cc_Z,_336
                  4101   ; me_comn.c  659                        return -1;
                  4102   ; me_comn.c  660        
                  4103   ; me_comn.c  661                p += 2;
                  4104           ?LINE   661
0F96 08C2         4105           ADD     R12,#02h
               R  4106           ?SYMB   '',$,102,3
               R  4107           ?SYMB   'R12R13',$,100,3
                  4108   ; me_comn.c  662        
                  4109   ; me_comn.c  663                if ( p == NULL )
                  4110           ?LINE   663
0F98 F0ED         4111           MOV     R14,R13
0F9A 70EC         4112           OR      R14,R12
0F9C 3D04         4113           JMPR    cc_NZ,_337
                  4114   ; me_comn.c  664                        return -1;
                  4115           ?LINE   664
0F9E              4116   _336:
               R  4117           ?SYMB   '',$,102,1
               R  4118           ?SYMB   '',$,102,5
               R  4119           ?SYMB   '',$,102,3
0F9E E6F4FFFF     4120           MOV     R4,#0FFFFh
0FA2 EA008410  R  4121           JMPA    cc_UC,_344
0FA6              4122   _337:
               R  4123           ?SYMB   'R8',$,100,5
               R  4124           ?SYMB   'R12R13',$,100,3
               R  4125           ?SYMB   'R9R6',$,100,1
                  4126   ; me_comn.c  665        
                  4127   ; me_comn.c  666                token[0] = strtok( p, " \r\n" );
                  4128           ?LINE   666
0FA6 E6FE0000  R  4129           MOV     R14,#POF _315
0FAA E6FF0000  R  4130           MOV     R15,#PAG _315
0FAE DA000000  R  4131           CALLS   SEG _strtok,_strtok
               R  4132           ?SYMB   '',$,102,3
0FB2 B840         4133           MOV     [R0],R4
0FB4 C4500200     4134           MOV     [R0+#02H],R5
                  4135   ; me_comn.c  667                while ( j < 6 )
                  4136           ?LINE   667
0FB8 EA007C10  R  4137           JMPA    cc_UC,_343
0FBC              4138   _338:
                  4139   ; me_comn.c  668                {
                  4140   ; me_comn.c  669                        if ( j > 0 )
                  4141           ?LINE   669
0FBC 4880         4142           CMP     R8,#00h
0FBE BD0B         4143           JMPR    cc_SLE,_339
                  4144   ; me_comn.c  670                                token[0] = strtok( NULL, " \r\n" );
                  4145           ?LINE   670
0FC0 E00C         4146           MOV     R12,#00h
0FC2 E00D         4147           MOV     R13,#00h
0FC4 E6FE0000  R  4148           MOV     R14,#POF _315
0FC8 E6FF0000  R  4149           MOV     R15,#PAG _315
0FCC DA000000  R  4150           CALLS   SEG _strtok,_strtok
0FD0 B840         4151           MOV     [R0],R4
0FD2 C4500200     4152           MOV     [R0+#02H],R5
0FD6              4153   _339:
                  4154   ; me_comn.c  671                        i = 0;
                  4155           ?LINE   671
0FD6 E00C         4156           MOV     R12,#00h
               R  4157           ?SYMB   'R12',$,100,2
                  4158   ; me_comn.c  672        
                  4159   ; me_comn.c  673                        while ( token[i] != NULL && i < 7 )
                  4160           ?LINE   673
0FD8 0D12         4161           JMPR    cc_UC,_341
0FDA              4162   _340:
                  4163   ; me_comn.c  674                        {
                  4164   ; me_comn.c  675                                i++;
                  4165           ?LINE   675
0FDA 08C1         4166           ADD     R12,#01h
               R  4167           ?SYMB   '',$,102,2
               R  4168           ?SYMB   'R12',$,100,2
                  4169   ; me_comn.c  676                                token[i] = strtok( NULL, " \r\n" );
                  4170           ?LINE   676
0FDC 88C0         4171           MOV     [-R0],R12
               R  4172           ?SYMB   '',$,96,42
0FDE E00C         4173           MOV     R12,#00h
               R  4174           ?SYMB   '',$,102,2
0FE0 E00D         4175           MOV     R13,#00h
0FE2 E6FE0000  R  4176           MOV     R14,#POF _315
0FE6 E6FF0000  R  4177           MOV     R15,#PAG _315
0FEA DA000000  R  4178           CALLS   SEG _strtok,_strtok
0FEE A8C0         4179           MOV     R12,[R0]
0FF0 5C2C         4180           SHL     R12,#02h
0FF2 00C0         4181           ADD     R12,R0
0FF4 C44C0200     4182           MOV     [R12+#02H],R4
0FF8 C45C0400     4183           MOV     [R12+#04H],R5
0FFC 98C0         4184           MOV     R12,[R0+]
               R  4185           ?SYMB   '',$,96,40
               R  4186           ?SYMB   'R12',$,100,2
                  4187           ?LINE   673
0FFE              4188   _341:
0FFE F0DC         4189           MOV     R13,R12
1000 5C2D         4190           SHL     R13,#02h
1002 00D0         4191           ADD     R13,R0
1004 A8ED         4192           MOV     R14,[R13]
1006 D4FD0200     4193           MOV     R15,[R13+#02H]
100A 70EF         4194           OR      R14,R15
100C 2D02         4195           JMPR    cc_Z,_342
100E 48C7         4196           CMP     R12,#07h
1010 CDE4         4197           JMPR    cc_SLT,_340
1012              4198   _342:
               R  4199           ?SYMB   '',$,102,2
                  4200   ; me_comn.c  677                        }
                  4201   ; me_comn.c  678        
                  4202   ; me_comn.c  679                        strcpy( pDest[j].BCH, token[0] );
                  4203           ?LINE   679
1012 F0C8         4204           MOV     R12,R8
1014 5C5C         4205           SHL     R12,#05h
1016 C4C02000     4206           MOV     [R0+#020H],R12
101A F0EC         4207           MOV     R14,R12
101C F0C9         4208           MOV     R12,R9
101E F0D6         4209           MOV     R13,R6
1020 00CE         4210           ADD     R12,R14
1022 A8E0         4211           MOV     R14,[R0]
1024 D4F00200     4212           MOV     R15,[R0+#02H]
1028 DA000000  R  4213           CALLS   SEG _strcpy,_strcpy
                  4214   ; me_comn.c  680                        strcpy( pDest[j].BRXL, token[2] );
                  4215           ?LINE   680
102C D4E02000     4216           MOV     R14,[R0+#020H]
1030 F0C9         4217           MOV     R12,R9
1032 F0D6         4218           MOV     R13,R6
1034 00CE         4219           ADD     R12,R14
1036 06FC0800     4220           ADD     R12,#08h
103A D4E00800     4221           MOV     R14,[R0+#08H]
103E D4F00A00     4222           MOV     R15,[R0+#0AH]
1042 DA000000  R  4223           CALLS   SEG _strcpy,_strcpy
                  4224   ; me_comn.c  681                        strcpy( pDest[j].C1, token[6] );
                  4225           ?LINE   681
1046 D4E02000     4226           MOV     R14,[R0+#020H]
104A F0C9         4227           MOV     R12,R9
104C F0D6         4228           MOV     R13,R6
104E 00CE         4229           ADD     R12,R14
1050 06FC1000     4230           ADD     R12,#010h
1054 D4E01800     4231           MOV     R14,[R0+#018H]
1058 D4F01A00     4232           MOV     R15,[R0+#01AH]
105C DA000000  R  4233           CALLS   SEG _strcpy,_strcpy
                  4234   ; me_comn.c  682                        strcpy( pDest[j].C2, token[7] );
                  4235           ?LINE   682
1060 D4E02000     4236           MOV     R14,[R0+#020H]
1064 F0C9         4237           MOV     R12,R9
1066 F0D6         4238           MOV     R13,R6
1068 00CE         4239           ADD     R12,R14
106A 06FC1800     4240           ADD     R12,#018h
106E D4E01C00     4241           MOV     R14,[R0+#01CH]
1072 D4F01E00     4242           MOV     R15,[R0+#01EH]
1076 DA000000  R  4243           CALLS   SEG _strcpy,_strcpy
                  4244   ; me_comn.c  683                        j++;
                  4245           ?LINE   683
107A 0881         4246           ADD     R8,#01h
               R  4247           ?SYMB   '',$,102,5
               R  4248           ?SYMB   'R8',$,100,5
                  4249           ?LINE   667
107C              4250   _343:
107C 4886         4251           CMP     R8,#06h
107E CD9E         4252           JMPR    cc_SLT,_338
                  4253   ; me_comn.c  684                }
                  4254   ; me_comn.c  685        
                  4255   ; me_comn.c  686                return 6*sizeof( NCELL_INFO );
                  4256           ?LINE   686
1080 E6F4C000     4257           MOV     R4,#0C0h
                  4258   ; me_comn.c  687        }
                  4259           ?LINE   687
1084              4260   _344:
               R  4261           ?SYMB   '',$,102,1
               R  4262           ?SYMB   '',$,102,5
               R  4263           ?SYMB   '',$,102,6
1084 06F02200     4264           ADD     R0,#022h
               R  4265           ?SYMB   '',$,96,6
1088 9860         4266           MOV     R6,[R0+]
               R  4267           ?SYMB   '',$,96,4
108A 9880         4268           MOV     R8,[R0+]
               R  4269           ?SYMB   '',$,96,2
108C 9890         4270           MOV     R9,[R0+]
               R  4271           ?SYMB   '',$,96,0
108E DB00         4272           RETS
                  4273   _NeibCell_Decode        ENDP
               R  4274           ?SYMB   '',$,17,687
                  4275   ME_COMN_2_PR    ENDS
                  4276   
                  4277   ME_COMN_3_CO    SECTION DATA WORD PUBLIC 'CROM'
0000 00           4278   _196    DB      00h
0001 2200         4279   _195    DB      022h,00h
0003 2B435042     4280   _223    DB      02Bh,043h,050h,042h,04Eh,03Ah,020h,00h
0007 4E3A2000    
000B 0D0A4D45     4281   _19     DB      0Dh,0Ah,04Dh,045h,020h,072h,065h,071h,075h,065h
000F 20726571    
0013 7565        
0015 7374206E     4282           DB      073h,074h,020h,06Eh,065h,077h,020h,06Dh,065h,06Dh
0019 6577206D    
001D 656D        
001F 6F72793A     4283           DB      06Fh,072h,079h,03Ah,020h,025h,064h,00h
0023 20256400    
0027 2000         4284   _277    DB      020h,00h
0029 0D0A6361     4285   _21     DB      0Dh,0Ah,063h,061h,06Ch,06Ch,020h,06Dh,065h,06Dh
002D 6C6C206D    
0031 656D        
0033 63707920     4286           DB      063h,070h,079h,020h,069h,06Eh,020h,04Dh,045h,05Fh
0037 696E204D    
003B 455F        
003D 4D656D41     4287           DB      04Dh,065h,06Dh,041h,073h,073h,069h,067h,06Eh,020h
0041 73736967    
0045 6E20        
0047 656E6400     4288           DB      065h,06Eh,064h,00h
004B 2800         4289   _242    DB      028h,00h
004D 2C00         4290   _194    DB      02Ch,00h
004F 0D0A4D45     4291   _16     DB      0Dh,0Ah,04Dh,045h,020h,04Dh,065h,06Dh,06Fh,072h
0053 204D656D    
0057 6F72        
0059 79206F66     4292           DB      079h,020h,06Fh,066h,066h,073h,065h,074h,020h,03Dh
005D 66736574    
0061 203D        
0063 20256400     4293           DB      020h,025h,064h,00h
0067 0D0A4D45     4294   _17     DB      0Dh,0Ah,04Dh,045h,020h,04Dh,065h,06Dh,06Fh,072h
006B 204D656D    
006F 6F72        
0071 79206461     4295           DB      079h,020h,064h,061h,074h,061h,06Ch,065h,06Eh,020h
0075 74616C65    
0079 6E20        
007B 3D202564     4296           DB      03Dh,020h,025h,064h,00h
007F 00          
0080 2B435042     4297   _222    DB      02Bh,043h,050h,042h,046h,03Ah,020h,00h
0084 463A2000    
0088 0D0A4D45     4298   _4      DB      0Dh,0Ah,04Dh,045h,020h,06Dh,061h,06Ch,06Ch,06Fh
008C 206D616C    
0090 6C6F        
0092 63206D65     4299           DB      063h,020h,06Dh,065h,06Dh,06Fh,072h,079h,03Ah,020h
0096 6D6F7279    
009A 3A20        
009C 256400       4300           DB      025h,064h,00h
009F 200D0A00     4301   _315    DB      020h,0Dh,0Ah,00h
00A3 2B435042     4302   _221    DB      02Bh,043h,050h,042h,050h,03Ah,020h,00h
00A7 503A2000    
00AB 5E534D4F     4303   _276    DB      05Eh,053h,04Dh,04Fh,04Eh,043h,03Ah,00h
00AF 4E433A00    
00B3 0D0A6361     4304   _20     DB      0Dh,0Ah,063h,061h,06Ch,06Ch,020h,06Dh,065h,06Dh
00B7 6C6C206D    
00BB 656D        
00BD 63707920     4305           DB      063h,070h,079h,020h,069h,06Eh,020h,04Dh,045h,05Fh
00C1 696E204D    
00C5 455F        
00C7 4D656D41     4306           DB      04Dh,065h,06Dh,041h,073h,073h,069h,067h,06Eh,020h
00CB 73736967    
00CF 6E20        
00D1 62656769     4307           DB      062h,065h,067h,069h,06Eh,00h
00D5 6E00        
00D7 0D0A4D45     4308   _18     DB      0Dh,0Ah,04Dh,045h,020h,04Dh,065h,06Dh,06Fh,072h
00DB 204D656D    
00DF 6F72        
00E1 79206C65     4309           DB      079h,020h,06Ch,065h,06Eh,020h,03Dh,020h,025h,064h
00E5 6E203D20    
00E9 2564        
00EB 00           4310           DB      00h
00EC 2B434C43     4311   _193    DB      02Bh,043h,04Ch,043h,043h,03Ah,020h,00h
00F0 433A2000    
00F4 2B435042     4312   _220    DB      02Bh,043h,050h,042h,052h,03Ah,020h,00h
00F8 523A2000    
00FC 0D0A6C65     4313   _22     DB      0Dh,0Ah,06Ch,065h,061h,076h,065h,020h,04Dh,045h
0100 61766520    
0104 4D45        
0106 5F4D656D     4314           DB      05Fh,04Dh,065h,06Dh,041h,073h,073h,069h,067h,06Eh
010A 41737369    
010E 676E        
0110 00           4315           DB      00h
                  4316   ME_COMN_3_CO    ENDS
                  4317   
                  4318   C166_BSS        SECTION DATA WORD GLOBAL 'CINITROM'
0000 0600         4319           DW      06h
0002 00000000  R  4320           DPPTR   ME_COMN_1_FB_ENTRY
0006 F003         4321           DW      03F0h
                  4322   C166_BSS        ENDS
                  4323   
                  4324           EXTERN  _strchr:FAR
                  4325           EXTERN  _strlen:FAR
                  4326           EXTERN  _os_malloc:FAR
                  4327           EXTERN  _atoi:FAR
                  4328           EXTERN  _os_realloc:FAR
                  4329           EXTERN  _os_free:FAR
                  4330           EXTERN  _strcpy:FAR
                  4331           EXTERN  _MultiByteToWideChar:FAR
                  4332           EXTERN  _memset:FAR
                  4333           EXTERN  _WideCharToMultiByte:FAR
                  4334           EXTERN  _strtok:FAR
                  4335           EXTERN  _Analyse_PDUCode2WideChar:FAR
                  4336           EXTERN  _debugex_nonl:FAR
                  4337           EXTERN  _strstr:FAR
                  4338           EXTERN  _Analyse_WideChar2PDUCode:FAR
                  4339           EXTERN  _memcpy:FAR
                  4340           REGDEF  R0-R15
                  4341           END

total errors: 0, warnings: 0

