 LOC CODE        LINE   SOURCELINE

                     1   ; TASKING C166/ST10 C compiler v7.5r5 Build 519.1.2 SN ????????
                     2   ; options: -c -g -AF -Be -xmfp -e -s -Ml -znocustack -OaBcdEFghjkLnopQrStUwX -T0
                     3   ;          -w68 -w130 -w150 -w200 -w196 -D_DEBUG -BZc166sv1sp -BZc166sv1cp
                     4   ;          -BZc166sv1sp2 -BZcpu_reti_int -BZc166sv1ext -BK -BZno_cpu_jmpra_cache
                     5   ;          -BM -BZc166sv1div -DPRJ_UW_LOG -mPR=0,4000 -I./include -I.
                     6   ;          -Id:/vme_new/vmesdk/include -D_C166_ARCH=1 -D_DEBUG -I -I.
                     7   $DEBUG
                     8   $NOLOCALS
                     9   $EXTEND
                    10   $NOMOD166
                    11   $STDNAMES(reg.def)
                    12   $SEGMENTED
                    13   $CASE
                    14   $MODEL(LARGE)
                    15   $CHECKMULDIV
                    16   $CHECKCPU21
                    17   $CHECKC166SV1SP
                    18   $CHECKC166SV1CP
                    19   $CHECKC166SV1DIV
                    20   $CHECKC166SV1EXTSEQ
                    21   $CHECKC166SV1SP2
                    22   $CHECKCPURETIINT
                    23           NAME    ME_WND_C
                    24           ASSUME  DPP3:SYSTEM
                    25           ?SYMB   'me_wnd.c',32,80,16
                    26           ?SYMB   '',1,82,0
                    27           ?SYMB   '80166',0,84,0
                    28           ?SYMB   '',0,81,0
                    29           ?SYMB   'void',00H,45,1
                    30           ?SYMB   'char',080000H,45,2
                    31           ?SYMB   'unsigned char',080000H,45,3
                    32           ?SYMB   'short',0100000H,45,4
                    33           ?SYMB   'unsigned short',0100000H,45,5
                    34           ?SYMB   'long',0200000H,45,6
                    35           ?SYMB   'unsigned long',0200000H,45,7
                    36           ?SYMB   'float',0200000H,45,10
                    37           ?SYMB   'double',0400000H,45,11
                    38           ?SYMB   'int',0100000H,45,16
                    39           ?SYMB   'unsigned int',0100000H,45,18
                    40           ?SYMB   'bit',010000H,7,256
                    41           ?SYMB   'me_wnd.c',0,29,1
                    42           ?SYMB   '',0,86,1
                    43   ; me_wnd.c    1 #include "string.h"
                    44           ?SYMB   './include\string.h',0,29,2
                    45           ?SYMB   '',0,86,2
                    46           ?SYMB   'size_t',18,13,257
                    47           ?SYMB   '',0,86,1
                    48   ; me_wnd.c    2 #include "window.h"
                    49           ?SYMB   './include\window.h',0,29,2
                    50           ?SYMB   '',0,86,2
                    51           ?SYMB   './include\hpdef.h',0,29,3
                    52           ?SYMB   '',0,86,3
                    53           ?SYMB   'BOOL',16,13,258
                    54           ?SYMB   'BYTE',3,13,259
                    55           ?SYMB   'WORD',5,13,260
                    56           ?SYMB   'IWORD',4,13,261
                    57           ?SYMB   'SHORT',4,13,262
                    58           ?SYMB   'UINT',18,13,263
                    59           ?SYMB   'DWORD',7,13,264
                    60           ?SYMB   '',01a0002H,38,266
                    61           ?SYMB   'LPSTR',266,13,267
                    62           ?SYMB   '',01a0001H,38,269
                    63           ?SYMB   'HANDLE',269,13,270
                    64           ?SYMB   '',0,86,2
                    65           ?SYMB   './include\hp_diag.h',0,29,3
                    66           ?SYMB   '',0,86,3
                    67           ?SYMB   '',0,86,2
                    68           ?SYMB   './include\hp_kern.h',0,29,3
                    69           ?SYMB   '',0,86,3
                    70           ?SYMB   './include\hpdef.h',0,29,4
                    71           ?SYMB   '',0,86,4
                    72           ?SYMB   '',0,86,3
                    73           ?SYMB   'tid_t',16,13,271
                    74           ?SYMB   'pid_t',16,13,272
                    75           ?SYMB   'm_mutex',0,40,273
                    76           ?SYMB   'm_lock',0,23,16
                    77           ?SYMB   'm_wait',16,23,16
                    78           ?SYMB   'm_taskid',32,23,4
                    79           ?SYMB   'm_count',48,23,4
                    80           ?SYMB   'm_flag',64,23,4
                    81           ?SYMB   'm_unused',80,23,4
                    82           ?SYMB   '',96,18,0
                    83           ?SYMB   '',01a0111H,38,275
                    84           ?SYMB   'PMUTEX',275,13,276
                    85           ?SYMB   'OSHANDLE',269,13,277
                    86           ?SYMB   'sysclock_t',7,13,278
                    87           ?SYMB   'HGLOBAL',269,13,279
                    88           ?SYMB   'T$1',0,40,280
                    89           ?SYMB   'StartAddr',0,23,7
                    90           ?SYMB   'initSize',32,23,7
                    91           ?SYMB   'FreeSize',64,23,7
                    92           ?SYMB   '',96,18,0
                    93           ?SYMB   'HeapInfo',280,13,281
                    94           ?SYMB   'HLOCAL',269,13,282
                    95           ?SYMB   '',0,86,2
                    96           ?SYMB   'LONG',6,13,283
                    97           ?SYMB   'HINSTANCE__',0,40,284
                    98           ?SYMB   'unused',0,23,16
                    99           ?SYMB   '',16,18,0
                   100           ?SYMB   '',01a011cH,38,286
                   101           ?SYMB   'HINSTANCE',286,13,287
                   102           ?SYMB   '_SYSTEMTIME',0,40,288
                   103           ?SYMB   'wYear',0,23,260
                   104           ?SYMB   'wMonth',16,23,260
                   105           ?SYMB   'wDayOfWeek',32,23,260
                   106           ?SYMB   'wDay',48,23,260
                   107           ?SYMB   'wHour',64,23,260
                   108           ?SYMB   'wMinute',80,23,260
                   109           ?SYMB   'wSecond',96,23,260
                   110           ?SYMB   'wMilliseconds',112,23,260
                   111           ?SYMB   '',128,18,0
                   112           ?SYMB   '',01a0120H,38,290
                   113           ?SYMB   'PSYSTEMTIME',290,13,291
                   114           ?SYMB   'SYSTEMTIME',288,13,292
                   115           ?SYMB   '',01260002H,5,293
                   116           ?SYMB   '',16,47,294
                   117           ?SYMB   '',0,30,0
                   118           ?SYMB   '',31,49,0
                   119           ?SYMB   '_TIME_ZONE_INFORMATION',0,40,295
                   120           ?SYMB   'Bias',0,23,283
                   121           ?SYMB   'StandardName',32,23,293
                   122           ?SYMB   'StandardDate',288,23,292
                   123           ?SYMB   'StandardBias',416,23,283
                   124           ?SYMB   'DaylightName',448,23,293
                   125           ?SYMB   'DaylightDate',704,23,292
                   126           ?SYMB   'DaylightBias',832,23,283
                   127           ?SYMB   '',864,18,0
                   128           ?SYMB   '',01a0127H,38,297
                   129           ?SYMB   'PTIME_ZONE_INFORMATION',297,13,298
                   130           ?SYMB   'TIME_ZONE_INFORMATION',295,13,299
                   131           ?SYMB   'PCSTR',266,13,300
                   132           ?SYMB   'HRSRC__',0,40,301
                   133           ?SYMB   'unused',0,23,16
                   134           ?SYMB   '',16,18,0
                   135           ?SYMB   '',01a012dH,38,303
                   136           ?SYMB   'HRSRC',303,13,304
                   137           ?SYMB   'PSTR',266,13,305
                   138           ?SYMB   'WCHAR',5,13,306
                   139           ?SYMB   'LPCSTR',266,13,307
                   140           ?SYMB   '',01a0132H,38,309
                   141           ?SYMB   'LPWSTR',309,13,310
                   142           ?SYMB   'LPCWSTR',309,13,311
                   143           ?SYMB   '',01a0102H,38,313
                   144           ?SYMB   'LPBOOL',313,13,314
                   145           ?SYMB   'COLORREF',264,13,315
                   146           ?SYMB   'LPCTSTR',267,13,316
                   147           ?SYMB   'HDC__',0,40,317
                   148           ?SYMB   'unused',0,23,16
                   149           ?SYMB   '',16,18,0
                   150           ?SYMB   '',01a013dH,38,319
                   151           ?SYMB   'HDC',319,13,320
                   152           ?SYMB   'T$2',0,40,321
                   153           ?SYMB   'cbSize',0,23,16
                   154           ?SYMB   'lpszDocName',16,23,307
                   155           ?SYMB   'lpszOutput',48,23,307
                   156           ?SYMB   'lpszDatatype',80,23,307
                   157           ?SYMB   'fwType',112,23,264
                   158           ?SYMB   '',144,18,0
                   159           ?SYMB   'DOCINFO',321,13,322
                   160           ?SYMB   'tagRECT',0,40,323
                   161           ?SYMB   'left',0,23,283
                   162           ?SYMB   'top',32,23,283
                   163           ?SYMB   'right',64,23,283
                   164           ?SYMB   'bottom',96,23,283
                   165           ?SYMB   '',128,18,0
                   166           ?SYMB   '',01a0143H,38,325
                   167           ?SYMB   'PRECT',325,13,326
                   168           ?SYMB   'tagPOINT',0,40,327
                   169           ?SYMB   'x',0,23,283
                   170           ?SYMB   'y',32,23,283
                   171           ?SYMB   '',64,18,0
                   172           ?SYMB   '',01a0147H,38,329
                   173           ?SYMB   'PPOINT',329,13,330
                   174           ?SYMB   'tagSIZE',0,40,331
                   175           ?SYMB   'cx',0,23,283
                   176           ?SYMB   'cy',32,23,283
                   177           ?SYMB   '',64,18,0
                   178           ?SYMB   '',01a014bH,38,333
                   179           ?SYMB   'PSIZE',333,13,334
                   180           ?SYMB   'RECT',323,13,335
                   181           ?SYMB   'HGDIOBJ',269,13,336
                   182           ?SYMB   'HPEN__',0,40,337
                   183           ?SYMB   'unused',0,23,16
                   184           ?SYMB   '',16,18,0
                   185           ?SYMB   '',01a0151H,38,339
                   186           ?SYMB   'HPEN',339,13,340
                   187           ?SYMB   'POINT',327,13,341
                   188           ?SYMB   'tagLOGPEN',0,40,342
                   189           ?SYMB   'lopnStyle',0,23,263
                   190           ?SYMB   'lopnWidth',16,23,341
                   191           ?SYMB   'lopnColor',80,23,315
                   192           ?SYMB   '',112,18,0
                   193           ?SYMB   'LOGPEN',342,13,343
                   194           ?SYMB   'HBRUSH__',0,40,344
                   195           ?SYMB   'unused',0,23,16
                   196           ?SYMB   '',16,18,0
                   197           ?SYMB   '',01a0158H,38,346
                   198           ?SYMB   'HBRUSH',346,13,347
                   199           ?SYMB   'tagLOGBRUSH',0,40,348
                   200           ?SYMB   'lbStyle',0,23,263
                   201           ?SYMB   'lbColor',16,23,315
                   202           ?SYMB   'lbHatch',48,23,283
                   203           ?SYMB   '',80,18,0
                   204           ?SYMB   'LOGBRUSH',348,13,349
                   205           ?SYMB   'PATTERN',349,13,350
                   206           ?SYMB   'HBITMAP__',0,40,351
                   207           ?SYMB   'unused',0,23,16
                   208           ?SYMB   '',16,18,0
                   209           ?SYMB   '',01a015fH,38,353
                   210           ?SYMB   'HBITMAP',353,13,354
                   211           ?SYMB   'HRGN__',0,40,355
                   212           ?SYMB   'unused',0,23,16
                   213           ?SYMB   '',16,18,0
                   214           ?SYMB   '',01a0163H,38,357
                   215           ?SYMB   'HRGN',357,13,358
                   216           ?SYMB   'HFONT__',0,40,359
                   217           ?SYMB   'unused',0,23,16
                   218           ?SYMB   '',16,18,0
                   219           ?SYMB   '',01a0167H,38,361
                   220           ?SYMB   'HFONT',361,13,362
                   221           ?SYMB   'tagLOGFONT',0,40,363
                   222           ?SYMB   'lfHeight',0,23,283
                   223           ?SYMB   'lfWidth',32,23,283
                   224           ?SYMB   'lfEscapement',64,23,283
                   225           ?SYMB   'lfOrientation',96,23,283
                   226           ?SYMB   'lfWeight',128,23,283
                   227           ?SYMB   'lfItalic',160,23,259
                   228           ?SYMB   'lfUnderline',168,23,259
                   229           ?SYMB   'lfStrikeOut',176,23,259
                   230           ?SYMB   'lfCharSet',184,23,259
                   231           ?SYMB   'lfOutPrecision',192,23,259
                   232           ?SYMB   'lfClipPrecision',200,23,259
                   233           ?SYMB   'lfQuality',208,23,259
                   234           ?SYMB   'lfPitchAndFamily',216,23,259
                   235           ?SYMB   'lfFaceName',224,23,293
                   236           ?SYMB   '',480,18,0
                   237           ?SYMB   'LOGFONT',363,13,364
                   238           ?SYMB   'tagTEXTMETRIC',0,40,365
                   239           ?SYMB   'tmHeight',0,23,283
                   240           ?SYMB   'tmAscent',32,23,283
                   241           ?SYMB   'tmDescent',64,23,283
                   242           ?SYMB   'tmInternalLeading',96,23,283
                   243           ?SYMB   'tmExternalLeading',128,23,283
                   244           ?SYMB   'tmAveCharWidth',160,23,283
                   245           ?SYMB   'tmMaxCharWidth',192,23,283
                   246           ?SYMB   'tmWeight',224,23,283
                   247           ?SYMB   'tmOverhang',256,23,283
                   248           ?SYMB   'tmDigitizedAspectX',288,23,283
                   249           ?SYMB   'tmDigitizedAspectY',320,23,283
                   250           ?SYMB   'tmFirstChar',352,23,259
                   251           ?SYMB   'tmLastChar',360,23,259
                   252           ?SYMB   'tmDefaultChar',368,23,259
                   253           ?SYMB   'tmBreakChar',376,23,259
                   254           ?SYMB   'tmItalic',384,23,259
                   255           ?SYMB   'tmUnderlined',392,23,259
                   256           ?SYMB   'tmStruckOut',400,23,259
                   257           ?SYMB   'tmPitchAndFamily',408,23,259
                   258           ?SYMB   'tmCharSet',416,23,259
                   259           ?SYMB   '',432,18,0
                   260           ?SYMB   '',01a016dH,38,367
                   261           ?SYMB   'PTEXTMETRIC',367,13,368
                   262           ?SYMB   'tagBITMAPINFOHEADER',0,40,369
                   263           ?SYMB   'biSize',0,23,264
                   264           ?SYMB   'biWidth',32,23,283
                   265           ?SYMB   'biHeight',64,23,283
                   266           ?SYMB   'biPlanes',96,23,260
                   267           ?SYMB   'biBitCount',112,23,260
                   268           ?SYMB   'biCompression',128,23,264
                   269           ?SYMB   'biSizeImage',160,23,264
                   270           ?SYMB   'biXPelsPerMeter',192,23,283
                   271           ?SYMB   'biYPelsPerMeter',224,23,283
                   272           ?SYMB   'biClrUsed',256,23,264
                   273           ?SYMB   'biClrImportant',288,23,264
                   274           ?SYMB   '',320,18,0
                   275           ?SYMB   'BITMAPINFOHEADER',369,13,370
                   276           ?SYMB   'tagRGBQUAD',0,40,371
                   277           ?SYMB   'rgbBlue',0,23,259
                   278           ?SYMB   'rgbGreen',8,23,259
                   279           ?SYMB   'rgbRed',16,23,259
                   280           ?SYMB   'rgbReserved',24,23,259
                   281           ?SYMB   '',32,18,0
                   282           ?SYMB   'RGBQUAD',371,13,372
                   283           ?SYMB   'tagBITMAPCOREHEADER',0,40,373
                   284           ?SYMB   'bcSize',0,23,264
                   285           ?SYMB   'bcWidth',32,23,4
                   286           ?SYMB   'bcHeight',48,23,4
                   287           ?SYMB   'bcPlanes',64,23,260
                   288           ?SYMB   'bcBitCount',80,23,260
                   289           ?SYMB   '',96,18,0
                   290           ?SYMB   'BITMAPCOREHEADER',373,13,374
                   291           ?SYMB   'tagRGBTRIPLE',0,40,375
                   292           ?SYMB   'rgbtBlue',0,23,259
                   293           ?SYMB   'rgbtGreen',8,23,259
                   294           ?SYMB   'rgbtRed',16,23,259
                   295           ?SYMB   '',32,18,0
                   296           ?SYMB   'RGBTRIPLE',375,13,376
                   297           ?SYMB   'tagBITMAP',0,40,377
                   298           ?SYMB   'bmType',0,23,283
                   299           ?SYMB   'bmWidth',32,23,283
                   300           ?SYMB   'bmHeight',64,23,283
                   301           ?SYMB   'bmWidthBytes',96,23,283
                   302           ?SYMB   'bmPlanes',128,23,260
                   303           ?SYMB   'bmBitsPixel',144,23,260
                   304           ?SYMB   'bmBits',160,23,269
                   305           ?SYMB   '',192,18,0
                   306           ?SYMB   'BITMAP',377,13,378
                   307           ?SYMB   '',017c0174H,5,379
                   308           ?SYMB   '',16,47,380
                   309           ?SYMB   '',0,30,0
                   310           ?SYMB   '',0,49,0
                   311           ?SYMB   'tagBITMAPINFO',0,40,381
                   312           ?SYMB   'bmiHeader',0,23,370
                   313           ?SYMB   'bmiColors',320,23,379
                   314           ?SYMB   '',352,18,0
                   315           ?SYMB   'BITMAPINFO',381,13,382
                   316           ?SYMB   'PVOID',269,13,383
                   317           ?SYMB   '',01a017dH,38,385
                   318           ?SYMB   'PBITMAPINFO',385,13,386
                   319           ?SYMB   'HICON__',0,40,387
                   320           ?SYMB   'unused',0,23,16
                   321           ?SYMB   '',16,18,0
                   322           ?SYMB   '',01a0183H,38,389
                   323           ?SYMB   'HICON',389,13,390
                   324           ?SYMB   'HWND__',0,40,391
                   325           ?SYMB   'unused',0,23,16
                   326           ?SYMB   '',16,18,0
                   327           ?SYMB   '',01a0187H,38,393
                   328           ?SYMB   'HWND',393,13,394
                   329           ?SYMB   'WPARAM',283,13,395
                   330           ?SYMB   'LPARAM',283,13,396
                   331           ?SYMB   'tagMSG',0,40,397
                   332           ?SYMB   'hwnd',0,23,394
                   333           ?SYMB   'message',32,23,263
                   334           ?SYMB   'wParam',48,23,395
                   335           ?SYMB   'lParam',80,23,396
                   336           ?SYMB   '',112,18,0
                   337           ?SYMB   '',01a018dH,38,399
                   338           ?SYMB   'PMSG',399,13,400
                   339           ?SYMB   'LRESULT',283,13,401
                   340           ?SYMB   'MSG',397,13,402
                   341           ?SYMB   '',401,55,403
                   342           ?SYMB   '',0a0193H,38,405
                   343           ?SYMB   'WNDPROC',405,13,406
                   344           ?SYMB   'HCURSOR',390,13,407
                   345           ?SYMB   'tagWNDCLASS',0,40,408
                   346           ?SYMB   'style',0,23,263
                   347           ?SYMB   'lpfnWndProc',16,23,406
                   348           ?SYMB   'cbClsExtra',48,23,16
                   349           ?SYMB   'cbWndExtra',64,23,16
                   350           ?SYMB   'hInstance',80,23,287
                   351           ?SYMB   'hIcon',112,23,390
                   352           ?SYMB   'hCursor',144,23,407
                   353           ?SYMB   'hbrBackground',176,23,347
                   354           ?SYMB   'lpszMenuName',208,23,307
                   355           ?SYMB   'lpszClassName',240,23,307
                   356           ?SYMB   '',272,18,0
                   357           ?SYMB   'WNDCLASS',408,13,409
                   358           ?SYMB   'tagWNDCLASSEX',0,40,410
                   359           ?SYMB   'cbSize',0,23,263
                   360           ?SYMB   'style',16,23,263
                   361           ?SYMB   'lpfnWndProc',32,23,406
                   362           ?SYMB   'cbClsExtra',64,23,16
                   363           ?SYMB   'cbWndExtra',80,23,16
                   364           ?SYMB   'hInstance',96,23,287
                   365           ?SYMB   'hIcon',128,23,390
                   366           ?SYMB   'hCursor',160,23,407
                   367           ?SYMB   'hbrBackground',192,23,347
                   368           ?SYMB   'lpszMenuName',224,23,307
                   369           ?SYMB   'lpszClassName',256,23,307
                   370           ?SYMB   'hIconSm',288,23,390
                   371           ?SYMB   '',320,18,0
                   372           ?SYMB   'WNDCLASSEX',410,13,411
                   373           ?SYMB   '',01a0198H,38,413
                   374           ?SYMB   'PWNDCLASS',413,13,414
                   375           ?SYMB   'HMENU__',0,40,415
                   376           ?SYMB   'unused',0,23,16
                   377           ?SYMB   '',16,18,0
                   378           ?SYMB   '',01a019fH,38,417
                   379           ?SYMB   'HMENU',417,13,418
                   380           ?SYMB   '',258,55,419
                   381           ?SYMB   '',0a01a3H,38,421
                   382           ?SYMB   'WNDENUMPROC',421,13,422
                   383           ?SYMB   'tagPAINTSTRUCT',0,40,423
                   384           ?SYMB   'hdc',0,23,320
                   385           ?SYMB   'fErase',32,23,258
                   386           ?SYMB   'rcPaint',48,23,335
                   387           ?SYMB   '',176,18,0
                   388           ?SYMB   '',01a01a7H,38,425
                   389           ?SYMB   'PPAINTSTRUCT',425,13,426
                   390           ?SYMB   'PAINTSTRUCT',423,13,427
                   391           ?SYMB   'tagWINDOWPOS',0,40,428
                   392           ?SYMB   'hwnd',0,23,394
                   393           ?SYMB   'hwndInsertAfter',32,23,394
                   394           ?SYMB   'x',64,23,16
                   395           ?SYMB   'y',80,23,16
                   396           ?SYMB   'cx',96,23,16
                   397           ?SYMB   'cy',112,23,16
                   398           ?SYMB   'flags',128,23,263
                   399           ?SYMB   '',144,18,0
                   400           ?SYMB   '',01a01acH,38,430
                   401           ?SYMB   'PWINDOWPOS',430,13,431
                   402           ?SYMB   './include\virtkey.h',0,29,3
                   403           ?SYMB   '',0,86,3
                   404           ?SYMB   '',0,86,2
                   405           ?SYMB   '',01a0103H,38,433
                   406           ?SYMB   'PBYTE',433,13,434
                   407           ?SYMB   '',01a0104H,38,436
                   408           ?SYMB   'LPWORD',436,13,437
                   409           ?SYMB   '',1,55,438
                   410           ?SYMB   '',0a01b6H,38,440
                   411           ?SYMB   'TIMERPROC',440,13,441
                   412           ?SYMB   'MENUITEMTEMPLATE',442,13,443
                   413           ?SYMB   '',01a01bbH,38,445
                   414           ?SYMB   'PMENUITEMTEMPLATE',445,13,446
                   415           ?SYMB   'tagMENUITEMTEMPLATE',0,40,442
                   416           ?SYMB   'wFlags',0,23,260
                   417           ?SYMB   'wID',16,23,260
                   418           ?SYMB   'lpszItemName',32,23,300
                   419           ?SYMB   'pMenuItems',64,23,446
                   420           ?SYMB   '',96,18,0
                   421           ?SYMB   'T$3',0,40,447
                   422           ?SYMB   'version',0,23,264
                   423           ?SYMB   'pMenuItems',32,23,446
                   424           ?SYMB   '',64,18,0
                   425           ?SYMB   'MENUTEMPLATE',447,13,448
                   426           ?SYMB   'tagSCROLLINFO',0,40,449
                   427           ?SYMB   'cbSize',0,23,263
                   428           ?SYMB   'fMask',16,23,263
                   429           ?SYMB   'nMin',32,23,16
                   430           ?SYMB   'nMax',48,23,16
                   431           ?SYMB   'nPage',64,23,263
                   432           ?SYMB   'nPos',80,23,16
                   433           ?SYMB   'nTrackPos',96,23,16
                   434           ?SYMB   '',112,18,0
                   435           ?SYMB   'SCROLLINFO',449,13,450
                   436           ?SYMB   '',01a01c2H,38,452
                   437           ?SYMB   'PCSCROLLINFO',452,13,453
                   438           ?SYMB   '',01a01c1H,38,455
                   439           ?SYMB   'PSCROLLINFO',455,13,456
                   440           ?SYMB   'T$4',0,40,457
                   441           ?SYMB   'style',0,23,264
                   442           ?SYMB   'dwExStyle',32,23,264
                   443           ?SYMB   'x',64,23,4
                   444           ?SYMB   'y',80,23,4
                   445           ?SYMB   'cx',96,23,4
                   446           ?SYMB   'cy',112,23,4
                   447           ?SYMB   'id',128,23,264
                   448           ?SYMB   'lpszClassName',160,23,300
                   449           ?SYMB   'lpszWindowText',192,23,300
                   450           ?SYMB   '',224,18,0
                   451           ?SYMB   'DLGITEMTEMPLATE',457,13,458
                   452           ?SYMB   '',01cc01caH,5,459
                   453           ?SYMB   '',16,47,460
                   454           ?SYMB   '',0,30,0
                   455           ?SYMB   '',0,49,0
                   456           ?SYMB   'T$5',0,40,461
                   457           ?SYMB   'type',0,23,264
                   458           ?SYMB   'style',32,23,264
                   459           ?SYMB   'dwExStyle',64,23,264
                   460           ?SYMB   'cdit',96,23,264
                   461           ?SYMB   'x',128,23,4
                   462           ?SYMB   'y',144,23,4
                   463           ?SYMB   'cx',160,23,4
                   464           ?SYMB   'cy',176,23,4
                   465           ?SYMB   'lpszMenuName',192,23,300
                   466           ?SYMB   'lpszClassName',224,23,300
                   467           ?SYMB   'lpszWindowText',256,23,300
                   468           ?SYMB   'dlgItems',288,23,459
                   469           ?SYMB   '',512,18,0
                   470           ?SYMB   'DLGTEMPLATE',461,13,462
                   471           ?SYMB   '',258,55,463
                   472           ?SYMB   '',0a01cfH,38,465
                   473           ?SYMB   'DLGPROC',465,13,466
                   474           ?SYMB   '',01a01ceH,38,468
                   475           ?SYMB   'PCDLGTEMPLATE',468,13,469
                   476           ?SYMB   'tagDRAWITEMSTRUCT',0,40,470
                   477           ?SYMB   'CtlType',0,23,263
                   478           ?SYMB   'CtlID',16,23,263
                   479           ?SYMB   'itemID',32,23,263
                   480           ?SYMB   'itemAction',48,23,263
                   481           ?SYMB   'itemState',64,23,263
                   482           ?SYMB   'hwndItem',80,23,394
                   483           ?SYMB   'hDC',112,23,320
                   484           ?SYMB   'rcItem',144,23,335
                   485           ?SYMB   'itemData',272,23,264
                   486           ?SYMB   '',304,18,0
                   487           ?SYMB   'DRAWITEMSTRUCT',470,13,471
                   488           ?SYMB   'tagMEASUREITEMSTRUCT',0,40,472
                   489           ?SYMB   'CtlType',0,23,263
                   490           ?SYMB   'CtlID',16,23,263
                   491           ?SYMB   'itemID',32,23,263
                   492           ?SYMB   'itemWidth',48,23,263
                   493           ?SYMB   'itemHeight',64,23,263
                   494           ?SYMB   'itemData',80,23,264
                   495           ?SYMB   '',112,18,0
                   496           ?SYMB   'MEASUREITEMSTRUCT',472,13,473
                   497           ?SYMB   'tagDELETEITEMSTRUCT',0,40,474
                   498           ?SYMB   'CtlType',0,23,263
                   499           ?SYMB   'CtlID',16,23,263
                   500           ?SYMB   'itemID',32,23,263
                   501           ?SYMB   'hwndItem',48,23,394
                   502           ?SYMB   'itemData',80,23,264
                   503           ?SYMB   '',112,18,0
                   504           ?SYMB   'DELETEITEMSTRUCT',474,13,475
                   505           ?SYMB   'tagCOMPAREITEMSTRUCT',0,40,476
                   506           ?SYMB   'CtlType',0,23,263
                   507           ?SYMB   'CtlID',16,23,263
                   508           ?SYMB   'hwndItem',32,23,394
                   509           ?SYMB   'itemID1',64,23,263
                   510           ?SYMB   'itemData1',80,23,264
                   511           ?SYMB   'itemID2',112,23,263
                   512           ?SYMB   'itemData2',128,23,264
                   513           ?SYMB   '',160,18,0
                   514           ?SYMB   'COMPAREITEMSTRUCT',476,13,477
                   515           ?SYMB   '',401,55,478
                   516           ?SYMB   '',0a01deH,38,480
                   517           ?SYMB   'HOOKPROC',480,13,481
                   518           ?SYMB   'HHOOK__',0,40,482
                   519           ?SYMB   'unused',0,23,16
                   520           ?SYMB   '',16,18,0
                   521           ?SYMB   '',01a01e2H,38,484
                   522           ?SYMB   'HHOOK',484,13,485
                   523           ?SYMB   '',01e70103H,5,486
                   524           ?SYMB   '',16,47,487
                   525           ?SYMB   '',0,30,0
                   526           ?SYMB   '',31,49,0
                   527           ?SYMB   '_devicemode',0,40,488
                   528           ?SYMB   'dmDeviceName',0,23,486
                   529           ?SYMB   'dmSpecVersion',256,23,260
                   530           ?SYMB   'dmDriverVersion',272,23,260
                   531           ?SYMB   'dmSize',288,23,260
                   532           ?SYMB   'dmDriverExtra',304,23,260
                   533           ?SYMB   'dmFields',320,23,264
                   534           ?SYMB   'dmOrientation',352,23,4
                   535           ?SYMB   'dmPaperSize',368,23,4
                   536           ?SYMB   'dmPaperLength',384,23,4
                   537           ?SYMB   'dmPaperWidth',400,23,4
                   538           ?SYMB   'dmScale',416,23,4
                   539           ?SYMB   'dmCopies',432,23,4
                   540           ?SYMB   'dmDefaultSource',448,23,4
                   541           ?SYMB   'dmPrintQuality',464,23,4
                   542           ?SYMB   'dmColor',480,23,4
                   543           ?SYMB   'dmDuplex',496,23,4
                   544           ?SYMB   'dmYResolution',512,23,4
                   545           ?SYMB   'dmTTOption',528,23,4
                   546           ?SYMB   'dmCollate',544,23,4
                   547           ?SYMB   'dmFormName',560,23,486
                   548           ?SYMB   'dmLogPixels',816,23,260
                   549           ?SYMB   'dmBitsPerPel',832,23,264
                   550           ?SYMB   'dmPelsWidth',864,23,264
                   551           ?SYMB   'dmPelsHeight',896,23,264
                   552           ?SYMB   'dmDisplayFlags',928,23,264
                   553           ?SYMB   'dmDisplayFrequency',960,23,264
                   554           ?SYMB   'dmICMMethod',992,23,264
                   555           ?SYMB   'dmICMIntent',1024,23,264
                   556           ?SYMB   'dmMediaType',1056,23,264
                   557           ?SYMB   'dmDitherType',1088,23,264
                   558           ?SYMB   'dmICCManufacturer',1120,23,264
                   559           ?SYMB   'dmICCModel',1152,23,264
                   560           ?SYMB   'dmPanningWidth',1184,23,264
                   561           ?SYMB   'dmPanningHeight',1216,23,264
                   562           ?SYMB   '',1248,18,0
                   563           ?SYMB   '',01a01e8H,38,490
                   564           ?SYMB   'PDEVMODE',490,13,491
                   565           ?SYMB   '',0,86,1
                   566   ; me_wnd.c    3 #include "me_func.h"
                   567           ?SYMB   'me_func.h',0,29,2
                   568           ?SYMB   '',0,86,2
                   569           ?SYMB   '',1,55,492
                   570           ?SYMB   '',0a01ecH,38,494
                   571           ?SYMB   'ME_ReqCallback',494,13,495
                   572           ?SYMB   '',1,55,496
                   573           ?SYMB   '',0a01f0H,38,498
                   574           ?SYMB   'ME_IndCallback',498,13,499
                   575           ?SYMB   '',0,86,1
                   576   ; me_wnd.c    4 #include "me_wnd.h"
                   577           ?SYMB   './include\me_wnd.h',0,29,2
                   578           ?SYMB   '',0,86,2
                   579           ?SYMB   './include\hp_modcfg.h',0,29,3
                   580           ?SYMB   '',0,86,3
                   581           ?SYMB   '',0,86,2
                   582           ?SYMB   '',01f50002H,5,500
                   583           ?SYMB   '',16,47,501
                   584           ?SYMB   '',0,30,0
                   585           ?SYMB   '',23,49,0
                   586           ?SYMB   'tagCALL_FWD',0,40,502
                   587           ?SYMB   'Reason',0,23,16
                   588           ?SYMB   'bEnable',16,23,258
                   589           ?SYMB   'PhoneNum',32,23,500
                   590           ?SYMB   'Class',224,23,16
                   591           ?SYMB   'Time',240,23,16
                   592           ?SYMB   '',256,18,0
                   593           ?SYMB   '',01a01f6H,38,504
                   594           ?SYMB   'PCALL_FWD',504,13,505
                   595           ?SYMB   '',01fb0002H,5,506
                   596           ?SYMB   '',16,47,507
                   597           ?SYMB   '',0,30,0
                   598           ?SYMB   '',163,49,0
                   599           ?SYMB   'tagSMS_Send',0,40,508
                   600           ?SYMB   'SCA',0,23,500
                   601           ?SYMB   'Type',192,23,16
                   602           ?SYMB   'ConLen',208,23,16
                   603           ?SYMB   'Report',224,23,258
                   604           ?SYMB   'ReplyPath',240,23,258
                   605           ?SYMB   'PID',256,23,16
                   606           ?SYMB   'VPvalue',272,23,16
                   607           ?SYMB   'PhoneNum',288,23,500
                   608           ?SYMB   'Context',480,23,506
                   609           ?SYMB   '',1792,18,0
                   610           ?SYMB   '',01a01fcH,38,510
                   611           ?SYMB   'PSMS_SEND',510,13,511
                   612           ?SYMB   'tagIND_STATUS',0,40,512
                   613           ?SYMB   'Mt',0,23,16
                   614           ?SYMB   'Bm',16,23,16
                   615           ?SYMB   'Ds',32,23,16
                   616           ?SYMB   '',48,18,0
                   617           ?SYMB   '',01a0200H,38,514
                   618           ?SYMB   'PIND_STATUS',514,13,515
                   619           ?SYMB   '',02050002H,5,516
                   620           ?SYMB   '',16,47,517
                   621           ?SYMB   '',0,30,0
                   622           ?SYMB   '',39,49,0
                   623           ?SYMB   '',02070002H,5,518
                   624           ?SYMB   '',16,47,519
                   625           ?SYMB   '',0,30,0
                   626           ?SYMB   '',19,49,0
                   627           ?SYMB   'tagCELL_BROADCAST',0,40,520
                   628           ?SYMB   'mode',0,23,258
                   629           ?SYMB   'ids',16,23,516
                   630           ?SYMB   'code',336,23,518
                   631           ?SYMB   '',496,18,0
                   632           ?SYMB   '',01a0208H,38,522
                   633           ?SYMB   'PCELL_BROADCAST',522,13,523
                   634           ?SYMB   '',020d0002H,5,524
                   635           ?SYMB   '',16,47,525
                   636           ?SYMB   '',0,30,0
                   637           ?SYMB   '',15,49,0
                   638           ?SYMB   'tagPHONEBOOK',0,40,526
                   639           ?SYMB   'Index',0,23,16
                   640           ?SYMB   'PhoneNum',16,23,500
                   641           ?SYMB   'Text',208,23,524
                   642           ?SYMB   '',336,18,0
                   643           ?SYMB   '',01a020eH,38,528
                   644           ?SYMB   'PPHONEBOOK',528,13,529
                   645           ?SYMB   '',02130002H,5,530
                   646           ?SYMB   '',16,47,531
                   647           ?SYMB   '',0,30,0
                   648           ?SYMB   '',63,49,0
                   649           ?SYMB   'tagSTK_PARAM',0,40,532
                   650           ?SYMB   'cmd',0,23,530
                   651           ?SYMB   'timeout',512,23,16
                   652           ?SYMB   'line_count',528,23,16
                   653           ?SYMB   'line_len',544,23,16
                   654           ?SYMB   'revbuf',560,23,269
                   655           ?SYMB   '',592,18,0
                   656           ?SYMB   'STK_PARAM',532,13,533
                   657           ?SYMB   '',0,86,1
                   658   ; me_wnd.c    5 #include "me_at.h"
                   659           ?SYMB   'me_at.h',0,29,2
                   660           ?SYMB   '',0,86,2
                   661           ?SYMB   '',1,55,534
                   662           ?SYMB   '',0a0216H,38,536
                   663           ?SYMB   'MAT_Indication',536,13,537
                   664           ?SYMB   '',0,86,1
                   665   ; me_wnd.c    6 
                   666   ; me_wnd.c    7 extern void debugex_nonl(char *fmt, ...);
                   667   ; me_wnd.c    8 struct ME_REQUEST_WIN   request_buf[MAX_QUEUE_REQUESTS];
                   668   ME_WND_1_FB     SECTION DATA WORD PUBLIC 'CFAR'
0000               669   ME_WND_1_FB_ENTRY       LABEL   BYTE
0000               670   _request_buf    LABEL   WORD
0000               671           DS      6440
                   672           PUBLIC  _request_buf
                   673           ?SYMB   '',01a021aH,38,540
                   674           ?SYMB   'ME_REQUEST',0,40,538
                   675           ?SYMB   'cmd',0,23,16
                   676           ?SYMB   'arg1',16,23,16
                   677           ?SYMB   'arg2',32,23,16
                   678           ?SYMB   'arg3',48,23,16
                   679           ?SYMB   'cmddata',64,23,269
                   680           ?SYMB   'cmddata_len',96,23,16
                   681           ?SYMB   'reply',112,23,495
                   682           ?SYMB   'error',144,23,16
                   683           ?SYMB   'errcode',160,23,16
                   684           ?SYMB   'index',176,23,16
                   685           ?SYMB   'result',192,23,269
                   686           ?SYMB   'result_len',224,23,16
                   687           ?SYMB   'next',240,23,540
                   688           ?SYMB   '',272,18,0
                   689           ?SYMB   '',021e0002H,5,541
                   690           ?SYMB   '',16,47,542
                   691           ?SYMB   '',0,30,0
                   692           ?SYMB   '',279,49,0
                   693           ?SYMB   'ME_REQUEST_WIN',0,40,543
                   694           ?SYMB   'request',0,23,538
                   695           ?SYMB   'cmddata',272,23,541
                   696           ?SYMB   'used_flag',2512,23,16
                   697           ?SYMB   'hWnd',2528,23,394
                   698           ?SYMB   'message',2560,23,18
                   699           ?SYMB   '',2576,18,0
                   700           ?SYMB   '',0221021fH,5,544
                   701           ?SYMB   '',16,47,545
                   702           ?SYMB   '',0,30,0
                   703           ?SYMB   '',19,49,0
               R   704           ?SYMB   'request_buf',_request_buf,22,544
                   705   ; me_wnd.c    9 
                   706   ; me_wnd.c   10 struct ME_REQUEST_WIN * FindRequestStruct( int Handle )
                   707   ; me_wnd.c   11 {
                   708   ME_WND_1_FB     ENDS
                   709   
                   710   ME_WND_2_PR     SECTION CODE WORD PUBLIC 'CPROGRAM'
                   711           ?LINE   11
                   712           PUBLIC  _FindRequestStruct
                   713           ?SYMB   '',01a021fH,38,547
               R   714           ?SYMB   'FindRequestStruct',_FindRequestStruct,37,547
                   715           ?SYMB   '',11,8,34
                   716   _FindRequestStruct      PROC    FAR
                   717           ?SYMB   '',00H,95,0
                   718   ; Locals:
                   719   ; 
                   720   ; Statics:
                   721   ; 
                   722   ; CSEs:
                   723   ;     i = R13
                   724   ;     i * 322 = R14
                   725   ;     Handle = R12
                   726   ;     &request_buf + 314 + i * 322 = R12R14
                   727   ; 
                   728           ?SYMB   'Handle',2,99,16
                   729           ?SYMB   'i',1,98,16
               R   730           ?SYMB   'R12',$,100,2
                   731   ; me_wnd.c   12     int i;
                   732   ; me_wnd.c   13 
                   733   ; me_wnd.c   14         if ( Handle == -1 )
                   734           ?LINE   14
0000 46FCFFFF      735           CMP     R12,#0FFFFh
0004 3D18          736           JMPR    cc_NE,_14
                   737   ; me_wnd.c   15         {
                   738   ; me_wnd.c   16                 for ( i = 0; i < MAX_QUEUE_REQUESTS; i ++ )
                   739           ?LINE   16
0006 E00D          740           MOV     R13,#00h
               R   741           ?SYMB   'R13',$,100,1
0008               742   _12:
               R   743           ?SYMB   '',$,102,2
                   744   ; me_wnd.c   17                 {
                   745   ; me_wnd.c   18                         if ( request_buf[i].used_flag == 0 ) 
                   746           ?LINE   18
0008 E6FC0000  R   747           MOV     R12,#POF _request_buf+314
000C E6FE0000  R   748           MOV     R14,#PAG _request_buf
0010 E6FF4201      749           MOV     R15,#0142h
0014 D110          750           ATOMIC  #02h
0016 1BDF     2    751           MULU    R13,R15
0018 CC00     1    752           NOP
001A F2F10EFE      753           MOV     R1,MDL
001E 00C1          754           ADD     R12,R1
0020 DC4E          755           EXTP    R14,#01h
0022 A82C     1    756           MOV     R2,[R12]
0024 3D04          757           JMPR    cc_NZ,_13
                   758   ; me_wnd.c   19                         {
                   759   ; me_wnd.c   20                                 request_buf[i].used_flag = 1;
                   760           ?LINE   20
0026 E012          761           MOV     R2,#01h
0028 DC4E          762           EXTP    R14,#01h
002A B82C     1    763           MOV     [R12],R2
                   764   ; me_wnd.c   21                                 
                   765   ; me_wnd.c   22                                 return &request_buf[i];
                   766           ?LINE   22
002C 0D17          767           JMPR    cc_UC,_16
                   768   ; me_wnd.c   23                         }
                   769           ?LINE   23
002E               770   _13:
               R   771           ?SYMB   '',$,102,1
               R   772           ?SYMB   'R13',$,100,1
                   773           ?LINE   16
002E 86FD1300      774           CMPI1   R13,#013h
0032 CDEA          775           JMPR    cc_SLT,_12
                   776   ; me_wnd.c   24                 }
                   777   ; me_wnd.c   25         }
                   778           ?LINE   25
0034 0D23          779           JMPR    cc_UC,_19
0036               780   _14:
               R   781           ?SYMB   '',$,102,1
               R   782           ?SYMB   'R12',$,100,2
                   783   ; me_wnd.c   26         else
                   784   ; me_wnd.c   27         {
                   785   ; me_wnd.c   28                 for ( i = 0; i < MAX_QUEUE_REQUESTS; i ++ )
                   786           ?LINE   28
0036 E00D          787           MOV     R13,#00h
               R   788           ?SYMB   'R13',$,100,1
0038               789   _15:
                   790   ; me_wnd.c   29                 {
                   791   ; me_wnd.c   30                         if ( request_buf[i].used_flag == 0 )
                   792           ?LINE   30
0038 E6FE4201      793           MOV     R14,#0142h
003C D110          794           ATOMIC  #02h
003E 1BDE     2    795           MULU    R13,R14
0040 CC00     1    796           NOP
0042 F2FE0EFE      797           MOV     R14,MDL
0046 D7400000  R   798           EXTP    #PAG _request_buf,#01h
004A D4FE0000 1R   799           MOV     R15,[R14+#POF _request_buf+314]
004E 2D13          800           JMPR    cc_Z,_18
                   801   ; me_wnd.c   31                                 continue;
                   802   ; me_wnd.c   32 
                   803   ; me_wnd.c   33                         if ( request_buf[i].request.index == Handle )
                   804           ?LINE   33
0050 D7400000  R   805           EXTP    #PAG _request_buf,#01h
0054 D4FE0000 1R   806           MOV     R15,[R14+#POF _request_buf+22]
0058 40FC          807           CMP     R15,R12
005A 3D0D          808           JMPR    cc_NE,_18
                   809   ; me_wnd.c   34                                 return &request_buf[i];
                   810           ?LINE   34
005C               811   _16:
               R   812           ?SYMB   '',$,102,2
005C E6F40000  R   813           MOV     R4,#POF _request_buf
0060 E6F50000  R   814           MOV     R5,#PAG _request_buf
0064 E6FC4201      815           MOV     R12,#0142h
0068 D110          816           ATOMIC  #02h
006A 1BDC     2    817           MULU    R13,R12
006C CC00     1    818           NOP
006E F2FD0EFE      819           MOV     R13,MDL
               R   820           ?SYMB   '',$,102,1
0072 004D          821           ADD     R4,R13
0074 DB00          822           RETS
                   823           ?LINE   28
0076               824   _18:
               R   825           ?SYMB   'R12',$,100,2
               R   826           ?SYMB   'R13',$,100,1
               R   827           ?SYMB   '',$,102,1
               R   828           ?SYMB   'R13',$,100,1
0076 86FD1300      829           CMPI1   R13,#013h
007A CDDE          830           JMPR    cc_SLT,_15
                   831   ; me_wnd.c   35                 }
                   832   ; me_wnd.c   36         }
                   833           ?LINE   36
007C               834   _19:
               R   835           ?SYMB   '',$,102,2
               R   836           ?SYMB   '',$,102,1
                   837   ; me_wnd.c   37 
                   838   ; me_wnd.c   38     return NULL;
                   839           ?LINE   38
007C E004          840           MOV     R4,#00h
007E E005          841           MOV     R5,#00h
                   842   ; me_wnd.c   39 }
                   843           ?LINE   39
0080               844   _20:
0080 DB00          845           RETS
                   846   _FindRequestStruct      ENDP
               R   847           ?SYMB   '',$,17,39
                   848   ; me_wnd.c   40 
                   849   ; me_wnd.c   41 void ME_WndCallback( struct ME_REQUEST * pRequest)
                   850   ; me_wnd.c   42 {
                   851           ?LINE   42
                   852           PUBLIC  _ME_WndCallback
               R   853           ?SYMB   'ME_WndCallback',_ME_WndCallback,37,1
                   854           ?SYMB   '',42,8,34
                   855   _ME_WndCallback PROC    FAR
                   856           ?SYMB   '',0300H,95,0
0082 8890          857           MOV     [-R0],R9
               R   858           ?SYMB   '',$,96,2
0084 8880          859           MOV     [-R0],R8
               R   860           ?SYMB   '',$,96,4
                   861   ; Locals:
                   862   ; 
                   863   ; Statics:
                   864   ; 
                   865   ; CSEs:
                   866   ;     request = R8R9
                   867   ;     pRequest = R12R13
                   868   ; 
                   869           ?SYMB   'pRequest',2,99,540
                   870           ?SYMB   'request',1,98,547
               R   871           ?SYMB   'R12R13',$,100,2
                   872   ; me_wnd.c   43     struct ME_REQUEST_WIN * request = FindRequestStruct( pRequest->index );
                   873           ?LINE   43
0086 88C0          874           MOV     [-R0],R12
               R   875           ?SYMB   '',$,96,6
0088 88D0          876           MOV     [-R0],R13
               R   877           ?SYMB   '',$,96,8
008A F0EC          878           MOV     R14,R12
008C DC4D          879           EXTP    R13,#01h
008E D4CE1600 1    880           MOV     R12,[R14+#016H]
               R   881           ?SYMB   '',$,102,2
0092 DA000000  R   882           CALLS   SEG _FindRequestStruct,_FindRequestStruct
0096 F084          883           MOV     R8,R4
0098 F095          884           MOV     R9,R5
               R   885           ?SYMB   'R8R9',$,100,1
009A 98D0          886           MOV     R13,[R0+]
               R   887           ?SYMB   '',$,96,6
009C 98C0          888           MOV     R12,[R0+]
               R   889           ?SYMB   '',$,96,4
               R   890           ?SYMB   'R12R13',$,100,2
                   891   ; me_wnd.c   44 
                   892   ; me_wnd.c   45         if ( request == NULL)
                   893           ?LINE   45
009E F0E9          894           MOV     R14,R9
00A0 70E8          895           OR      R14,R8
00A2 2D1D          896           JMPR    cc_Z,_21
                   897   ; me_wnd.c   46                 return;
                   898   ; me_wnd.c   47 
                   899   ; me_wnd.c   48         SendMessage (request->hWnd, request->message, (WORD)pRequest->error, (D
                         WORD)pRequest->errcode);
                   900           ?LINE   48
00A4 DC4D          901           EXTP    R13,#01h
00A6 D4EC1400 1    902           MOV     R14,[R12+#014H]
00AA F0FE          903           MOV     R15,R14
00AC BCFF          904           ASHR    R15,#0Fh
00AE 88F0          905           MOV     [-R0],R15
               R   906           ?SYMB   '',$,96,6
00B0 88E0          907           MOV     [-R0],R14
               R   908           ?SYMB   '',$,96,8
00B2 DC4D          909           EXTP    R13,#01h
00B4 D41C1200 1    910           MOV     R1,[R12+#012H]
00B8 E00C          911           MOV     R12,#00h
               R   912           ?SYMB   '',$,102,2
00BA 88C0          913           MOV     [-R0],R12
               R   914           ?SYMB   '',$,96,10
00BC 8810          915           MOV     [-R0],R1
               R   916           ?SYMB   '',$,96,12
00BE DC59          917           EXTP    R9,#02h
00C0 D4C83C01 2    918           MOV     R12,[R8+#013CH]
00C4 D4D83E01 1    919           MOV     R13,[R8+#013EH]
00C8 DC49          920           EXTP    R9,#01h
00CA D4E84001 1    921           MOV     R14,[R8+#0140H]
00CE DA000000  R   922           CALLS   SEG _SendMessage,_SendMessage
00D2 06F00800      923           ADD     R0,#08h
               R   924           ?SYMB   '',$,96,4
                   925   ; me_wnd.c   49 
                   926   ; me_wnd.c   50     /* Free this request structure */
                   927   ; me_wnd.c   51     request->used_flag = 0;
                   928           ?LINE   51
00D6 E00C          929           MOV     R12,#00h
00D8 DC49          930           EXTP    R9,#01h
00DA C4C83A01 1    931           MOV     [R8+#013AH],R12
                   932   ; me_wnd.c   52 }
                   933           ?LINE   52
00DE               934   _21:
               R   935           ?SYMB   '',$,102,1
00DE 9880          936           MOV     R8,[R0+]
               R   937           ?SYMB   '',$,96,2
00E0 9890          938           MOV     R9,[R0+]
               R   939           ?SYMB   '',$,96,0
00E2 DB00          940           RETS
                   941   _ME_WndCallback ENDP
               R   942           ?SYMB   '',$,17,52
                   943   ; me_wnd.c   53 
                   944   ; me_wnd.c   54 void ME_URCCallback( struct ME_REGISTER * pRegister )
                   945   ; me_wnd.c   55 {
                   946           ?LINE   55
                   947           PUBLIC  _ME_URCCallback
               R   948           ?SYMB   'ME_URCCallback',_ME_URCCallback,37,1
                   949           ?SYMB   '',55,8,34
                   950   _ME_URCCallback PROC    FAR
                   951           ?SYMB   '',00H,95,0
                   952   ; Locals:
                   953   ; 
                   954   ; Statics:
                   955   ; 
                   956   ; CSEs:
                   957   ;     pRegister = R12R13
                   958   ; 
                   959           ?SYMB   '',01a0227H,38,553
                   960           ?SYMB   'ME_REGISTER',0,40,551
                   961           ?SYMB   'hwnd',0,23,394
                   962           ?SYMB   'msg',32,23,263
                   963           ?SYMB   'used',48,23,258
                   964           ?SYMB   'mode',64,23,16
                   965           ?SYMB   'notify',80,23,499
                   966           ?SYMB   'pNext',112,23,553
                   967           ?SYMB   '',144,18,0
                   968           ?SYMB   'pRegister',1,99,553
               R   969           ?SYMB   'R12R13',$,100,1
                   970   ; me_wnd.c   56         SendMessage( pRegister->hwnd, pRegister->msg, 0, 0 );
                   971           ?LINE   56
00E4 E00E          972           MOV     R14,#00h
00E6 E00F          973           MOV     R15,#00h
00E8 88F0          974           MOV     [-R0],R15
               R   975           ?SYMB   '',$,96,2
00EA 88E0          976           MOV     [-R0],R14
               R   977           ?SYMB   '',$,96,4
00EC 88F0          978           MOV     [-R0],R15
               R   979           ?SYMB   '',$,96,6
00EE 88E0          980           MOV     [-R0],R14
               R   981           ?SYMB   '',$,96,8
00F0 F01C          982           MOV     R1,R12
00F2 F02D          983           MOV     R2,R13
00F4 DC52          984           EXTP    R2,#02h
00F6 D4D10200 2    985           MOV     R13,[R1+#02H]
               R   986           ?SYMB   '',$,102,1
00FA A8C1     1    987           MOV     R12,[R1]
               R   988           ?SYMB   '',$,102,1
00FC DC42          989           EXTP    R2,#01h
00FE D4E10400 1    990           MOV     R14,[R1+#04H]
0102 DA000000  R   991           CALLS   SEG _SendMessage,_SendMessage
0106 06F00800      992           ADD     R0,#08h
               R   993           ?SYMB   '',$,96,0
                   994   ; me_wnd.c   57 }
                   995           ?LINE   57
010A DB00          996           RETS
                   997   _ME_URCCallback ENDP
               R   998           ?SYMB   '',$,17,57
                   999   ; me_wnd.c   58 
                  1000   ; me_wnd.c   59 int ME_SampleRequest (int arg1, int arg2, HWND hWnd, unsigned msg)
                  1001   ; me_wnd.c   60 {
                  1002           ?LINE   60
                  1003           PUBLIC  _ME_SampleRequest
               R  1004           ?SYMB   'ME_SampleRequest',_ME_SampleRequest,37,16
                  1005           ?SYMB   '',60,8,34
                  1006   _ME_SampleRequest       PROC    FAR
                  1007           ?SYMB   '',0340H,95,0
010C 8890         1008           MOV     [-R0],R9
               R  1009           ?SYMB   '',$,96,2
010E 8880         1010           MOV     [-R0],R8
               R  1011           ?SYMB   '',$,96,4
0110 8860         1012           MOV     [-R0],R6
               R  1013           ?SYMB   '',$,96,6
                  1014   ; Locals:
                  1015   ; 
                  1016   ; Statics:
                  1017   ; 
                  1018   ; CSEs:
                  1019   ;     request = R8R9
                  1020   ;     retval = R6
                  1021   ;     request + 316 = R12R13
                  1022   ;     request + 320 = R14R15
                  1023   ;     hWnd = R14R15
                  1024   ;     msg = offset 6
                  1025   ; 
                  1026           ?SYMB   'hWnd',3,99,394
                  1027           ?SYMB   'msg',2,99,18
                  1028           ?SYMB   'retval',1,98,16
                  1029           ?SYMB   'request',4,98,547
               R  1030           ?SYMB   'R14R15',$,100,3
               R  1031           ?SYMB   '0',$,101,2
                  1032   ; me_wnd.c   61     int retval = 0;
                  1033   ; me_wnd.c   62     struct ME_REQUEST_WIN * request = FindRequestStruct( -1 );
                  1034           ?LINE   62
0112 F06E         1035           MOV     R6,R14
0114 88F0         1036           MOV     [-R0],R15
               R  1037           ?SYMB   '',$,96,8
0116 E6FCFFFF     1038           MOV     R12,#0FFFFh
011A DA000000  R  1039           CALLS   SEG _FindRequestStruct,_FindRequestStruct
               R  1040           ?SYMB   '',$,102,3
011E F084         1041           MOV     R8,R4
0120 F095         1042           MOV     R9,R5
               R  1043           ?SYMB   'R8R9',$,100,4
0122 98F0         1044           MOV     R15,[R0+]
               R  1045           ?SYMB   '',$,96,6
0124 F0E6         1046           MOV     R14,R6
               R  1047           ?SYMB   'R14R15',$,100,3
                  1048   ; me_wnd.c   63 
                  1049   ; me_wnd.c   64     request->hWnd = hWnd;
                  1050           ?LINE   64
0126 F0C8         1051           MOV     R12,R8
0128 F0D9         1052           MOV     R13,R9
012A 06FC3C01     1053           ADD     R12,#013Ch
012E DC5D         1054           EXTP    R13,#02h
0130 C4FC0200 2   1055           MOV     [R12+#02H],R15
0134 B8EC     1   1056           MOV     [R12],R14
                  1057   ; me_wnd.c   65     request->message = msg;
                  1058           ?LINE   65
0136 D4600600     1059           MOV     R6,[R0+#06H]
013A F0E8         1060           MOV     R14,R8
               R  1061           ?SYMB   '',$,102,3
013C F0F9         1062           MOV     R15,R9
013E 06FE4001     1063           ADD     R14,#0140h
0142 DC4F         1064           EXTP    R15,#01h
0144 B86E     1   1065           MOV     [R14],R6
                  1066   ; me_wnd.c   66 
                  1067   ; me_wnd.c   67     /* Fill the request */
                  1068   ; me_wnd.c   68     request->request.reply = ME_WndCallback;
                  1069           ?LINE   68
0146 E6F10000  R  1070           MOV     R1,#SOF _ME_WndCallback
014A E6F20000  R  1071           MOV     R2,#SEG _ME_WndCallback
014E DC59         1072           EXTP    R9,#02h
0150 C4180E00 2   1073           MOV     [R8+#0EH],R1
0154 C4281000 1   1074           MOV     [R8+#010H],R2
                  1075   ; me_wnd.c   69 
                  1076   ; me_wnd.c   70     /* Fill other fields */
                  1077   ; me_wnd.c   71     retval = ME_Request (&request->request);
                  1078           ?LINE   71
0158 88C0         1079           MOV     [-R0],R12
               R  1080           ?SYMB   '',$,96,8
015A 88D0         1081           MOV     [-R0],R13
               R  1082           ?SYMB   '',$,96,10
015C 88E0         1083           MOV     [-R0],R14
               R  1084           ?SYMB   '',$,96,12
015E 88F0         1085           MOV     [-R0],R15
               R  1086           ?SYMB   '',$,96,14
0160 F0C8         1087           MOV     R12,R8
0162 F0D9         1088           MOV     R13,R9
0164 DA000000  R  1089           CALLS   SEG _ME_Request,_ME_Request
0168 F064         1090           MOV     R6,R4
               R  1091           ?SYMB   'R6',$,100,1
016A 98F0         1092           MOV     R15,[R0+]
               R  1093           ?SYMB   '',$,96,12
016C 98E0         1094           MOV     R14,[R0+]
               R  1095           ?SYMB   '',$,96,10
016E 98D0         1096           MOV     R13,[R0+]
               R  1097           ?SYMB   '',$,96,8
0170 98C0         1098           MOV     R12,[R0+]
               R  1099           ?SYMB   '',$,96,6
                  1100   ; me_wnd.c   72     if ( retval != 0 ) 
                  1101           ?LINE   72
0172 4860         1102           CMP     R6,#00h
0174 2D22         1103           JMPR    cc_Z,_25
                  1104   ; me_wnd.c   73         {
                  1105   ; me_wnd.c   74                 if ( retval == 1 )
                  1106           ?LINE   74
0176 4861         1107           CMP     R6,#01h
0178 3D1C         1108           JMPR    cc_NE,_24
                  1109   ; me_wnd.c   75                         SendMessage (request->hWnd, request->message,
                  1110   ; me_wnd.c   76                                 (WORD)request->request.result_len, (DWORD)reque
                         st->request.result);
                  1111           ?LINE   76
017A DC59         1112           EXTP    R9,#02h
017C D4181800 2   1113           MOV     R1,[R8+#018H]
0180 D4281A00 1   1114           MOV     R2,[R8+#01AH]
0184 F032         1115           MOV     R3,R2
0186 5CE3         1116           SHL     R3,#0Eh
0188 7013         1117           OR      R1,R3
018A 7C22         1118           SHR     R2,#02h
018C 8820         1119           MOV     [-R0],R2
               R  1120           ?SYMB   '',$,96,8
018E 8810         1121           MOV     [-R0],R1
               R  1122           ?SYMB   '',$,96,10
0190 DC49         1123           EXTP    R9,#01h
0192 D4381C00 1   1124           MOV     R3,[R8+#01CH]
0196 E004         1125           MOV     R4,#00h
0198 8840         1126           MOV     [-R0],R4
               R  1127           ?SYMB   '',$,96,12
019A 8830         1128           MOV     [-R0],R3
               R  1129           ?SYMB   '',$,96,14
019C F05C         1130           MOV     R5,R12
019E F0AD         1131           MOV     R10,R13
01A0 DC5A         1132           EXTP    R10,#02h
01A2 98C5     2   1133           MOV     R12,[R5+]
01A4 A8D5     1   1134           MOV     R13,[R5]
01A6 DC4F         1135           EXTP    R15,#01h
01A8 A8EE     1   1136           MOV     R14,[R14]
01AA DA000000  R  1137           CALLS   SEG _SendMessage,_SendMessage
01AE 06F00800     1138           ADD     R0,#08h
               R  1139           ?SYMB   '',$,96,6
01B2              1140   _24:
                  1141   ; me_wnd.c   77                 /* Free this request structure */
                  1142   ; me_wnd.c   78                 request->used_flag = 0;
                  1143           ?LINE   78
01B2 E00C         1144           MOV     R12,#00h
01B4 DC49         1145           EXTP    R9,#01h
01B6 C4C83A01 1   1146           MOV     [R8+#013AH],R12
                  1147   ; me_wnd.c   79     }
                  1148           ?LINE   79
01BA              1149   _25:
               R  1150           ?SYMB   '',$,102,4
                  1151   ; me_wnd.c   80 
                  1152   ; me_wnd.c   81     return retval;
                  1153           ?LINE   81
01BA F046         1154           MOV     R4,R6
                  1155   ; me_wnd.c   82 }
                  1156           ?LINE   82
01BC 9860         1157           MOV     R6,[R0+]
               R  1158           ?SYMB   '',$,102,1
               R  1159           ?SYMB   '',$,96,4
01BE 9880         1160           MOV     R8,[R0+]
               R  1161           ?SYMB   '',$,96,2
01C0 9890         1162           MOV     R9,[R0+]
               R  1163           ?SYMB   '',$,96,0
01C2 DB00         1164           RETS
                  1165   _ME_SampleRequest       ENDP
               R  1166           ?SYMB   '',$,17,82
                  1167   ; me_wnd.c   83 
                  1168   ; me_wnd.c   84 int ME_Initialize( int Mode )
                  1169   ; me_wnd.c   85 {
                  1170           ?LINE   85
                  1171           PUBLIC  _ME_Initialize
               R  1172           ?SYMB   'ME_Initialize',_ME_Initialize,37,16
                  1173           ?SYMB   '',85,8,34
                  1174   _ME_Initialize  PROC    FAR
                  1175           ?SYMB   '',0300H,95,0
01C4 8890         1176           MOV     [-R0],R9
               R  1177           ?SYMB   '',$,96,2
01C6 8880         1178           MOV     [-R0],R8
               R  1179           ?SYMB   '',$,96,4
                  1180   ; Locals:
                  1181   ; 
                  1182   ; Statics:
                  1183   ; 
                  1184   ; CSEs:
                  1185   ;     request = R8R9
                  1186   ;     retval = R12
                  1187   ;     Mode = R12
                  1188   ; 
                  1189           ?SYMB   'Mode',2,99,16
                  1190           ?SYMB   'retval',1,98,16
                  1191           ?SYMB   'request',3,98,547
               R  1192           ?SYMB   'R12',$,100,2
                  1193   ; me_wnd.c   86         int retval = 0;
                  1194   ; me_wnd.c   87 
                  1195   ; me_wnd.c   88         struct ME_REQUEST_WIN * request = FindRequestStruct( -1 );
                  1196           ?LINE   88
01C8 88C0         1197           MOV     [-R0],R12
               R  1198           ?SYMB   '',$,96,6
01CA E6FCFFFF     1199           MOV     R12,#0FFFFh
               R  1200           ?SYMB   '',$,102,2
01CE DA000000  R  1201           CALLS   SEG _FindRequestStruct,_FindRequestStruct
01D2 F084         1202           MOV     R8,R4
01D4 F095         1203           MOV     R9,R5
               R  1204           ?SYMB   'R8R9',$,100,3
01D6 98C0         1205           MOV     R12,[R0+]
               R  1206           ?SYMB   '',$,96,4
               R  1207           ?SYMB   'R12',$,100,2
                  1208   ; me_wnd.c   89 
                  1209   ; me_wnd.c   90         request->request.cmd = ME_INIT;
                  1210           ?LINE   90
01D8 E01D         1211           MOV     R13,#01h
01DA DC59         1212           EXTP    R9,#02h
01DC B8D8     2   1213           MOV     [R8],R13
                  1214   ; me_wnd.c   91 
                  1215   ; me_wnd.c   92         request->request.arg1 = Mode;
                  1216           ?LINE   92
01DE C4C80200 1   1217           MOV     [R8+#02H],R12
                  1218   ; me_wnd.c   93 
                  1219   ; me_wnd.c   94         retval = ME_Request( &request->request );
                  1220           ?LINE   94
01E2 F0C8         1221           MOV     R12,R8
               R  1222           ?SYMB   '',$,102,2
01E4 F0D9         1223           MOV     R13,R9
01E6 DA000000  R  1224           CALLS   SEG _ME_Request,_ME_Request
01EA F0C4         1225           MOV     R12,R4
               R  1226           ?SYMB   'R12',$,100,1
                  1227   ; me_wnd.c   95 
                  1228   ; me_wnd.c   96         request->used_flag = 0;
                  1229           ?LINE   96
01EC E00D         1230           MOV     R13,#00h
01EE DC49         1231           EXTP    R9,#01h
01F0 C4D83A01 1   1232           MOV     [R8+#013AH],R13
                  1233   ; me_wnd.c   97 
                  1234   ; me_wnd.c   98         return retval;
                  1235           ?LINE   98
01F4 F04C         1236           MOV     R4,R12
                  1237   ; me_wnd.c   99 }
                  1238           ?LINE   99
01F6 9880         1239           MOV     R8,[R0+]
               R  1240           ?SYMB   '',$,102,3
               R  1241           ?SYMB   '',$,96,2
01F8 9890         1242           MOV     R9,[R0+]
               R  1243           ?SYMB   '',$,96,0
01FA DB00         1244           RETS
               R  1245           ?SYMB   '',$,102,1
                  1246   _ME_Initialize  ENDP
               R  1247           ?SYMB   '',$,17,99
                  1248   ; me_wnd.c  100 
                  1249   ; me_wnd.c  101 int ME_GSMInit_Module_3( HWND hWnd, UINT Msg )
                  1250   ; me_wnd.c  102 {
                  1251           ?LINE   102
                  1252           PUBLIC  _ME_GSMInit_Module_3
               R  1253           ?SYMB   'ME_GSMInit_Module_3',_ME_GSMInit_Module_3,37,16
                  1254           ?SYMB   '',102,8,34
                  1255   _ME_GSMInit_Module_3    PROC    FAR
                  1256           ?SYMB   '',0300H,95,0
01FC 8890         1257           MOV     [-R0],R9
               R  1258           ?SYMB   '',$,96,2
01FE 8880         1259           MOV     [-R0],R8
               R  1260           ?SYMB   '',$,96,4
                  1261   ; Locals:
                  1262   ; 
                  1263   ; Statics:
                  1264   ; 
                  1265   ; CSEs:
                  1266   ;     request = R8R9
                  1267   ;     retval = R12
                  1268   ;     hWnd = R12R13
                  1269   ;     Msg = R14
                  1270   ; 
                  1271           ?SYMB   'hWnd',3,99,394
                  1272           ?SYMB   'Msg',2,99,263
                  1273           ?SYMB   'retval',1,98,16
                  1274           ?SYMB   'request',4,98,547
               R  1275           ?SYMB   'R12R13',$,100,3
               R  1276           ?SYMB   'R14',$,100,2
                  1277   ; me_wnd.c  103         int retval = 0;
                  1278   ; me_wnd.c  104         struct ME_REQUEST_WIN * request = FindRequestStruct( -1 );
                  1279           ?LINE   104
0200 88C0         1280           MOV     [-R0],R12
               R  1281           ?SYMB   '',$,96,6
0202 88D0         1282           MOV     [-R0],R13
               R  1283           ?SYMB   '',$,96,8
0204 88E0         1284           MOV     [-R0],R14
               R  1285           ?SYMB   '',$,96,10
0206 E6FCFFFF     1286           MOV     R12,#0FFFFh
               R  1287           ?SYMB   '',$,102,3
020A DA000000  R  1288           CALLS   SEG _FindRequestStruct,_FindRequestStruct
               R  1289           ?SYMB   '',$,102,2
020E F084         1290           MOV     R8,R4
0210 F095         1291           MOV     R9,R5
               R  1292           ?SYMB   'R8R9',$,100,4
0212 98E0         1293           MOV     R14,[R0+]
               R  1294           ?SYMB   '',$,96,8
               R  1295           ?SYMB   'R14',$,100,2
0214 98D0         1296           MOV     R13,[R0+]
               R  1297           ?SYMB   '',$,96,6
0216 98C0         1298           MOV     R12,[R0+]
               R  1299           ?SYMB   '',$,96,4
               R  1300           ?SYMB   'R12R13',$,100,3
                  1301   ; me_wnd.c  105 
                  1302   ; me_wnd.c  106         if ( NULL == request )
                  1303           ?LINE   106
0218 F0F9         1304           MOV     R15,R9
021A 70F8         1305           OR      R15,R8
021C 3D03         1306           JMPR    cc_NZ,_28
                  1307   ; me_wnd.c  107                 return -1;
                  1308           ?LINE   107
021E E6F4FFFF     1309           MOV     R4,#0FFFFh
0222 0D18         1310           JMPR    cc_UC,_29
0224              1311   _28:
               R  1312           ?SYMB   '',$,102,4
               R  1313           ?SYMB   '',$,102,2
               R  1314           ?SYMB   '',$,102,3
               R  1315           ?SYMB   'R8R9',$,100,4
               R  1316           ?SYMB   'R12R13',$,100,3
               R  1317           ?SYMB   'R14',$,100,2
                  1318   ; me_wnd.c  108 
                  1319   ; me_wnd.c  109     request->hWnd = hWnd;
                  1320           ?LINE   109
0224 DC59         1321           EXTP    R9,#02h
0226 C4C83C01 2   1322           MOV     [R8+#013CH],R12
022A C4D83E01 1   1323           MOV     [R8+#013EH],R13
                  1324   ; me_wnd.c  110     request->message = Msg;
                  1325   ; me_wnd.c  111 
                  1326   ; me_wnd.c  112     /* Fill the request */
                  1327   ; me_wnd.c  113         request->request.cmd = ME_INIT_WAVE_EVERYTIME;
                  1328           ?LINE   113
022E E02C         1329           MOV     R12,#02h
                  1330           ?LINE   110
0230 DC59         1331           EXTP    R9,#02h
0232 C4E84001 2   1332           MOV     [R8+#0140H],R14
               R  1333           ?SYMB   '',$,102,3
                  1334           ?LINE   113
0236 B8C8     1   1335           MOV     [R8],R12
                  1336   ; me_wnd.c  114     request->request.reply = ME_WndCallback;
                  1337           ?LINE   114
0238 E6FD0000  R  1338           MOV     R13,#SOF _ME_WndCallback
023C E6FE0000  R  1339           MOV     R14,#SEG _ME_WndCallback
               R  1340           ?SYMB   '',$,102,2
0240 DC59         1341           EXTP    R9,#02h
0242 C4D80E00 2   1342           MOV     [R8+#0EH],R13
0246 C4E81000 1   1343           MOV     [R8+#010H],R14
                  1344   ; me_wnd.c  115 
                  1345   ; me_wnd.c  116         retval = ME_Request( &(request->request) );
                  1346           ?LINE   116
024A F0C8         1347           MOV     R12,R8
024C F0D9         1348           MOV     R13,R9
024E DA000000  R  1349           CALLS   SEG _ME_Request,_ME_Request
               R  1350           ?SYMB   '',$,102,4
0252 F0C4         1351           MOV     R12,R4
               R  1352           ?SYMB   'R12',$,100,1
                  1353   ; me_wnd.c  117 
                  1354   ; me_wnd.c  118         return retval;
                  1355   ; me_wnd.c  119 }
                  1356           ?LINE   119
0254              1357   _29:
               R  1358           ?SYMB   '',$,102,1
0254 9880         1359           MOV     R8,[R0+]
               R  1360           ?SYMB   '',$,96,2
0256 9890         1361           MOV     R9,[R0+]
               R  1362           ?SYMB   '',$,96,0
0258 DB00         1363           RETS
                  1364   _ME_GSMInit_Module_3    ENDP
               R  1365           ?SYMB   '',$,17,119
                  1366   ; me_wnd.c  120 
                  1367   ; me_wnd.c  121 int ME_GSMInit_Module( HWND hWnd, UINT Msg )
                  1368   ; me_wnd.c  122 {
                  1369           ?LINE   122
                  1370           PUBLIC  _ME_GSMInit_Module
               R  1371           ?SYMB   'ME_GSMInit_Module',_ME_GSMInit_Module,37,16
                  1372           ?SYMB   '',122,8,34
                  1373   _ME_GSMInit_Module      PROC    FAR
                  1374           ?SYMB   '',0300H,95,0
025A 8890         1375           MOV     [-R0],R9
               R  1376           ?SYMB   '',$,96,2
025C 8880         1377           MOV     [-R0],R8
               R  1378           ?SYMB   '',$,96,4
                  1379   ; Locals:
                  1380   ; 
                  1381   ; Statics:
                  1382   ; 
                  1383   ; CSEs:
                  1384   ;     request = R8R9
                  1385   ;     retval = R12
                  1386   ;     hWnd = R12R13
                  1387   ;     Msg = R14
                  1388   ; 
                  1389           ?SYMB   'hWnd',3,99,394
                  1390           ?SYMB   'Msg',2,99,263
                  1391           ?SYMB   'retval',1,98,16
                  1392           ?SYMB   'request',4,98,547
               R  1393           ?SYMB   'R12R13',$,100,3
               R  1394           ?SYMB   'R14',$,100,2
                  1395   ; me_wnd.c  123         int retval = 0;
                  1396   ; me_wnd.c  124         struct ME_REQUEST_WIN * request = FindRequestStruct( -1 );
                  1397           ?LINE   124
025E 88C0         1398           MOV     [-R0],R12
               R  1399           ?SYMB   '',$,96,6
0260 88D0         1400           MOV     [-R0],R13
               R  1401           ?SYMB   '',$,96,8
0262 88E0         1402           MOV     [-R0],R14
               R  1403           ?SYMB   '',$,96,10
0264 E6FCFFFF     1404           MOV     R12,#0FFFFh
               R  1405           ?SYMB   '',$,102,3
0268 DA000000  R  1406           CALLS   SEG _FindRequestStruct,_FindRequestStruct
               R  1407           ?SYMB   '',$,102,2
026C F084         1408           MOV     R8,R4
026E F095         1409           MOV     R9,R5
               R  1410           ?SYMB   'R8R9',$,100,4
0270 98E0         1411           MOV     R14,[R0+]
               R  1412           ?SYMB   '',$,96,8
               R  1413           ?SYMB   'R14',$,100,2
0272 98D0         1414           MOV     R13,[R0+]
               R  1415           ?SYMB   '',$,96,6
0274 98C0         1416           MOV     R12,[R0+]
               R  1417           ?SYMB   '',$,96,4
               R  1418           ?SYMB   'R12R13',$,100,3
                  1419   ; me_wnd.c  125 
                  1420   ; me_wnd.c  126         if ( NULL == request )
                  1421           ?LINE   126
0276 F0F9         1422           MOV     R15,R9
0278 70F8         1423           OR      R15,R8
027A 3D03         1424           JMPR    cc_NZ,_32
                  1425   ; me_wnd.c  127                 return -1;
                  1426           ?LINE   127
027C E6F4FFFF     1427           MOV     R4,#0FFFFh
0280 0D18         1428           JMPR    cc_UC,_33
0282              1429   _32:
               R  1430           ?SYMB   '',$,102,4
               R  1431           ?SYMB   '',$,102,2
               R  1432           ?SYMB   '',$,102,3
               R  1433           ?SYMB   'R8R9',$,100,4
               R  1434           ?SYMB   'R12R13',$,100,3
               R  1435           ?SYMB   'R14',$,100,2
                  1436   ; me_wnd.c  128 
                  1437   ; me_wnd.c  129     request->hWnd = hWnd;
                  1438           ?LINE   129
0282 DC59         1439           EXTP    R9,#02h
0284 C4C83C01 2   1440           MOV     [R8+#013CH],R12
0288 C4D83E01 1   1441           MOV     [R8+#013EH],R13
                  1442   ; me_wnd.c  130     request->message = Msg;
                  1443   ; me_wnd.c  131 
                  1444   ; me_wnd.c  132     /* Fill the request */
                  1445   ; me_wnd.c  133         request->request.cmd = ME_INIT_WAVE_EQUIP_SET;
                  1446           ?LINE   133
028C E00C         1447           MOV     R12,#00h
                  1448           ?LINE   130
028E DC59         1449           EXTP    R9,#02h
0290 C4E84001 2   1450           MOV     [R8+#0140H],R14
               R  1451           ?SYMB   '',$,102,3
                  1452           ?LINE   133
0294 B8C8     1   1453           MOV     [R8],R12
                  1454   ; me_wnd.c  134     request->request.reply = ME_WndCallback;
                  1455           ?LINE   134
0296 E6FD0000  R  1456           MOV     R13,#SOF _ME_WndCallback
029A E6FE0000  R  1457           MOV     R14,#SEG _ME_WndCallback
               R  1458           ?SYMB   '',$,102,2
029E DC59         1459           EXTP    R9,#02h
02A0 C4D80E00 2   1460           MOV     [R8+#0EH],R13
02A4 C4E81000 1   1461           MOV     [R8+#010H],R14
                  1462   ; me_wnd.c  135 
                  1463   ; me_wnd.c  136         retval = ME_Request( &(request->request) );
                  1464           ?LINE   136
02A8 F0C8         1465           MOV     R12,R8
02AA F0D9         1466           MOV     R13,R9
02AC DA000000  R  1467           CALLS   SEG _ME_Request,_ME_Request
               R  1468           ?SYMB   '',$,102,4
02B0 F0C4         1469           MOV     R12,R4
               R  1470           ?SYMB   'R12',$,100,1
                  1471   ; me_wnd.c  137 
                  1472   ; me_wnd.c  138         return retval;
                  1473   ; me_wnd.c  139 }
                  1474           ?LINE   139
02B2              1475   _33:
               R  1476           ?SYMB   '',$,102,1
02B2 9880         1477           MOV     R8,[R0+]
               R  1478           ?SYMB   '',$,96,2
02B4 9890         1479           MOV     R9,[R0+]
               R  1480           ?SYMB   '',$,96,0
02B6 DB00         1481           RETS
                  1482   _ME_GSMInit_Module      ENDP
               R  1483           ?SYMB   '',$,17,139
                  1484   ; me_wnd.c  140 
                  1485   ; me_wnd.c  141 int ME_GSMInit_Module_2( HWND hWnd, UINT Msg )
                  1486   ; me_wnd.c  142 {
                  1487           ?LINE   142
                  1488           PUBLIC  _ME_GSMInit_Module_2
               R  1489           ?SYMB   'ME_GSMInit_Module_2',_ME_GSMInit_Module_2,37,16
                  1490           ?SYMB   '',142,8,34
                  1491   _ME_GSMInit_Module_2    PROC    FAR
                  1492           ?SYMB   '',0300H,95,0
02B8 8890         1493           MOV     [-R0],R9
               R  1494           ?SYMB   '',$,96,2
02BA 8880         1495           MOV     [-R0],R8
               R  1496           ?SYMB   '',$,96,4
                  1497   ; Locals:
                  1498   ; 
                  1499   ; Statics:
                  1500   ; 
                  1501   ; CSEs:
                  1502   ;     request = R8R9
                  1503   ;     retval = R12
                  1504   ;     hWnd = R12R13
                  1505   ;     Msg = R14
                  1506   ; 
                  1507           ?SYMB   'hWnd',3,99,394
                  1508           ?SYMB   'Msg',2,99,263
                  1509           ?SYMB   'retval',1,98,16
                  1510           ?SYMB   'request',4,98,547
               R  1511           ?SYMB   'R12R13',$,100,3
               R  1512           ?SYMB   'R14',$,100,2
                  1513   ; me_wnd.c  143         int retval = 0;
                  1514   ; me_wnd.c  144         struct ME_REQUEST_WIN * request = FindRequestStruct( -1 );
                  1515           ?LINE   144
02BC 88C0         1516           MOV     [-R0],R12
               R  1517           ?SYMB   '',$,96,6
02BE 88D0         1518           MOV     [-R0],R13
               R  1519           ?SYMB   '',$,96,8
02C0 88E0         1520           MOV     [-R0],R14
               R  1521           ?SYMB   '',$,96,10
02C2 E6FCFFFF     1522           MOV     R12,#0FFFFh
               R  1523           ?SYMB   '',$,102,3
02C6 DA000000  R  1524           CALLS   SEG _FindRequestStruct,_FindRequestStruct
               R  1525           ?SYMB   '',$,102,2
02CA F084         1526           MOV     R8,R4
02CC F095         1527           MOV     R9,R5
               R  1528           ?SYMB   'R8R9',$,100,4
02CE 98E0         1529           MOV     R14,[R0+]
               R  1530           ?SYMB   '',$,96,8
               R  1531           ?SYMB   'R14',$,100,2
02D0 98D0         1532           MOV     R13,[R0+]
               R  1533           ?SYMB   '',$,96,6
02D2 98C0         1534           MOV     R12,[R0+]
               R  1535           ?SYMB   '',$,96,4
               R  1536           ?SYMB   'R12R13',$,100,3
                  1537   ; me_wnd.c  145 
                  1538   ; me_wnd.c  146         if ( NULL == request )
                  1539           ?LINE   146
02D4 F0F9         1540           MOV     R15,R9
02D6 70F8         1541           OR      R15,R8
02D8 3D03         1542           JMPR    cc_NZ,_36
                  1543   ; me_wnd.c  147                 return -1;
                  1544           ?LINE   147
02DA E6F4FFFF     1545           MOV     R4,#0FFFFh
02DE 0D18         1546           JMPR    cc_UC,_37
02E0              1547   _36:
               R  1548           ?SYMB   '',$,102,4
               R  1549           ?SYMB   '',$,102,2
               R  1550           ?SYMB   '',$,102,3
               R  1551           ?SYMB   'R8R9',$,100,4
               R  1552           ?SYMB   'R12R13',$,100,3
               R  1553           ?SYMB   'R14',$,100,2
                  1554   ; me_wnd.c  148 
                  1555   ; me_wnd.c  149     request->hWnd = hWnd;
                  1556           ?LINE   149
02E0 DC59         1557           EXTP    R9,#02h
02E2 C4C83C01 2   1558           MOV     [R8+#013CH],R12
02E6 C4D83E01 1   1559           MOV     [R8+#013EH],R13
                  1560   ; me_wnd.c  150     request->message = Msg;
                  1561   ; me_wnd.c  151 
                  1562   ; me_wnd.c  152     /* Fill the request */
                  1563   ; me_wnd.c  153         request->request.cmd = ME_INIT_WAVE_EQUIP_RESET;
                  1564           ?LINE   153
02EA E01C         1565           MOV     R12,#01h
                  1566           ?LINE   150
02EC DC59         1567           EXTP    R9,#02h
02EE C4E84001 2   1568           MOV     [R8+#0140H],R14
               R  1569           ?SYMB   '',$,102,3
                  1570           ?LINE   153
02F2 B8C8     1   1571           MOV     [R8],R12
                  1572   ; me_wnd.c  154     request->request.reply = ME_WndCallback;
                  1573           ?LINE   154
02F4 E6FD0000  R  1574           MOV     R13,#SOF _ME_WndCallback
02F8 E6FE0000  R  1575           MOV     R14,#SEG _ME_WndCallback
               R  1576           ?SYMB   '',$,102,2
02FC DC59         1577           EXTP    R9,#02h
02FE C4D80E00 2   1578           MOV     [R8+#0EH],R13
0302 C4E81000 1   1579           MOV     [R8+#010H],R14
                  1580   ; me_wnd.c  155 
                  1581   ; me_wnd.c  156         retval = ME_Request( &(request->request) );
                  1582           ?LINE   156
0306 F0C8         1583           MOV     R12,R8
0308 F0D9         1584           MOV     R13,R9
030A DA000000  R  1585           CALLS   SEG _ME_Request,_ME_Request
               R  1586           ?SYMB   '',$,102,4
030E F0C4         1587           MOV     R12,R4
               R  1588           ?SYMB   'R12',$,100,1
                  1589   ; me_wnd.c  157 
                  1590   ; me_wnd.c  158         return retval;
                  1591   ; me_wnd.c  159 }
                  1592           ?LINE   159
0310              1593   _37:
               R  1594           ?SYMB   '',$,102,1
0310 9880         1595           MOV     R8,[R0+]
               R  1596           ?SYMB   '',$,96,2
0312 9890         1597           MOV     R9,[R0+]
               R  1598           ?SYMB   '',$,96,0
0314 DB00         1599           RETS
                  1600   _ME_GSMInit_Module_2    ENDP
               R  1601           ?SYMB   '',$,17,159
                  1602   ; me_wnd.c  160 
                  1603   ; me_wnd.c  161 
                  1604   ; me_wnd.c  162 int ME_RegisterIndication( int MsgClass, int Mode, HWND hwnd, UINT msg )
                  1605   ; me_wnd.c  163 {
                  1606           ?LINE   163
                  1607           PUBLIC  _ME_RegisterIndication
               R  1608           ?SYMB   'ME_RegisterIndication',_ME_RegisterIndication,37,16
                  1609           ?SYMB   '',163,8,34
                  1610   _ME_RegisterIndication  PROC    FAR
                  1611           ?SYMB   '',00H,95,0
                  1612   ; Locals:
                  1613   ; 
                  1614   ; Statics:
                  1615   ; 
                  1616   ; CSEs:
                  1617   ;     ret = R12
                  1618   ;     id2 * 18 + id1 * 194 = R13
                  1619   ;     hwnd = R14R15
                  1620   ;     id2 = R13
                  1621   ;     id1 = R1
                  1622   ;     Mode = R13
                  1623   ;     MsgClass = R12
                  1624   ;     msg = offset 0
                  1625   ; 
                  1626           ?SYMB   'MsgClass',6,99,16
                  1627           ?SYMB   'Mode',5,99,16
                  1628           ?SYMB   'hwnd',7,99,394
                  1629           ?SYMB   'msg',1,99,263
                  1630           ?SYMB   'ret',4,98,16
                  1631           ?SYMB   'id1',3,98,16
                  1632           ?SYMB   'id2',2,98,16
               R  1633           ?SYMB   'R14R15',$,100,7
               R  1634           ?SYMB   'R12',$,100,6
               R  1635           ?SYMB   'R13',$,100,5
               R  1636           ?SYMB   '0',$,101,1
                  1637   ; me_wnd.c  164         int ret, id1, id2;
                  1638   ; me_wnd.c  165 
                  1639   ; me_wnd.c  166         if ( hwnd == NULL )
                  1640           ?LINE   166
0316 F01F         1641           MOV     R1,R15
0318 701E         1642           OR      R1,R14
031A 2D0D         1643           JMPR    cc_Z,_42
                  1644   ; me_wnd.c  167                 return -1;
                  1645   ; me_wnd.c  168 
                  1646   ; me_wnd.c  169         ret = ME_RegisterInd( MsgClass, Mode, ME_URCCallback );
                  1647           ?LINE   169
031C 88E0         1648           MOV     [-R0],R14
               R  1649           ?SYMB   '',$,96,2
031E 88F0         1650           MOV     [-R0],R15
               R  1651           ?SYMB   '',$,96,4
0320 E6FE0000  R  1652           MOV     R14,#SOF _ME_URCCallback
               R  1653           ?SYMB   '',$,102,7
0324 E6FF0000  R  1654           MOV     R15,#SEG _ME_URCCallback
0328 DA000000  R  1655           CALLS   SEG _ME_RegisterInd,_ME_RegisterInd
               R  1656           ?SYMB   '',$,102,6
               R  1657           ?SYMB   '',$,102,5
032C F0C4         1658           MOV     R12,R4
               R  1659           ?SYMB   'R12',$,100,4
032E 98F0         1660           MOV     R15,[R0+]
               R  1661           ?SYMB   '',$,96,2
0330 98E0         1662           MOV     R14,[R0+]
               R  1663           ?SYMB   '',$,96,0
               R  1664           ?SYMB   'R14R15',$,100,7
                  1665   ; me_wnd.c  170 
                  1666   ; me_wnd.c  171         if ( ret < 0 )
                  1667           ?LINE   171
0332 48C0         1668           CMP     R12,#00h
0334 DD03         1669           JMPR    cc_SGE,_43
               R  1670           ?SYMB   '',$,102,1
                  1671   ; me_wnd.c  172                 return -1;
                  1672           ?LINE   172
0336              1673   _42:
               R  1674           ?SYMB   '',$,102,4
               R  1675           ?SYMB   '',$,102,7
0336 E6F4FFFF     1676           MOV     R4,#0FFFFh
033A DB00         1677           RETS
033C              1678   _43:
               R  1679           ?SYMB   'R14R15',$,100,7
               R  1680           ?SYMB   'R12',$,100,4
               R  1681           ?SYMB   '0',$,101,1
                  1682   ; me_wnd.c  173 
                  1683   ; me_wnd.c  174         id1 = (int)ret/100;
                  1684           ?LINE   174
033C F01C         1685           MOV     R1,R12
033E E6FD6400     1686           MOV     R13,#064h
0342 F6F10EFE     1687           MOV     MDL,R1
0346 D110         1688           ATOMIC  #02h
0348 4BDD     2   1689           DIV     R13
034A CC00     1   1690           NOP
034C F2F10EFE     1691           MOV     R1,MDL
               R  1692           ?SYMB   'R1',$,100,3
                  1693   ; me_wnd.c  175         id2 = (int)ret%100;
                  1694           ?LINE   175
0350 F0DC         1695           MOV     R13,R12
0352 E6F26400     1696           MOV     R2,#064h
0356 F6FD0EFE     1697           MOV     MDL,R13
035A D110         1698           ATOMIC  #02h
035C 4B22     2   1699           DIV     R2
035E CC00     1   1700           NOP
0360 F2FD0CFE     1701           MOV     R13,MDH
               R  1702           ?SYMB   'R13',$,100,2
                  1703   ; me_wnd.c  176 
                  1704   ; me_wnd.c  177         IndTable.Inds[id1].regs[id2].hwnd = hwnd;
                  1705           ?LINE   177
0364 F03D         1706           MOV     R3,R13
0366 5C3D         1707           SHL     R13,#03h
               R  1708           ?SYMB   '',$,102,2
0368 00D3         1709           ADD     R13,R3
036A 5C1D         1710           SHL     R13,#01h
036C E6F4C200     1711           MOV     R4,#0C2h
0370 D110         1712           ATOMIC  #02h
0372 0B14     2   1713           MUL     R1,R4
0374 CC00     1   1714           NOP
0376 F2F10EFE     1715           MOV     R1,MDL
               R  1716           ?SYMB   '',$,102,3
037A 00D1         1717           ADD     R13,R1
037C D7500000  R  1718           EXTP    #PAG _IndTable,#02h
0380 C4ED0000 2R  1719           MOV     [R13+#POF _IndTable+12],R14
0384 C4FD0000 1R  1720           MOV     [R13+#POF _IndTable+14],R15
                  1721   ; me_wnd.c  178         IndTable.Inds[id1].regs[id2].msg = msg;
                  1722           ?LINE   178
0388 A8E0         1723           MOV     R14,[R0]
               R  1724           ?SYMB   '',$,102,7
038A D7400000  R  1725           EXTP    #PAG _IndTable,#01h
038E C4ED0000 1R  1726           MOV     [R13+#POF _IndTable+16],R14
                  1727   ; me_wnd.c  179 
                  1728   ; me_wnd.c  180         return ret;
                  1729           ?LINE   180
0392 F04C         1730           MOV     R4,R12
                  1731   ; me_wnd.c  181 }
                  1732           ?LINE   181
0394              1733   _44:
               R  1734           ?SYMB   '',$,102,4
0394 DB00         1735           RETS
                  1736   _ME_RegisterIndication  ENDP
               R  1737           ?SYMB   '',$,17,181
                  1738   ; me_wnd.c  182 
                  1739   ; me_wnd.c  183 BOOL ME_UnRegisterIndication( int Handle )
                  1740   ; me_wnd.c  184 {
                  1741           ?LINE   184
                  1742           PUBLIC  _ME_UnRegisterIndication
               R  1743           ?SYMB   'ME_UnRegisterIndication',_ME_UnRegisterIndication,37,258
                  1744           ?SYMB   '',184,8,34
                  1745   _ME_UnRegisterIndication        PROC    FAR
                  1746           ?SYMB   '',00H,95,0
                  1747   ; Locals:
                  1748   ; 
                  1749   ; Statics:
                  1750   ; 
                  1751   ; CSEs:
                  1752   ;     retval = R12
                  1753   ;     Handle = R12
                  1754   ; 
                  1755           ?SYMB   'Handle',2,99,16
                  1756           ?SYMB   'retval',1,98,16
               R  1757           ?SYMB   'R12',$,100,2
                  1758   ; me_wnd.c  185         int retval;
                  1759   ; me_wnd.c  186 
                  1760   ; me_wnd.c  187         retval = ME_UnRegisterInd( Handle );
                  1761           ?LINE   187
0396 DA000000  R  1762           CALLS   SEG _ME_UnRegisterInd,_ME_UnRegisterInd
               R  1763           ?SYMB   '',$,102,2
039A F0C4         1764           MOV     R12,R4
               R  1765           ?SYMB   'R12',$,100,1
                  1766   ; me_wnd.c  188 
                  1767   ; me_wnd.c  189         if ( retval < 0 )
                  1768           ?LINE   189
039C 48C0         1769           CMP     R12,#00h
039E DD02         1770           JMPR    cc_SGE,_45
                  1771   ; me_wnd.c  190                 return FALSE;
                  1772           ?LINE   190
03A0 E004         1773           MOV     R4,#00h
03A2 DB00         1774           RETS
               R  1775           ?SYMB   '',$,102,1
03A4              1776   _45:
                  1777   ; me_wnd.c  191 
                  1778   ; me_wnd.c  192         return TRUE;
                  1779           ?LINE   192
03A4 E014         1780           MOV     R4,#01h
                  1781   ; me_wnd.c  193 }
                  1782           ?LINE   193
03A6              1783   _46:
03A6 DB00         1784           RETS
                  1785   _ME_UnRegisterIndication        ENDP
               R  1786           ?SYMB   '',$,17,193
                  1787   ; me_wnd.c  194 
                  1788   ; me_wnd.c  195 int ME_CancelFunction( int Handle )
                  1789   ; me_wnd.c  196 {
                  1790           ?LINE   196
                  1791           PUBLIC  _ME_CancelFunction
               R  1792           ?SYMB   'ME_CancelFunction',_ME_CancelFunction,37,16
                  1793           ?SYMB   '',196,8,34
                  1794   _ME_CancelFunction      PROC    FAR
                  1795           ?SYMB   '',0300H,95,0
03A8 8890         1796           MOV     [-R0],R9
               R  1797           ?SYMB   '',$,96,2
03AA 8880         1798           MOV     [-R0],R8
               R  1799           ?SYMB   '',$,96,4
                  1800   ; Locals:
                  1801   ; 
                  1802   ; Statics:
                  1803   ; 
                  1804   ; CSEs:
                  1805   ;     request = R8R9
                  1806   ;     Handle = R12
                  1807   ;     retval = R12
                  1808   ; 
                  1809           ?SYMB   'Handle',3,99,16
                  1810           ?SYMB   'request',2,98,547
                  1811           ?SYMB   'retval',1,98,16
               R  1812           ?SYMB   'R12',$,100,3
                  1813   ; me_wnd.c  197         struct ME_REQUEST_WIN * request;
                  1814   ; me_wnd.c  198         int retval;
                  1815   ; me_wnd.c  199 
                  1816   ; me_wnd.c  200         if ( Handle < 0 )
                  1817           ?LINE   200
03AC 48C0         1818           CMP     R12,#00h
03AE CD07         1819           JMPR    cc_SLT,_52
                  1820   ; me_wnd.c  201                 return -1;
                  1821   ; me_wnd.c  202 
                  1822   ; me_wnd.c  203         request = FindRequestStruct( Handle );
                  1823           ?LINE   203
03B0 DA000000  R  1824           CALLS   SEG _FindRequestStruct,_FindRequestStruct
               R  1825           ?SYMB   '',$,102,3
03B4 F084         1826           MOV     R8,R4
03B6 F095         1827           MOV     R9,R5
               R  1828           ?SYMB   'R8R9',$,100,2
                  1829   ; me_wnd.c  204 
                  1830   ; me_wnd.c  205         if ( request == NULL )
                  1831           ?LINE   205
03B8 F0C9         1832           MOV     R12,R9
03BA 70C8         1833           OR      R12,R8
03BC 3D03         1834           JMPR    cc_NZ,_53
                  1835   ; me_wnd.c  206                 return -1;
                  1836           ?LINE   206
03BE              1837   _52:
               R  1838           ?SYMB   '',$,102,2
03BE E6F4FFFF     1839           MOV     R4,#0FFFFh
03C2 0D21         1840           JMPR    cc_UC,_55
03C4              1841   _53:
               R  1842           ?SYMB   'R8R9',$,100,2
                  1843   ; me_wnd.c  207 
                  1844   ; me_wnd.c  208         retval = ME_CancelRequest( &(request->request) );
                  1845           ?LINE   208
03C4 F0C8         1846           MOV     R12,R8
03C6 F0D9         1847           MOV     R13,R9
03C8 DA000000  R  1848           CALLS   SEG _ME_CancelRequest,_ME_CancelRequest
03CC F0C4         1849           MOV     R12,R4
               R  1850           ?SYMB   'R12',$,100,1
                  1851   ; me_wnd.c  209 
                  1852   ; me_wnd.c  210         if ( retval == -1 )
                  1853           ?LINE   210
03CE 46FCFFFF     1854           CMP     R12,#0FFFFh
03D2 3D18         1855           JMPR    cc_NE,_54
                  1856   ; me_wnd.c  211         {
                  1857   ; me_wnd.c  212                 PostMessage( request->hWnd, request->message, ME_RS_USERSTOP, 0
                          );
                  1858           ?LINE   212
03D4 E00C         1859           MOV     R12,#00h
               R  1860           ?SYMB   '',$,102,1
03D6 E00D         1861           MOV     R13,#00h
03D8 88D0         1862           MOV     [-R0],R13
               R  1863           ?SYMB   '',$,96,6
03DA 88C0         1864           MOV     [-R0],R12
               R  1865           ?SYMB   '',$,96,8
03DC E06E         1866           MOV     R14,#06h
03DE E00F         1867           MOV     R15,#00h
03E0 88F0         1868           MOV     [-R0],R15
               R  1869           ?SYMB   '',$,96,10
03E2 88E0         1870           MOV     [-R0],R14
               R  1871           ?SYMB   '',$,96,12
03E4 DC59         1872           EXTP    R9,#02h
03E6 D4C83C01 2   1873           MOV     R12,[R8+#013CH]
03EA D4D83E01 1   1874           MOV     R13,[R8+#013EH]
03EE DC49         1875           EXTP    R9,#01h
03F0 D4E84001 1   1876           MOV     R14,[R8+#0140H]
03F4 DA000000  R  1877           CALLS   SEG _PostMessage,_PostMessage
03F8 06F00800     1878           ADD     R0,#08h
               R  1879           ?SYMB   '',$,96,4
                  1880   ; me_wnd.c  213                 request->used_flag = 0;
                  1881           ?LINE   213
03FC E00C         1882           MOV     R12,#00h
03FE DC49         1883           EXTP    R9,#01h
0400 C4C83A01 1   1884           MOV     [R8+#013AH],R12
                  1885   ; me_wnd.c  214         }
                  1886           ?LINE   214
0404              1887   _54:
               R  1888           ?SYMB   '',$,102,2
                  1889   ; me_wnd.c  215 
                  1890   ; me_wnd.c  216         return 0;
                  1891           ?LINE   216
0404 E004         1892           MOV     R4,#00h
                  1893   ; me_wnd.c  217 }
                  1894           ?LINE   217
0406              1895   _55:
0406 9880         1896           MOV     R8,[R0+]
               R  1897           ?SYMB   '',$,96,2
0408 9890         1898           MOV     R9,[R0+]
               R  1899           ?SYMB   '',$,96,0
040A DB00         1900           RETS
                  1901   _ME_CancelFunction      ENDP
               R  1902           ?SYMB   '',$,17,217
                  1903   ; me_wnd.c  218 
                  1904   ; me_wnd.c  219 int ME_GetResult( void* result, int result_len )
                  1905   ; me_wnd.c  220 {
                  1906           ?LINE   220
                  1907           PUBLIC  _ME_GetResult
               R  1908           ?SYMB   'ME_GetResult',_ME_GetResult,37,16
                  1909           ?SYMB   '',220,8,34
                  1910   _ME_GetResult   PROC    FAR
                  1911           ?SYMB   '',00H,95,0
                  1912   ; Locals:
                  1913   ; 
                  1914   ; Statics:
                  1915   ; 
                  1916   ; CSEs:
                  1917   ;     result = R12R13
                  1918   ;     result_len = R14
                  1919   ; 
                  1920           ?SYMB   'result',2,99,269
                  1921           ?SYMB   'result_len',1,99,16
               R  1922           ?SYMB   'R12R13',$,100,2
               R  1923           ?SYMB   'R14',$,100,1
                  1924   ; me_wnd.c  221         return ME_GetCurrentResult( result, result_len );
                  1925           ?LINE   221
040C DA000000  R  1926           CALLS   SEG _ME_GetCurrentResult,_ME_GetCurrentResult
               R  1927           ?SYMB   '',$,102,2
               R  1928           ?SYMB   '',$,102,1
                  1929   ; me_wnd.c  222 }
                  1930           ?LINE   222
0410 DB00         1931           RETS
                  1932   _ME_GetResult   ENDP
               R  1933           ?SYMB   '',$,17,222
                  1934   ; me_wnd.c  223 
                  1935   ; me_wnd.c  224 int ME_VoiceDial( HWND hWnd, int Msg, char* PhoneNum, char* Extention )
                  1936   ; me_wnd.c  225 {
                  1937           ?LINE   225
                  1938           PUBLIC  _ME_VoiceDial
               R  1939           ?SYMB   'ME_VoiceDial',_ME_VoiceDial,37,16
                  1940           ?SYMB   '',225,8,34
                  1941   _ME_VoiceDial   PROC    FAR
                  1942           ?SYMB   '',0340H,95,0
0412 8890         1943           MOV     [-R0],R9
               R  1944           ?SYMB   '',$,96,2
0414 8880         1945           MOV     [-R0],R8
               R  1946           ?SYMB   '',$,96,4
0416 8860         1947           MOV     [-R0],R6
               R  1948           ?SYMB   '',$,96,6
                  1949   ; Locals:
                  1950   ; 
                  1951   ; Statics:
                  1952   ; 
                  1953   ; CSEs:
                  1954   ;     request = R8R9
                  1955   ;     len = R6
                  1956   ;     retval = R8
                  1957   ;     Extention = offset 10
                  1958   ;     PhoneNum = offset 6
                  1959   ;     Msg = R14
                  1960   ;     hWnd = R12R13
                  1961   ; 
                  1962           ?SYMB   'hWnd',6,99,394
                  1963           ?SYMB   'Msg',5,99,16
                  1964           ?SYMB   'PhoneNum',4,99,266
                  1965           ?SYMB   'Extention',2,99,266
                  1966           ?SYMB   'retval',1,98,16
                  1967           ?SYMB   'len',3,98,16
                  1968           ?SYMB   'request',7,98,547
               R  1969           ?SYMB   'R12R13',$,100,6
               R  1970           ?SYMB   'R14',$,100,5
               R  1971           ?SYMB   '0',$,101,4
               R  1972           ?SYMB   '4',$,101,2
                  1973   ; me_wnd.c  226         int retval = 0;
                  1974   ; me_wnd.c  227         int     len;
                  1975   ; me_wnd.c  228         struct ME_REQUEST_WIN * request = FindRequestStruct( -1 );
                  1976           ?LINE   228
0418 F06C         1977           MOV     R6,R12
041A 88D0         1978           MOV     [-R0],R13
               R  1979           ?SYMB   '',$,96,8
041C 88E0         1980           MOV     [-R0],R14
               R  1981           ?SYMB   '',$,96,10
041E E6FCFFFF     1982           MOV     R12,#0FFFFh
               R  1983           ?SYMB   '',$,102,6
0422 DA000000  R  1984           CALLS   SEG _FindRequestStruct,_FindRequestStruct
               R  1985           ?SYMB   '',$,102,5
0426 F084         1986           MOV     R8,R4
0428 F095         1987           MOV     R9,R5
               R  1988           ?SYMB   'R8R9',$,100,7
042A 98E0         1989           MOV     R14,[R0+]
               R  1990           ?SYMB   '',$,96,8
               R  1991           ?SYMB   'R14',$,100,5
042C 98D0         1992           MOV     R13,[R0+]
               R  1993           ?SYMB   '',$,96,6
042E F0C6         1994           MOV     R12,R6
               R  1995           ?SYMB   'R12R13',$,100,6
                  1996   ; me_wnd.c  229 
                  1997   ; me_wnd.c  230         if ( NULL == request )
                  1998           ?LINE   230
0430 F069         1999           MOV     R6,R9
0432 7068         2000           OR      R6,R8
0434 3D0A         2001           JMPR    cc_NZ,_62
               R  2002           ?SYMB   '',$,102,4
               R  2003           ?SYMB   '',$,102,2
                  2004   ; me_wnd.c  231         {
                  2005   ; me_wnd.c  232 #if defined VME_DEBUG
                  2006   ; me_wnd.c  233                 debugex_nonl( "\r\nME Find Request Struct Fail!" );
                  2007           ?LINE   233
0436 E6FC0000  R  2008           MOV     R12,#POF _56
               R  2009           ?SYMB   '',$,102,6
043A E6FD0000  R  2010           MOV     R13,#PAG _56
043E DA000000  R  2011           CALLS   SEG _debugex_nonl,_debugex_nonl
               R  2012           ?SYMB   '',$,102,7
               R  2013           ?SYMB   '',$,102,5
                  2014   ; me_wnd.c  234 #endif
                  2015   ; me_wnd.c  235                 return -1;
                  2016           ?LINE   235
0442 E6F4FFFF     2017           MOV     R4,#0FFFFh
0446 EA000E05  R  2018           JMPA    cc_UC,_65
                  2019   ; me_wnd.c  236         }
                  2020           ?LINE   236
044A              2021   _62:
               R  2022           ?SYMB   'R8R9',$,100,7
               R  2023           ?SYMB   'R12R13',$,100,6
               R  2024           ?SYMB   'R14',$,100,5
               R  2025           ?SYMB   '0',$,101,4
               R  2026           ?SYMB   '4',$,101,2
                  2027   ; me_wnd.c  237     request->hWnd = hWnd;
                  2028           ?LINE   237
044A DC59         2029           EXTP    R9,#02h
044C C4C83C01 2   2030           MOV     [R8+#013CH],R12
0450 C4D83E01 1   2031           MOV     [R8+#013EH],R13
                  2032   ; me_wnd.c  238     request->message = Msg;
                  2033           ?LINE   238
0454 DC49         2034           EXTP    R9,#01h
0456 C4E84001 1   2035           MOV     [R8+#0140H],R14
                  2036   ; me_wnd.c  239 
                  2037   ; me_wnd.c  240         len = strlen( PhoneNum );
                  2038           ?LINE   240
045A D4C00600     2039           MOV     R12,[R0+#06H]
               R  2040           ?SYMB   '',$,102,6
045E D4D00800     2041           MOV     R13,[R0+#08H]
0462 DA000000  R  2042           CALLS   SEG _strlen,_strlen
               R  2043           ?SYMB   '',$,102,5
0466 F064         2044           MOV     R6,R4
               R  2045           ?SYMB   'R6',$,100,3
                  2046   ; me_wnd.c  241         strcpy( request->cmddata, PhoneNum );
                  2047           ?LINE   241
0468 F0C8         2048           MOV     R12,R8
046A F0D9         2049           MOV     R13,R9
046C 06FC2200     2050           ADD     R12,#022h
0470 D4E00600     2051           MOV     R14,[R0+#06H]
0474 D4F00800     2052           MOV     R15,[R0+#08H]
0478 DA000000  R  2053           CALLS   SEG _strcpy,_strcpy
                  2054   ; me_wnd.c  242         if ( Extention != NULL )
                  2055           ?LINE   242
047C D4C00A00     2056           MOV     R12,[R0+#0AH]
0480 D4D00C00     2057           MOV     R13,[R0+#0CH]
0484 70CD         2058           OR      R12,R13
0486 2D1D         2059           JMPR    cc_Z,_63
                  2060   ; me_wnd.c  243         {
                  2061   ; me_wnd.c  244                 memcpy( &request->cmddata[len+1], Extention, strlen(Extention) 
                         );
                  2062           ?LINE   244
0488 D4C00A00     2063           MOV     R12,[R0+#0AH]
048C DA000000  R  2064           CALLS   SEG _strlen,_strlen
0490 8840         2065           MOV     [-R0],R4
               R  2066           ?SYMB   '',$,96,8
0492 F0C8         2067           MOV     R12,R8
0494 F0D9         2068           MOV     R13,R9
0496 06FC2300     2069           ADD     R12,#023h
049A 00C6         2070           ADD     R12,R6
049C D4E00C00     2071           MOV     R14,[R0+#0CH]
04A0 D4F00E00     2072           MOV     R15,[R0+#0EH]
04A4 DA000000  R  2073           CALLS   SEG _memcpy,_memcpy
04A8 0802         2074           ADD     R0,#02h
               R  2075           ?SYMB   '',$,96,6
                  2076   ; me_wnd.c  245                 request->request.cmddata_len = len + strlen(Extention) + 1;
                  2077           ?LINE   245
04AA D4C00A00     2078           MOV     R12,[R0+#0AH]
04AE D4D00C00     2079           MOV     R13,[R0+#0CH]
04B2 DA000000  R  2080           CALLS   SEG _strlen,_strlen
04B6 0064         2081           ADD     R6,R4
               R  2082           ?SYMB   '',$,102,3
04B8 0861         2083           ADD     R6,#01h
04BA DC49         2084           EXTP    R9,#01h
04BC C4680C00 1   2085           MOV     [R8+#0CH],R6
                  2086   ; me_wnd.c  246         }
                  2087           ?LINE   246
04C0 0D03         2088           JMPR    cc_UC,_64
04C2              2089   _63:
               R  2090           ?SYMB   'R6',$,100,3
                  2091   ; me_wnd.c  247         else
                  2092   ; me_wnd.c  248                 request->request.cmddata_len = len;
                  2093           ?LINE   248
04C2 DC49         2094           EXTP    R9,#01h
04C4 C4680C00 1   2095           MOV     [R8+#0CH],R6
04C8              2096   _64:
               R  2097           ?SYMB   '',$,102,3
                  2098   ; me_wnd.c  249 
                  2099   ; me_wnd.c  250     /* Fill the request */
                  2100   ; me_wnd.c  251         request->request.cmd = ME_VOICE_DIAL;
                  2101           ?LINE   251
04C8 E036         2102           MOV     R6,#03h
04CA DC49         2103           EXTP    R9,#01h
04CC B868     1   2104           MOV     [R8],R6
                  2105   ; me_wnd.c  252         request->request.cmddata = request->cmddata;
                  2106           ?LINE   252
04CE F0C8         2107           MOV     R12,R8
04D0 F0D9         2108           MOV     R13,R9
04D2 06FC2200     2109           ADD     R12,#022h
04D6 DC59         2110           EXTP    R9,#02h
04D8 C4C80800 2   2111           MOV     [R8+#08H],R12
04DC C4D80A00 1   2112           MOV     [R8+#0AH],R13
                  2113   ; me_wnd.c  253     request->request.reply = ME_WndCallback;
                  2114           ?LINE   253
04E0 E6FC0000  R  2115           MOV     R12,#SOF _ME_WndCallback
04E4 E6FD0000  R  2116           MOV     R13,#SEG _ME_WndCallback
04E8 DC59         2117           EXTP    R9,#02h
04EA C4C80E00 2   2118           MOV     [R8+#0EH],R12
04EE C4D81000 1   2119           MOV     [R8+#010H],R13
                  2120   ; me_wnd.c  254 
                  2121   ; me_wnd.c  255         retval = ME_Request( &(request->request) );
                  2122           ?LINE   255
04F2 F0C8         2123           MOV     R12,R8
04F4 F0D9         2124           MOV     R13,R9
04F6 DA000000  R  2125           CALLS   SEG _ME_Request,_ME_Request
               R  2126           ?SYMB   '',$,102,7
04FA F084         2127           MOV     R8,R4
               R  2128           ?SYMB   'R8',$,100,1
                  2129   ; me_wnd.c  256 #if defined VME_DEBUG
                  2130   ; me_wnd.c  257                 debugex_nonl( "\r\nME Request return %d!", retval );
                  2131           ?LINE   257
04FC 8880         2132           MOV     [-R0],R8
               R  2133           ?SYMB   '',$,96,8
04FE E6FC0000  R  2134           MOV     R12,#POF _57
0502 E6FD0000  R  2135           MOV     R13,#PAG _57
0506 DA000000  R  2136           CALLS   SEG _debugex_nonl,_debugex_nonl
050A 0802         2137           ADD     R0,#02h
               R  2138           ?SYMB   '',$,96,6
                  2139   ; me_wnd.c  258 #endif
                  2140   ; me_wnd.c  259         return retval;
                  2141           ?LINE   259
050C F048         2142           MOV     R4,R8
                  2143   ; me_wnd.c  260 }
                  2144           ?LINE   260
050E              2145   _65:
               R  2146           ?SYMB   '',$,102,1
050E 9860         2147           MOV     R6,[R0+]
               R  2148           ?SYMB   '',$,96,4
0510 9880         2149           MOV     R8,[R0+]
               R  2150           ?SYMB   '',$,96,2
0512 9890         2151           MOV     R9,[R0+]
               R  2152           ?SYMB   '',$,96,0
0514 DB00         2153           RETS
                  2154   _ME_VoiceDial   ENDP
               R  2155           ?SYMB   '',$,17,260
                  2156   ; me_wnd.c  261 
                  2157   ; me_wnd.c  262 int ME_VoiceHangup( HWND hWnd, int Msg )
                  2158   ; me_wnd.c  263 {
                  2159           ?LINE   263
                  2160           PUBLIC  _ME_VoiceHangup
               R  2161           ?SYMB   'ME_VoiceHangup',_ME_VoiceHangup,37,16
                  2162           ?SYMB   '',263,8,34
                  2163   _ME_VoiceHangup PROC    FAR
                  2164           ?SYMB   '',0300H,95,0
0516 8890         2165           MOV     [-R0],R9
               R  2166           ?SYMB   '',$,96,2
0518 8880         2167           MOV     [-R0],R8
               R  2168           ?SYMB   '',$,96,4
                  2169   ; Locals:
                  2170   ; 
                  2171   ; Statics:
                  2172   ; 
                  2173   ; CSEs:
                  2174   ;     request = R8R9
                  2175   ;     retval = R12
                  2176   ;     hWnd = R12R13
                  2177   ;     Msg = R14
                  2178   ; 
                  2179           ?SYMB   'hWnd',3,99,394
                  2180           ?SYMB   'Msg',2,99,16
                  2181           ?SYMB   'retval',1,98,16
                  2182           ?SYMB   'request',4,98,547
               R  2183           ?SYMB   'R12R13',$,100,3
               R  2184           ?SYMB   'R14',$,100,2
                  2185   ; me_wnd.c  264         int retval = 0;
                  2186   ; me_wnd.c  265         struct ME_REQUEST_WIN * request = FindRequestStruct( -1 );
                  2187           ?LINE   265
051A 88C0         2188           MOV     [-R0],R12
               R  2189           ?SYMB   '',$,96,6
051C 88D0         2190           MOV     [-R0],R13
               R  2191           ?SYMB   '',$,96,8
051E 88E0         2192           MOV     [-R0],R14
               R  2193           ?SYMB   '',$,96,10
0520 E6FCFFFF     2194           MOV     R12,#0FFFFh
               R  2195           ?SYMB   '',$,102,3
0524 DA000000  R  2196           CALLS   SEG _FindRequestStruct,_FindRequestStruct
               R  2197           ?SYMB   '',$,102,2
0528 F084         2198           MOV     R8,R4
052A F095         2199           MOV     R9,R5
               R  2200           ?SYMB   'R8R9',$,100,4
052C 98E0         2201           MOV     R14,[R0+]
               R  2202           ?SYMB   '',$,96,8
               R  2203           ?SYMB   'R14',$,100,2
052E 98D0         2204           MOV     R13,[R0+]
               R  2205           ?SYMB   '',$,96,6
0530 98C0         2206           MOV     R12,[R0+]
               R  2207           ?SYMB   '',$,96,4
               R  2208           ?SYMB   'R12R13',$,100,3
                  2209   ; me_wnd.c  266 
                  2210   ; me_wnd.c  267         if ( NULL == request )
                  2211           ?LINE   267
0532 F0F9         2212           MOV     R15,R9
0534 70F8         2213           OR      R15,R8
0536 3D03         2214           JMPR    cc_NZ,_68
                  2215   ; me_wnd.c  268                 return -1;
                  2216           ?LINE   268
0538 E6F4FFFF     2217           MOV     R4,#0FFFFh
053C 0D18         2218           JMPR    cc_UC,_69
053E              2219   _68:
               R  2220           ?SYMB   '',$,102,4
               R  2221           ?SYMB   '',$,102,2
               R  2222           ?SYMB   '',$,102,3
               R  2223           ?SYMB   'R8R9',$,100,4
               R  2224           ?SYMB   'R12R13',$,100,3
               R  2225           ?SYMB   'R14',$,100,2
                  2226   ; me_wnd.c  269 
                  2227   ; me_wnd.c  270     request->hWnd = hWnd;
                  2228           ?LINE   270
053E DC59         2229           EXTP    R9,#02h
0540 C4C83C01 2   2230           MOV     [R8+#013CH],R12
0544 C4D83E01 1   2231           MOV     [R8+#013EH],R13
                  2232   ; me_wnd.c  271     request->message = Msg;
                  2233   ; me_wnd.c  272 
                  2234   ; me_wnd.c  273     /* Fill the request */
                  2235   ; me_wnd.c  274         request->request.cmd = ME_VOICE_HANGUP;
                  2236           ?LINE   274
0548 E04C         2237           MOV     R12,#04h
                  2238           ?LINE   271
054A DC59         2239           EXTP    R9,#02h
054C C4E84001 2   2240           MOV     [R8+#0140H],R14
               R  2241           ?SYMB   '',$,102,3
                  2242           ?LINE   274
0550 B8C8     1   2243           MOV     [R8],R12
                  2244   ; me_wnd.c  275     request->request.reply = ME_WndCallback;
                  2245           ?LINE   275
0552 E6FD0000  R  2246           MOV     R13,#SOF _ME_WndCallback
0556 E6FE0000  R  2247           MOV     R14,#SEG _ME_WndCallback
               R  2248           ?SYMB   '',$,102,2
055A DC59         2249           EXTP    R9,#02h
055C C4D80E00 2   2250           MOV     [R8+#0EH],R13
0560 C4E81000 1   2251           MOV     [R8+#010H],R14
                  2252   ; me_wnd.c  276 
                  2253   ; me_wnd.c  277         retval = ME_Request( &(request->request) );
                  2254           ?LINE   277
0564 F0C8         2255           MOV     R12,R8
0566 F0D9         2256           MOV     R13,R9
0568 DA000000  R  2257           CALLS   SEG _ME_Request,_ME_Request
               R  2258           ?SYMB   '',$,102,4
056C F0C4         2259           MOV     R12,R4
               R  2260           ?SYMB   'R12',$,100,1
                  2261   ; me_wnd.c  278 
                  2262   ; me_wnd.c  279         return retval;
                  2263   ; me_wnd.c  280 }
                  2264           ?LINE   280
056E              2265   _69:
               R  2266           ?SYMB   '',$,102,1
056E 9880         2267           MOV     R8,[R0+]
               R  2268           ?SYMB   '',$,96,2
0570 9890         2269           MOV     R9,[R0+]
               R  2270           ?SYMB   '',$,96,0
0572 DB00         2271           RETS
                  2272   _ME_VoiceHangup ENDP
               R  2273           ?SYMB   '',$,17,280
                  2274   ; me_wnd.c  281 
                  2275   ; me_wnd.c  282 int ME_CallAnswer( HWND hWnd, int Msg )
                  2276   ; me_wnd.c  283 {
                  2277           ?LINE   283
                  2278           PUBLIC  _ME_CallAnswer
               R  2279           ?SYMB   'ME_CallAnswer',_ME_CallAnswer,37,16
                  2280           ?SYMB   '',283,8,34
                  2281   _ME_CallAnswer  PROC    FAR
                  2282           ?SYMB   '',0300H,95,0
0574 8890         2283           MOV     [-R0],R9
               R  2284           ?SYMB   '',$,96,2
0576 8880         2285           MOV     [-R0],R8
               R  2286           ?SYMB   '',$,96,4
                  2287   ; Locals:
                  2288   ; 
                  2289   ; Statics:
                  2290   ; 
                  2291   ; CSEs:
                  2292   ;     request = R8R9
                  2293   ;     retval = R8
                  2294   ;     hWnd = R12R13
                  2295   ;     Msg = R14
                  2296   ; 
                  2297           ?SYMB   'hWnd',3,99,394
                  2298           ?SYMB   'Msg',2,99,16
                  2299           ?SYMB   'retval',1,98,16
                  2300           ?SYMB   'request',4,98,547
               R  2301           ?SYMB   'R12R13',$,100,3
               R  2302           ?SYMB   'R14',$,100,2
                  2303   ; me_wnd.c  284         int retval = 0;
                  2304   ; me_wnd.c  285         struct ME_REQUEST_WIN * request = FindRequestStruct( -1 );
                  2305           ?LINE   285
0578 88C0         2306           MOV     [-R0],R12
               R  2307           ?SYMB   '',$,96,6
057A 88D0         2308           MOV     [-R0],R13
               R  2309           ?SYMB   '',$,96,8
057C 88E0         2310           MOV     [-R0],R14
               R  2311           ?SYMB   '',$,96,10
057E E6FCFFFF     2312           MOV     R12,#0FFFFh
               R  2313           ?SYMB   '',$,102,3
0582 DA000000  R  2314           CALLS   SEG _FindRequestStruct,_FindRequestStruct
               R  2315           ?SYMB   '',$,102,2
0586 F084         2316           MOV     R8,R4
0588 F095         2317           MOV     R9,R5
               R  2318           ?SYMB   'R8R9',$,100,4
058A 98E0         2319           MOV     R14,[R0+]
               R  2320           ?SYMB   '',$,96,8
               R  2321           ?SYMB   'R14',$,100,2
058C 98D0         2322           MOV     R13,[R0+]
               R  2323           ?SYMB   '',$,96,6
058E 98C0         2324           MOV     R12,[R0+]
               R  2325           ?SYMB   '',$,96,4
               R  2326           ?SYMB   'R12R13',$,100,3
                  2327   ; me_wnd.c  286 
                  2328   ; me_wnd.c  287         if ( NULL == request )
                  2329           ?LINE   287
0590 F0F9         2330           MOV     R15,R9
0592 70F8         2331           OR      R15,R8
0594 3D09         2332           JMPR    cc_NZ,_72
                  2333   ; me_wnd.c  288         {
                  2334   ; me_wnd.c  289 #if defined VME_DEBUG
                  2335   ; me_wnd.c  290                 debugex_nonl( "\r\nME Find Request Struct Fail!" );
                  2336           ?LINE   290
0596 E6FC0000  R  2337           MOV     R12,#POF _56
               R  2338           ?SYMB   '',$,102,3
059A E6FD0000  R  2339           MOV     R13,#PAG _56
059E DA000000  R  2340           CALLS   SEG _debugex_nonl,_debugex_nonl
               R  2341           ?SYMB   '',$,102,4
               R  2342           ?SYMB   '',$,102,2
                  2343   ; me_wnd.c  291 #endif          
                  2344   ; me_wnd.c  292                 return -1;
                  2345           ?LINE   292
05A2 E6F4FFFF     2346           MOV     R4,#0FFFFh
05A6 0D21         2347           JMPR    cc_UC,_73
                  2348   ; me_wnd.c  293         }
                  2349           ?LINE   293
05A8              2350   _72:
               R  2351           ?SYMB   'R8R9',$,100,4
               R  2352           ?SYMB   'R12R13',$,100,3
               R  2353           ?SYMB   'R14',$,100,2
                  2354   ; me_wnd.c  294 
                  2355   ; me_wnd.c  295     request->hWnd = hWnd;
                  2356           ?LINE   295
05A8 DC59         2357           EXTP    R9,#02h
05AA C4C83C01 2   2358           MOV     [R8+#013CH],R12
05AE C4D83E01 1   2359           MOV     [R8+#013EH],R13
                  2360   ; me_wnd.c  296     request->message = Msg;
                  2361   ; me_wnd.c  297 
                  2362   ; me_wnd.c  298     /* Fill the request */
                  2363   ; me_wnd.c  299         request->request.cmd = ME_VOICE_ANSWER;
                  2364           ?LINE   299
05B2 E05C         2365           MOV     R12,#05h
                  2366           ?LINE   296
05B4 DC59         2367           EXTP    R9,#02h
05B6 C4E84001 2   2368           MOV     [R8+#0140H],R14
               R  2369           ?SYMB   '',$,102,3
                  2370           ?LINE   299
05BA B8C8     1   2371           MOV     [R8],R12
                  2372   ; me_wnd.c  300     request->request.reply = ME_WndCallback;
                  2373           ?LINE   300
05BC E6FD0000  R  2374           MOV     R13,#SOF _ME_WndCallback
05C0 E6FE0000  R  2375           MOV     R14,#SEG _ME_WndCallback
               R  2376           ?SYMB   '',$,102,2
05C4 DC59         2377           EXTP    R9,#02h
05C6 C4D80E00 2   2378           MOV     [R8+#0EH],R13
05CA C4E81000 1   2379           MOV     [R8+#010H],R14
                  2380   ; me_wnd.c  301 
                  2381   ; me_wnd.c  302         retval = ME_Request( &(request->request) );
                  2382           ?LINE   302
05CE F0C8         2383           MOV     R12,R8
05D0 F0D9         2384           MOV     R13,R9
05D2 DA000000  R  2385           CALLS   SEG _ME_Request,_ME_Request
               R  2386           ?SYMB   '',$,102,4
05D6 F084         2387           MOV     R8,R4
               R  2388           ?SYMB   'R8',$,100,1
                  2389   ; me_wnd.c  303 
                  2390   ; me_wnd.c  304 #if defined VME_DEBUG
                  2391   ; me_wnd.c  305                 debugex_nonl( "\r\nME Request return %d!", retval );
                  2392           ?LINE   305
05D8 8880         2393           MOV     [-R0],R8
               R  2394           ?SYMB   '',$,96,6
05DA E6FC0000  R  2395           MOV     R12,#POF _57
05DE E6FD0000  R  2396           MOV     R13,#PAG _57
05E2 DA000000  R  2397           CALLS   SEG _debugex_nonl,_debugex_nonl
05E6 0802         2398           ADD     R0,#02h
               R  2399           ?SYMB   '',$,96,4
                  2400   ; me_wnd.c  306 #endif
                  2401   ; me_wnd.c  307         return retval;
                  2402           ?LINE   307
05E8 F048         2403           MOV     R4,R8
                  2404   ; me_wnd.c  308 }
                  2405           ?LINE   308
05EA              2406   _73:
               R  2407           ?SYMB   '',$,102,1
05EA 9880         2408           MOV     R8,[R0+]
               R  2409           ?SYMB   '',$,96,2
05EC 9890         2410           MOV     R9,[R0+]
               R  2411           ?SYMB   '',$,96,0
05EE DB00         2412           RETS
                  2413   _ME_CallAnswer  ENDP
               R  2414           ?SYMB   '',$,17,308
                  2415   ; me_wnd.c  309 
                  2416   ; me_wnd.c  310 int ME_ListCurCalls( HWND hWnd, int Msg )
                  2417   ; me_wnd.c  311 {
                  2418           ?LINE   311
                  2419           PUBLIC  _ME_ListCurCalls
               R  2420           ?SYMB   'ME_ListCurCalls',_ME_ListCurCalls,37,16
                  2421           ?SYMB   '',311,8,34
                  2422   _ME_ListCurCalls        PROC    FAR
                  2423           ?SYMB   '',0300H,95,0
05F0 8890         2424           MOV     [-R0],R9
               R  2425           ?SYMB   '',$,96,2
05F2 8880         2426           MOV     [-R0],R8
               R  2427           ?SYMB   '',$,96,4
                  2428   ; Locals:
                  2429   ; 
                  2430   ; Statics:
                  2431   ; 
                  2432   ; CSEs:
                  2433   ;     request = R8R9
                  2434   ;     retval = R12
                  2435   ;     hWnd = R12R13
                  2436   ;     Msg = R14
                  2437   ; 
                  2438           ?SYMB   'hWnd',3,99,394
                  2439           ?SYMB   'Msg',2,99,16
                  2440           ?SYMB   'retval',1,98,16
                  2441           ?SYMB   'request',4,98,547
               R  2442           ?SYMB   'R12R13',$,100,3
               R  2443           ?SYMB   'R14',$,100,2
                  2444   ; me_wnd.c  312         int retval = 0;
                  2445   ; me_wnd.c  313         struct ME_REQUEST_WIN * request = FindRequestStruct( -1 );
                  2446           ?LINE   313
05F4 88C0         2447           MOV     [-R0],R12
               R  2448           ?SYMB   '',$,96,6
05F6 88D0         2449           MOV     [-R0],R13
               R  2450           ?SYMB   '',$,96,8
05F8 88E0         2451           MOV     [-R0],R14
               R  2452           ?SYMB   '',$,96,10
05FA E6FCFFFF     2453           MOV     R12,#0FFFFh
               R  2454           ?SYMB   '',$,102,3
05FE DA000000  R  2455           CALLS   SEG _FindRequestStruct,_FindRequestStruct
               R  2456           ?SYMB   '',$,102,2
0602 F084         2457           MOV     R8,R4
0604 F095         2458           MOV     R9,R5
               R  2459           ?SYMB   'R8R9',$,100,4
0606 98E0         2460           MOV     R14,[R0+]
               R  2461           ?SYMB   '',$,96,8
               R  2462           ?SYMB   'R14',$,100,2
0608 98D0         2463           MOV     R13,[R0+]
               R  2464           ?SYMB   '',$,96,6
060A 98C0         2465           MOV     R12,[R0+]
               R  2466           ?SYMB   '',$,96,4
               R  2467           ?SYMB   'R12R13',$,100,3
                  2468   ; me_wnd.c  314 
                  2469   ; me_wnd.c  315         if ( NULL == request )
                  2470           ?LINE   315
060C F0F9         2471           MOV     R15,R9
060E 70F8         2472           OR      R15,R8
0610 3D03         2473           JMPR    cc_NZ,_76
                  2474   ; me_wnd.c  316                 return -1;
                  2475           ?LINE   316
0612 E6F4FFFF     2476           MOV     R4,#0FFFFh
0616 0D18         2477           JMPR    cc_UC,_77
0618              2478   _76:
               R  2479           ?SYMB   '',$,102,4
               R  2480           ?SYMB   '',$,102,2
               R  2481           ?SYMB   '',$,102,3
               R  2482           ?SYMB   'R8R9',$,100,4
               R  2483           ?SYMB   'R12R13',$,100,3
               R  2484           ?SYMB   'R14',$,100,2
                  2485   ; me_wnd.c  317 
                  2486   ; me_wnd.c  318     request->hWnd = hWnd;
                  2487           ?LINE   318
0618 DC59         2488           EXTP    R9,#02h
061A C4C83C01 2   2489           MOV     [R8+#013CH],R12
061E C4D83E01 1   2490           MOV     [R8+#013EH],R13
                  2491   ; me_wnd.c  319     request->message = Msg;
                  2492   ; me_wnd.c  320 
                  2493   ; me_wnd.c  321     /* Fill the request */
                  2494   ; me_wnd.c  322         request->request.cmd = ME_CURRENT_CALLS;
                  2495           ?LINE   322
0622 E0AC         2496           MOV     R12,#0Ah
                  2497           ?LINE   319
0624 DC59         2498           EXTP    R9,#02h
0626 C4E84001 2   2499           MOV     [R8+#0140H],R14
               R  2500           ?SYMB   '',$,102,3
                  2501           ?LINE   322
062A B8C8     1   2502           MOV     [R8],R12
                  2503   ; me_wnd.c  323     request->request.reply = ME_WndCallback;
                  2504           ?LINE   323
062C E6FD0000  R  2505           MOV     R13,#SOF _ME_WndCallback
0630 E6FE0000  R  2506           MOV     R14,#SEG _ME_WndCallback
               R  2507           ?SYMB   '',$,102,2
0634 DC59         2508           EXTP    R9,#02h
0636 C4D80E00 2   2509           MOV     [R8+#0EH],R13
063A C4E81000 1   2510           MOV     [R8+#010H],R14
                  2511   ; me_wnd.c  324 
                  2512   ; me_wnd.c  325         retval = ME_Request( &(request->request) );
                  2513           ?LINE   325
063E F0C8         2514           MOV     R12,R8
0640 F0D9         2515           MOV     R13,R9
0642 DA000000  R  2516           CALLS   SEG _ME_Request,_ME_Request
               R  2517           ?SYMB   '',$,102,4
0646 F0C4         2518           MOV     R12,R4
               R  2519           ?SYMB   'R12',$,100,1
                  2520   ; me_wnd.c  326 
                  2521   ; me_wnd.c  327         return retval;
                  2522   ; me_wnd.c  328 }
                  2523           ?LINE   328
0648              2524   _77:
               R  2525           ?SYMB   '',$,102,1
0648 9880         2526           MOV     R8,[R0+]
               R  2527           ?SYMB   '',$,96,2
064A 9890         2528           MOV     R9,[R0+]
               R  2529           ?SYMB   '',$,96,0
064C DB00         2530           RETS
                  2531   _ME_ListCurCalls        ENDP
               R  2532           ?SYMB   '',$,17,328
                  2533   ; me_wnd.c  329 
                  2534   ; me_wnd.c  330 int ME_SwitchCallStatus( HWND hWnd, int Msg, int Style, int Index )
                  2535   ; me_wnd.c  331 {
                  2536           ?LINE   331
                  2537           PUBLIC  _ME_SwitchCallStatus
               R  2538           ?SYMB   'ME_SwitchCallStatus',_ME_SwitchCallStatus,37,16
                  2539           ?SYMB   '',331,8,34
                  2540   _ME_SwitchCallStatus    PROC    FAR
                  2541           ?SYMB   '',0300H,95,0
064E 8890         2542           MOV     [-R0],R9
               R  2543           ?SYMB   '',$,96,2
0650 8880         2544           MOV     [-R0],R8
               R  2545           ?SYMB   '',$,96,4
                  2546   ; Locals:
                  2547   ; 
                  2548   ; Statics:
                  2549   ; 
                  2550   ; CSEs:
                  2551   ;     request = R8R9
                  2552   ;     retval = R12
                  2553   ;     Msg = R14
                  2554   ;     hWnd = R12R13
                  2555   ;     Style = R15
                  2556   ;     Index = offset 4
                  2557   ; 
                  2558           ?SYMB   'hWnd',5,99,394
                  2559           ?SYMB   'Msg',4,99,16
                  2560           ?SYMB   'Style',3,99,16
                  2561           ?SYMB   'Index',2,99,16
                  2562           ?SYMB   'retval',1,98,16
                  2563           ?SYMB   'request',6,98,547
               R  2564           ?SYMB   'R12R13',$,100,5
               R  2565           ?SYMB   'R14',$,100,4
               R  2566           ?SYMB   'R15',$,100,3
               R  2567           ?SYMB   '0',$,101,2
                  2568   ; me_wnd.c  332         int retval = 0;
                  2569   ; me_wnd.c  333         struct ME_REQUEST_WIN * request = FindRequestStruct( -1 );
                  2570           ?LINE   333
0652 88C0         2571           MOV     [-R0],R12
               R  2572           ?SYMB   '',$,96,6
0654 88D0         2573           MOV     [-R0],R13
               R  2574           ?SYMB   '',$,96,8
0656 88E0         2575           MOV     [-R0],R14
               R  2576           ?SYMB   '',$,96,10
0658 88F0         2577           MOV     [-R0],R15
               R  2578           ?SYMB   '',$,96,12
065A E6FCFFFF     2579           MOV     R12,#0FFFFh
               R  2580           ?SYMB   '',$,102,5
065E DA000000  R  2581           CALLS   SEG _FindRequestStruct,_FindRequestStruct
               R  2582           ?SYMB   '',$,102,4
               R  2583           ?SYMB   '',$,102,3
0662 F084         2584           MOV     R8,R4
0664 F095         2585           MOV     R9,R5
               R  2586           ?SYMB   'R8R9',$,100,6
0666 98F0         2587           MOV     R15,[R0+]
               R  2588           ?SYMB   '',$,96,10
               R  2589           ?SYMB   'R15',$,100,3
0668 98E0         2590           MOV     R14,[R0+]
               R  2591           ?SYMB   '',$,96,8
               R  2592           ?SYMB   'R14',$,100,4
066A 98D0         2593           MOV     R13,[R0+]
               R  2594           ?SYMB   '',$,96,6
066C 98C0         2595           MOV     R12,[R0+]
               R  2596           ?SYMB   '',$,96,4
               R  2597           ?SYMB   'R12R13',$,100,5
                  2598   ; me_wnd.c  334 
                  2599   ; me_wnd.c  335         if ( NULL == request )
                  2600           ?LINE   335
066E F019         2601           MOV     R1,R9
0670 7018         2602           OR      R1,R8
0672 3D03         2603           JMPR    cc_NZ,_80
               R  2604           ?SYMB   '',$,102,2
                  2605   ; me_wnd.c  336                 return -1;
                  2606           ?LINE   336
0674 E6F4FFFF     2607           MOV     R4,#0FFFFh
0678 0D1F         2608           JMPR    cc_UC,_81
067A              2609   _80:
               R  2610           ?SYMB   '',$,102,6
               R  2611           ?SYMB   '',$,102,3
               R  2612           ?SYMB   '',$,102,4
               R  2613           ?SYMB   '',$,102,5
               R  2614           ?SYMB   'R8R9',$,100,6
               R  2615           ?SYMB   'R12R13',$,100,5
               R  2616           ?SYMB   'R14',$,100,4
               R  2617           ?SYMB   'R15',$,100,3
               R  2618           ?SYMB   '0',$,101,2
                  2619   ; me_wnd.c  337 
                  2620   ; me_wnd.c  338     request->hWnd = hWnd;
                  2621           ?LINE   338
067A DC59         2622           EXTP    R9,#02h
067C C4C83C01 2   2623           MOV     [R8+#013CH],R12
0680 C4D83E01 1   2624           MOV     [R8+#013EH],R13
                  2625   ; me_wnd.c  339     request->message = Msg;
                  2626           ?LINE   339
0684 DC59         2627           EXTP    R9,#02h
0686 C4E84001 2   2628           MOV     [R8+#0140H],R14
                  2629   ; me_wnd.c  340 
                  2630   ; me_wnd.c  341     /* Fill the request */
                  2631   ; me_wnd.c  342         request->request.arg1 = Style;
                  2632           ?LINE   342
068A C4F80200 1   2633           MOV     [R8+#02H],R15
                  2634   ; me_wnd.c  343         request->request.arg2 = Index;
                  2635           ?LINE   343
068E D4C00400     2636           MOV     R12,[R0+#04H]
               R  2637           ?SYMB   '',$,102,5
                  2638   ; me_wnd.c  344         request->request.cmd = ME_SWITCH_CALLLINE;
                  2639           ?LINE   344
0692 E0BD         2640           MOV     R13,#0Bh
                  2641           ?LINE   343
0694 DC59         2642           EXTP    R9,#02h
0696 C4C80400 2   2643           MOV     [R8+#04H],R12
                  2644           ?LINE   344
069A B8D8     1   2645           MOV     [R8],R13
                  2646   ; me_wnd.c  345     request->request.reply = ME_WndCallback;
                  2647           ?LINE   345
069C E6FE0000  R  2648           MOV     R14,#SOF _ME_WndCallback
               R  2649           ?SYMB   '',$,102,4
06A0 E6FF0000  R  2650           MOV     R15,#SEG _ME_WndCallback
               R  2651           ?SYMB   '',$,102,3
06A4 DC59         2652           EXTP    R9,#02h
06A6 C4E80E00 2   2653           MOV     [R8+#0EH],R14
06AA C4F81000 1   2654           MOV     [R8+#010H],R15
                  2655   ; me_wnd.c  346 
                  2656   ; me_wnd.c  347         retval = ME_Request( &(request->request) );
                  2657           ?LINE   347
06AE F0C8         2658           MOV     R12,R8
06B0 F0D9         2659           MOV     R13,R9
06B2 DA000000  R  2660           CALLS   SEG _ME_Request,_ME_Request
               R  2661           ?SYMB   '',$,102,6
06B6 F0C4         2662           MOV     R12,R4
               R  2663           ?SYMB   'R12',$,100,1
                  2664   ; me_wnd.c  348 
                  2665   ; me_wnd.c  349         return retval;
                  2666   ; me_wnd.c  350 }
                  2667           ?LINE   350
06B8              2668   _81:
               R  2669           ?SYMB   '',$,102,1
06B8 9880         2670           MOV     R8,[R0+]
               R  2671           ?SYMB   '',$,96,2
06BA 9890         2672           MOV     R9,[R0+]
               R  2673           ?SYMB   '',$,96,0
06BC DB00         2674           RETS
                  2675   _ME_SwitchCallStatus    ENDP
               R  2676           ?SYMB   '',$,17,350
                  2677   ; me_wnd.c  351 
                  2678   ; me_wnd.c  352 int ME_SetAutoAnswerStatus( HWND hWnd, int Msg, int Times )
                  2679   ; me_wnd.c  353 {
                  2680           ?LINE   353
                  2681           PUBLIC  _ME_SetAutoAnswerStatus
               R  2682           ?SYMB   'ME_SetAutoAnswerStatus',_ME_SetAutoAnswerStatus,37,16
                  2683           ?SYMB   '',353,8,34
                  2684   _ME_SetAutoAnswerStatus PROC    FAR
                  2685           ?SYMB   '',0300H,95,0
06BE 8890         2686           MOV     [-R0],R9
               R  2687           ?SYMB   '',$,96,2
06C0 8880         2688           MOV     [-R0],R8
               R  2689           ?SYMB   '',$,96,4
                  2690   ; Locals:
                  2691   ; 
                  2692   ; Statics:
                  2693   ; 
                  2694   ; CSEs:
                  2695   ;     request = R8R9
                  2696   ;     retval = R12
                  2697   ;     Msg = R14
                  2698   ;     Times = R15
                  2699   ;     hWnd = R12R13
                  2700   ; 
                  2701           ?SYMB   'hWnd',4,99,394
                  2702           ?SYMB   'Msg',3,99,16
                  2703           ?SYMB   'Times',2,99,16
                  2704           ?SYMB   'retval',1,98,16
                  2705           ?SYMB   'request',5,98,547
               R  2706           ?SYMB   'R12R13',$,100,4
               R  2707           ?SYMB   'R14',$,100,3
               R  2708           ?SYMB   'R15',$,100,2
                  2709   ; me_wnd.c  354         int retval = 0;
                  2710   ; me_wnd.c  355         struct ME_REQUEST_WIN * request = FindRequestStruct( -1 );
                  2711           ?LINE   355
06C2 88C0         2712           MOV     [-R0],R12
               R  2713           ?SYMB   '',$,96,6
06C4 88D0         2714           MOV     [-R0],R13
               R  2715           ?SYMB   '',$,96,8
06C6 88E0         2716           MOV     [-R0],R14
               R  2717           ?SYMB   '',$,96,10
06C8 88F0         2718           MOV     [-R0],R15
               R  2719           ?SYMB   '',$,96,12
06CA E6FCFFFF     2720           MOV     R12,#0FFFFh
               R  2721           ?SYMB   '',$,102,4
06CE DA000000  R  2722           CALLS   SEG _FindRequestStruct,_FindRequestStruct
               R  2723           ?SYMB   '',$,102,3
               R  2724           ?SYMB   '',$,102,2
06D2 F084         2725           MOV     R8,R4
06D4 F095         2726           MOV     R9,R5
               R  2727           ?SYMB   'R8R9',$,100,5
06D6 98F0         2728           MOV     R15,[R0+]
               R  2729           ?SYMB   '',$,96,10
               R  2730           ?SYMB   'R15',$,100,2
06D8 98E0         2731           MOV     R14,[R0+]
               R  2732           ?SYMB   '',$,96,8
               R  2733           ?SYMB   'R14',$,100,3
06DA 98D0         2734           MOV     R13,[R0+]
               R  2735           ?SYMB   '',$,96,6
06DC 98C0         2736           MOV     R12,[R0+]
               R  2737           ?SYMB   '',$,96,4
               R  2738           ?SYMB   'R12R13',$,100,4
                  2739   ; me_wnd.c  356 
                  2740   ; me_wnd.c  357         if ( NULL == request )
                  2741           ?LINE   357
06DE F019         2742           MOV     R1,R9
06E0 7018         2743           OR      R1,R8
06E2 3D03         2744           JMPR    cc_NZ,_84
                  2745   ; me_wnd.c  358                 return -1;
                  2746           ?LINE   358
06E4 E6F4FFFF     2747           MOV     R4,#0FFFFh
06E8 0D1B         2748           JMPR    cc_UC,_85
06EA              2749   _84:
               R  2750           ?SYMB   '',$,102,5
               R  2751           ?SYMB   '',$,102,2
               R  2752           ?SYMB   '',$,102,3
               R  2753           ?SYMB   '',$,102,4
               R  2754           ?SYMB   'R8R9',$,100,5
               R  2755           ?SYMB   'R12R13',$,100,4
               R  2756           ?SYMB   'R14',$,100,3
               R  2757           ?SYMB   'R15',$,100,2
                  2758   ; me_wnd.c  359 
                  2759   ; me_wnd.c  360     request->hWnd = hWnd;
                  2760           ?LINE   360
06EA DC59         2761           EXTP    R9,#02h
06EC C4C83C01 2   2762           MOV     [R8+#013CH],R12
06F0 C4D83E01 1   2763           MOV     [R8+#013EH],R13
                  2764   ; me_wnd.c  361     request->message = Msg;
                  2765           ?LINE   361
06F4 DC59         2766           EXTP    R9,#02h
06F6 C4E84001 2   2767           MOV     [R8+#0140H],R14
                  2768   ; me_wnd.c  362 
                  2769   ; me_wnd.c  363     /* Fill the request */
                  2770   ; me_wnd.c  364         request->request.arg1 = Times;
                  2771           ?LINE   364
06FA C4F80200 1   2772           MOV     [R8+#02H],R15
                  2773   ; me_wnd.c  365 
                  2774   ; me_wnd.c  366         request->request.cmd = ME_SET_AUTOANSWER;
                  2775           ?LINE   366
06FE E0CC         2776           MOV     R12,#0Ch
               R  2777           ?SYMB   '',$,102,4
0700 DC49         2778           EXTP    R9,#01h
0702 B8C8     1   2779           MOV     [R8],R12
                  2780   ; me_wnd.c  367     request->request.reply = ME_WndCallback;
                  2781           ?LINE   367
0704 E6FD0000  R  2782           MOV     R13,#SOF _ME_WndCallback
0708 E6FE0000  R  2783           MOV     R14,#SEG _ME_WndCallback
               R  2784           ?SYMB   '',$,102,3
070C DC59         2785           EXTP    R9,#02h
070E C4D80E00 2   2786           MOV     [R8+#0EH],R13
0712 C4E81000 1   2787           MOV     [R8+#010H],R14
                  2788   ; me_wnd.c  368 
                  2789   ; me_wnd.c  369         retval = ME_Request( &(request->request) );
                  2790           ?LINE   369
0716 F0C8         2791           MOV     R12,R8
0718 F0D9         2792           MOV     R13,R9
071A DA000000  R  2793           CALLS   SEG _ME_Request,_ME_Request
               R  2794           ?SYMB   '',$,102,5
               R  2795           ?SYMB   '',$,102,2
071E F0C4         2796           MOV     R12,R4
               R  2797           ?SYMB   'R12',$,100,1
                  2798   ; me_wnd.c  370 
                  2799   ; me_wnd.c  371         return retval;
                  2800   ; me_wnd.c  372 }
                  2801           ?LINE   372
0720              2802   _85:
               R  2803           ?SYMB   '',$,102,1
0720 9880         2804           MOV     R8,[R0+]
               R  2805           ?SYMB   '',$,96,2
0722 9890         2806           MOV     R9,[R0+]
               R  2807           ?SYMB   '',$,96,0
0724 DB00         2808           RETS
                  2809   _ME_SetAutoAnswerStatus ENDP
               R  2810           ?SYMB   '',$,17,372
                  2811   ; me_wnd.c  373 
                  2812   ; me_wnd.c  374 int ME_GetAutoAnswerStatus( HWND hWnd, int Msg )
                  2813   ; me_wnd.c  375 {
                  2814           ?LINE   375
                  2815           PUBLIC  _ME_GetAutoAnswerStatus
               R  2816           ?SYMB   'ME_GetAutoAnswerStatus',_ME_GetAutoAnswerStatus,37,16
                  2817           ?SYMB   '',375,8,34
                  2818   _ME_GetAutoAnswerStatus PROC    FAR
                  2819           ?SYMB   '',0300H,95,0
0726 8890         2820           MOV     [-R0],R9
               R  2821           ?SYMB   '',$,96,2
0728 8880         2822           MOV     [-R0],R8
               R  2823           ?SYMB   '',$,96,4
                  2824   ; Locals:
                  2825   ; 
                  2826   ; Statics:
                  2827   ; 
                  2828   ; CSEs:
                  2829   ;     request = R8R9
                  2830   ;     retval = R12
                  2831   ;     hWnd = R12R13
                  2832   ;     Msg = R14
                  2833   ; 
                  2834           ?SYMB   'hWnd',3,99,394
                  2835           ?SYMB   'Msg',2,99,16
                  2836           ?SYMB   'retval',1,98,16
                  2837           ?SYMB   'request',4,98,547
               R  2838           ?SYMB   'R12R13',$,100,3
               R  2839           ?SYMB   'R14',$,100,2
                  2840   ; me_wnd.c  376         int retval = 0;
                  2841   ; me_wnd.c  377         struct ME_REQUEST_WIN * request = FindRequestStruct( -1 );
                  2842           ?LINE   377
072A 88C0         2843           MOV     [-R0],R12
               R  2844           ?SYMB   '',$,96,6
072C 88D0         2845           MOV     [-R0],R13
               R  2846           ?SYMB   '',$,96,8
072E 88E0         2847           MOV     [-R0],R14
               R  2848           ?SYMB   '',$,96,10
0730 E6FCFFFF     2849           MOV     R12,#0FFFFh
               R  2850           ?SYMB   '',$,102,3
0734 DA000000  R  2851           CALLS   SEG _FindRequestStruct,_FindRequestStruct
               R  2852           ?SYMB   '',$,102,2
0738 F084         2853           MOV     R8,R4
073A F095         2854           MOV     R9,R5
               R  2855           ?SYMB   'R8R9',$,100,4
073C 98E0         2856           MOV     R14,[R0+]
               R  2857           ?SYMB   '',$,96,8
               R  2858           ?SYMB   'R14',$,100,2
073E 98D0         2859           MOV     R13,[R0+]
               R  2860           ?SYMB   '',$,96,6
0740 98C0         2861           MOV     R12,[R0+]
               R  2862           ?SYMB   '',$,96,4
               R  2863           ?SYMB   'R12R13',$,100,3
                  2864   ; me_wnd.c  378 
                  2865   ; me_wnd.c  379         if ( NULL == request )
                  2866           ?LINE   379
0742 F0F9         2867           MOV     R15,R9
0744 70F8         2868           OR      R15,R8
0746 3D03         2869           JMPR    cc_NZ,_88
                  2870   ; me_wnd.c  380                 return -1;
                  2871           ?LINE   380
0748 E6F4FFFF     2872           MOV     R4,#0FFFFh
074C 0D18         2873           JMPR    cc_UC,_89
074E              2874   _88:
               R  2875           ?SYMB   '',$,102,4
               R  2876           ?SYMB   '',$,102,2
               R  2877           ?SYMB   '',$,102,3
               R  2878           ?SYMB   'R8R9',$,100,4
               R  2879           ?SYMB   'R12R13',$,100,3
               R  2880           ?SYMB   'R14',$,100,2
                  2881   ; me_wnd.c  381 
                  2882   ; me_wnd.c  382     request->hWnd = hWnd;
                  2883           ?LINE   382
074E DC59         2884           EXTP    R9,#02h
0750 C4C83C01 2   2885           MOV     [R8+#013CH],R12
0754 C4D83E01 1   2886           MOV     [R8+#013EH],R13
                  2887   ; me_wnd.c  383     request->message = Msg;
                  2888   ; me_wnd.c  384 
                  2889   ; me_wnd.c  385     /* Fill the request */
                  2890   ; me_wnd.c  386         request->request.cmd = ME_GET_AUTOANSWER;
                  2891           ?LINE   386
0758 E0DC         2892           MOV     R12,#0Dh
                  2893           ?LINE   383
075A DC59         2894           EXTP    R9,#02h
075C C4E84001 2   2895           MOV     [R8+#0140H],R14
               R  2896           ?SYMB   '',$,102,3
                  2897           ?LINE   386
0760 B8C8     1   2898           MOV     [R8],R12
                  2899   ; me_wnd.c  387     request->request.reply = ME_WndCallback;
                  2900           ?LINE   387
0762 E6FD0000  R  2901           MOV     R13,#SOF _ME_WndCallback
0766 E6FE0000  R  2902           MOV     R14,#SEG _ME_WndCallback
               R  2903           ?SYMB   '',$,102,2
076A DC59         2904           EXTP    R9,#02h
076C C4D80E00 2   2905           MOV     [R8+#0EH],R13
0770 C4E81000 1   2906           MOV     [R8+#010H],R14
                  2907   ; me_wnd.c  388 
                  2908   ; me_wnd.c  389         retval = ME_Request( &(request->request) );
                  2909           ?LINE   389
0774 F0C8         2910           MOV     R12,R8
0776 F0D9         2911           MOV     R13,R9
0778 DA000000  R  2912           CALLS   SEG _ME_Request,_ME_Request
               R  2913           ?SYMB   '',$,102,4
077C F0C4         2914           MOV     R12,R4
               R  2915           ?SYMB   'R12',$,100,1
                  2916   ; me_wnd.c  390 
                  2917   ; me_wnd.c  391         return retval;
                  2918   ; me_wnd.c  392 }
                  2919           ?LINE   392
077E              2920   _89:
               R  2921           ?SYMB   '',$,102,1
077E 9880         2922           MOV     R8,[R0+]
               R  2923           ?SYMB   '',$,96,2
0780 9890         2924           MOV     R9,[R0+]
               R  2925           ?SYMB   '',$,96,0
0782 DB00         2926           RETS
                  2927   _ME_GetAutoAnswerStatus ENDP
               R  2928           ?SYMB   '',$,17,392
                  2929   ; me_wnd.c  393 
                  2930   ; me_wnd.c  394 int ME_SetCallWaitingStatus( HWND hWnd, int Msg, BOOL bEnable, int Class )
                  2931   ; me_wnd.c  395 {
                  2932           ?LINE   395
                  2933           PUBLIC  _ME_SetCallWaitingStatus
               R  2934           ?SYMB   'ME_SetCallWaitingStatus',_ME_SetCallWaitingStatus,37,16
                  2935           ?SYMB   '',395,8,34
                  2936   _ME_SetCallWaitingStatus        PROC    FAR
                  2937           ?SYMB   '',0300H,95,0
0784 8890         2938           MOV     [-R0],R9
               R  2939           ?SYMB   '',$,96,2
0786 8880         2940           MOV     [-R0],R8
               R  2941           ?SYMB   '',$,96,4
                  2942   ; Locals:
                  2943   ; 
                  2944   ; Statics:
                  2945   ; 
                  2946   ; CSEs:
                  2947   ;     request = R8R9
                  2948   ;     retval = R12
                  2949   ;     Msg = R14
                  2950   ;     hWnd = R12R13
                  2951   ;     bEnable = R15
                  2952   ;     Class = offset 4
                  2953   ; 
                  2954           ?SYMB   'hWnd',5,99,394
                  2955           ?SYMB   'Msg',4,99,16
                  2956           ?SYMB   'bEnable',3,99,258
                  2957           ?SYMB   'Class',2,99,16
                  2958           ?SYMB   'retval',1,98,16
                  2959           ?SYMB   'request',6,98,547
               R  2960           ?SYMB   'R12R13',$,100,5
               R  2961           ?SYMB   'R14',$,100,4
               R  2962           ?SYMB   'R15',$,100,3
               R  2963           ?SYMB   '0',$,101,2
                  2964   ; me_wnd.c  396         int retval = 0;
                  2965   ; me_wnd.c  397         struct ME_REQUEST_WIN * request = FindRequestStruct( -1 );
                  2966           ?LINE   397
0788 88C0         2967           MOV     [-R0],R12
               R  2968           ?SYMB   '',$,96,6
078A 88D0         2969           MOV     [-R0],R13
               R  2970           ?SYMB   '',$,96,8
078C 88E0         2971           MOV     [-R0],R14
               R  2972           ?SYMB   '',$,96,10
078E 88F0         2973           MOV     [-R0],R15
               R  2974           ?SYMB   '',$,96,12
0790 E6FCFFFF     2975           MOV     R12,#0FFFFh
               R  2976           ?SYMB   '',$,102,5
0794 DA000000  R  2977           CALLS   SEG _FindRequestStruct,_FindRequestStruct
               R  2978           ?SYMB   '',$,102,4
               R  2979           ?SYMB   '',$,102,3
0798 F084         2980           MOV     R8,R4
079A F095         2981           MOV     R9,R5
               R  2982           ?SYMB   'R8R9',$,100,6
079C 98F0         2983           MOV     R15,[R0+]
               R  2984           ?SYMB   '',$,96,10
               R  2985           ?SYMB   'R15',$,100,3
079E 98E0         2986           MOV     R14,[R0+]
               R  2987           ?SYMB   '',$,96,8
               R  2988           ?SYMB   'R14',$,100,4
07A0 98D0         2989           MOV     R13,[R0+]
               R  2990           ?SYMB   '',$,96,6
07A2 98C0         2991           MOV     R12,[R0+]
               R  2992           ?SYMB   '',$,96,4
               R  2993           ?SYMB   'R12R13',$,100,5
                  2994   ; me_wnd.c  398 
                  2995   ; me_wnd.c  399         if ( NULL == request )
                  2996           ?LINE   399
07A4 F019         2997           MOV     R1,R9
07A6 7018         2998           OR      R1,R8
07A8 3D03         2999           JMPR    cc_NZ,_92
               R  3000           ?SYMB   '',$,102,2
                  3001   ; me_wnd.c  400                 return -1;
                  3002           ?LINE   400
07AA E6F4FFFF     3003           MOV     R4,#0FFFFh
07AE 0D1F         3004           JMPR    cc_UC,_93
07B0              3005   _92:
               R  3006           ?SYMB   '',$,102,6
               R  3007           ?SYMB   '',$,102,3
               R  3008           ?SYMB   '',$,102,4
               R  3009           ?SYMB   '',$,102,5
               R  3010           ?SYMB   'R8R9',$,100,6
               R  3011           ?SYMB   'R12R13',$,100,5
               R  3012           ?SYMB   'R14',$,100,4
               R  3013           ?SYMB   'R15',$,100,3
               R  3014           ?SYMB   '0',$,101,2
                  3015   ; me_wnd.c  401 
                  3016   ; me_wnd.c  402     request->hWnd = hWnd;
                  3017           ?LINE   402
07B0 DC59         3018           EXTP    R9,#02h
07B2 C4C83C01 2   3019           MOV     [R8+#013CH],R12
07B6 C4D83E01 1   3020           MOV     [R8+#013EH],R13
                  3021   ; me_wnd.c  403     request->message = Msg;
                  3022           ?LINE   403
07BA DC59         3023           EXTP    R9,#02h
07BC C4E84001 2   3024           MOV     [R8+#0140H],R14
                  3025   ; me_wnd.c  404 
                  3026   ; me_wnd.c  405     /* Fill the request */
                  3027   ; me_wnd.c  406         request->request.arg1 = bEnable;
                  3028           ?LINE   406
07C0 C4F80200 1   3029           MOV     [R8+#02H],R15
                  3030   ; me_wnd.c  407         request->request.arg2 = Class;
                  3031           ?LINE   407
07C4 D4C00400     3032           MOV     R12,[R0+#04H]
               R  3033           ?SYMB   '',$,102,5
                  3034   ; me_wnd.c  408         request->request.cmd = ME_SET_CALLWAITING;
                  3035           ?LINE   408
07C8 E0ED         3036           MOV     R13,#0Eh
                  3037           ?LINE   407
07CA DC59         3038           EXTP    R9,#02h
07CC C4C80400 2   3039           MOV     [R8+#04H],R12
                  3040           ?LINE   408
07D0 B8D8     1   3041           MOV     [R8],R13
                  3042   ; me_wnd.c  409     request->request.reply = ME_WndCallback;
                  3043           ?LINE   409
07D2 E6FE0000  R  3044           MOV     R14,#SOF _ME_WndCallback
               R  3045           ?SYMB   '',$,102,4
07D6 E6FF0000  R  3046           MOV     R15,#SEG _ME_WndCallback
               R  3047           ?SYMB   '',$,102,3
07DA DC59         3048           EXTP    R9,#02h
07DC C4E80E00 2   3049           MOV     [R8+#0EH],R14
07E0 C4F81000 1   3050           MOV     [R8+#010H],R15
                  3051   ; me_wnd.c  410 
                  3052   ; me_wnd.c  411         retval = ME_Request( &(request->request) );
                  3053           ?LINE   411
07E4 F0C8         3054           MOV     R12,R8
07E6 F0D9         3055           MOV     R13,R9
07E8 DA000000  R  3056           CALLS   SEG _ME_Request,_ME_Request
               R  3057           ?SYMB   '',$,102,6
07EC F0C4         3058           MOV     R12,R4
               R  3059           ?SYMB   'R12',$,100,1
                  3060   ; me_wnd.c  412 
                  3061   ; me_wnd.c  413         return retval;
                  3062   ; me_wnd.c  414 }
                  3063           ?LINE   414
07EE              3064   _93:
               R  3065           ?SYMB   '',$,102,1
07EE 9880         3066           MOV     R8,[R0+]
               R  3067           ?SYMB   '',$,96,2
07F0 9890         3068           MOV     R9,[R0+]
               R  3069           ?SYMB   '',$,96,0
07F2 DB00         3070           RETS
                  3071   _ME_SetCallWaitingStatus        ENDP
               R  3072           ?SYMB   '',$,17,414
                  3073   ; me_wnd.c  415 
                  3074   ; me_wnd.c  416 int ME_GetCallWaitingStatus( HWND hWnd, int Msg, int Class )
                  3075   ; me_wnd.c  417 {
                  3076           ?LINE   417
                  3077           PUBLIC  _ME_GetCallWaitingStatus
               R  3078           ?SYMB   'ME_GetCallWaitingStatus',_ME_GetCallWaitingStatus,37,16
                  3079           ?SYMB   '',417,8,34
                  3080   _ME_GetCallWaitingStatus        PROC    FAR
                  3081           ?SYMB   '',0300H,95,0
07F4 8890         3082           MOV     [-R0],R9
               R  3083           ?SYMB   '',$,96,2
07F6 8880         3084           MOV     [-R0],R8
               R  3085           ?SYMB   '',$,96,4
                  3086   ; Locals:
                  3087   ; 
                  3088   ; Statics:
                  3089   ; 
                  3090   ; CSEs:
                  3091   ;     request = R8R9
                  3092   ;     retval = R12
                  3093   ;     Msg = R14
                  3094   ;     Class = R15
                  3095   ;     hWnd = R12R13
                  3096   ; 
                  3097           ?SYMB   'hWnd',4,99,394
                  3098           ?SYMB   'Msg',3,99,16
                  3099           ?SYMB   'Class',2,99,16
                  3100           ?SYMB   'retval',1,98,16
                  3101           ?SYMB   'request',5,98,547
               R  3102           ?SYMB   'R12R13',$,100,4
               R  3103           ?SYMB   'R14',$,100,3
               R  3104           ?SYMB   'R15',$,100,2
                  3105   ; me_wnd.c  418         int retval = 0;
                  3106   ; me_wnd.c  419         struct ME_REQUEST_WIN * request = FindRequestStruct( -1 );
                  3107           ?LINE   419
07F8 88C0         3108           MOV     [-R0],R12
               R  3109           ?SYMB   '',$,96,6
07FA 88D0         3110           MOV     [-R0],R13
               R  3111           ?SYMB   '',$,96,8
07FC 88E0         3112           MOV     [-R0],R14
               R  3113           ?SYMB   '',$,96,10
07FE 88F0         3114           MOV     [-R0],R15
               R  3115           ?SYMB   '',$,96,12
0800 E6FCFFFF     3116           MOV     R12,#0FFFFh
               R  3117           ?SYMB   '',$,102,4
0804 DA000000  R  3118           CALLS   SEG _FindRequestStruct,_FindRequestStruct
               R  3119           ?SYMB   '',$,102,3
               R  3120           ?SYMB   '',$,102,2
0808 F084         3121           MOV     R8,R4
080A F095         3122           MOV     R9,R5
               R  3123           ?SYMB   'R8R9',$,100,5
080C 98F0         3124           MOV     R15,[R0+]
               R  3125           ?SYMB   '',$,96,10
               R  3126           ?SYMB   'R15',$,100,2
080E 98E0         3127           MOV     R14,[R0+]
               R  3128           ?SYMB   '',$,96,8
               R  3129           ?SYMB   'R14',$,100,3
0810 98D0         3130           MOV     R13,[R0+]
               R  3131           ?SYMB   '',$,96,6
0812 98C0         3132           MOV     R12,[R0+]
               R  3133           ?SYMB   '',$,96,4
               R  3134           ?SYMB   'R12R13',$,100,4
                  3135   ; me_wnd.c  420 
                  3136   ; me_wnd.c  421         if ( NULL == request )
                  3137           ?LINE   421
0814 F019         3138           MOV     R1,R9
0816 7018         3139           OR      R1,R8
0818 3D03         3140           JMPR    cc_NZ,_96
                  3141   ; me_wnd.c  422                 return -1;
                  3142           ?LINE   422
081A E6F4FFFF     3143           MOV     R4,#0FFFFh
081E 0D1B         3144           JMPR    cc_UC,_97
0820              3145   _96:
               R  3146           ?SYMB   '',$,102,5
               R  3147           ?SYMB   '',$,102,2
               R  3148           ?SYMB   '',$,102,3
               R  3149           ?SYMB   '',$,102,4
               R  3150           ?SYMB   'R8R9',$,100,5
               R  3151           ?SYMB   'R12R13',$,100,4
               R  3152           ?SYMB   'R14',$,100,3
               R  3153           ?SYMB   'R15',$,100,2
                  3154   ; me_wnd.c  423 
                  3155   ; me_wnd.c  424     request->hWnd = hWnd;
                  3156           ?LINE   424
0820 DC59         3157           EXTP    R9,#02h
0822 C4C83C01 2   3158           MOV     [R8+#013CH],R12
0826 C4D83E01 1   3159           MOV     [R8+#013EH],R13
                  3160   ; me_wnd.c  425     request->message = Msg;
                  3161           ?LINE   425
082A DC59         3162           EXTP    R9,#02h
082C C4E84001 2   3163           MOV     [R8+#0140H],R14
                  3164   ; me_wnd.c  426 
                  3165   ; me_wnd.c  427     /* Fill the request */
                  3166   ; me_wnd.c  428         request->request.arg1 = Class;
                  3167           ?LINE   428
0830 C4F80200 1   3168           MOV     [R8+#02H],R15
                  3169   ; me_wnd.c  429         request->request.cmd = ME_GET_CALLWAITING;
                  3170           ?LINE   429
0834 E0FC         3171           MOV     R12,#0Fh
               R  3172           ?SYMB   '',$,102,4
0836 DC49         3173           EXTP    R9,#01h
0838 B8C8     1   3174           MOV     [R8],R12
                  3175   ; me_wnd.c  430     request->request.reply = ME_WndCallback;
                  3176           ?LINE   430
083A E6FD0000  R  3177           MOV     R13,#SOF _ME_WndCallback
083E E6FE0000  R  3178           MOV     R14,#SEG _ME_WndCallback
               R  3179           ?SYMB   '',$,102,3
0842 DC59         3180           EXTP    R9,#02h
0844 C4D80E00 2   3181           MOV     [R8+#0EH],R13
0848 C4E81000 1   3182           MOV     [R8+#010H],R14
                  3183   ; me_wnd.c  431 
                  3184   ; me_wnd.c  432         retval = ME_Request( &(request->request) );
                  3185           ?LINE   432
084C F0C8         3186           MOV     R12,R8
084E F0D9         3187           MOV     R13,R9
0850 DA000000  R  3188           CALLS   SEG _ME_Request,_ME_Request
               R  3189           ?SYMB   '',$,102,5
               R  3190           ?SYMB   '',$,102,2
0854 F0C4         3191           MOV     R12,R4
               R  3192           ?SYMB   'R12',$,100,1
                  3193   ; me_wnd.c  433 
                  3194   ; me_wnd.c  434         return retval;
                  3195   ; me_wnd.c  435 }
                  3196           ?LINE   435
0856              3197   _97:
               R  3198           ?SYMB   '',$,102,1
0856 9880         3199           MOV     R8,[R0+]
               R  3200           ?SYMB   '',$,96,2
0858 9890         3201           MOV     R9,[R0+]
               R  3202           ?SYMB   '',$,96,0
085A DB00         3203           RETS
                  3204   _ME_GetCallWaitingStatus        ENDP
               R  3205           ?SYMB   '',$,17,435
                  3206   ; me_wnd.c  436 
                  3207   ; me_wnd.c  437 int ME_SetCallForwardStatus( HWND hWnd, int Msg, PCALL_FWD pCallFwd )
                  3208   ; me_wnd.c  438 {
                  3209           ?LINE   438
                  3210           PUBLIC  _ME_SetCallForwardStatus
               R  3211           ?SYMB   'ME_SetCallForwardStatus',_ME_SetCallForwardStatus,37,16
                  3212           ?SYMB   '',438,8,34
                  3213           ?SYMB   'CALL_FWD',502,13,573
                  3214   _ME_SetCallForwardStatus        PROC    FAR
                  3215           ?SYMB   '',0300H,95,0
085C 8890         3216           MOV     [-R0],R9
               R  3217           ?SYMB   '',$,96,2
085E 8880         3218           MOV     [-R0],R8
               R  3219           ?SYMB   '',$,96,4
                  3220   ; Locals:
                  3221   ; 
                  3222   ; Statics:
                  3223   ; 
                  3224   ; CSEs:
                  3225   ;     request = R8R9
                  3226   ;     retval = R12
                  3227   ;     hWnd = R12R13
                  3228   ;     pCallFwd = offset 4
                  3229   ;     Msg = R14
                  3230   ; 
                  3231           ?SYMB   'hWnd',3,99,394
                  3232           ?SYMB   'Msg',2,99,16
                  3233           ?SYMB   'pCallFwd',5,99,505
                  3234           ?SYMB   'retval',1,98,16
                  3235           ?SYMB   'request',4,98,547
               R  3236           ?SYMB   '0',$,101,5
               R  3237           ?SYMB   'R12R13',$,100,3
               R  3238           ?SYMB   'R14',$,100,2
                  3239   ; me_wnd.c  439         int retval = 0;
                  3240   ; me_wnd.c  440         struct ME_REQUEST_WIN * request;;
                  3241   ; me_wnd.c  441 
                  3242   ; me_wnd.c  442         if ( pCallFwd == NULL )
                  3243           ?LINE   442
0860 D4F00400     3244           MOV     R15,[R0+#04H]
0864 D4100600     3245           MOV     R1,[R0+#06H]
0868 70F1         3246           OR      R15,R1
086A 2D0F         3247           JMPR    cc_Z,_106
                  3248   ; me_wnd.c  443                 return -1;
                  3249   ; me_wnd.c  444 
                  3250   ; me_wnd.c  445         request = FindRequestStruct( -1 );
                  3251           ?LINE   445
086C 88C0         3252           MOV     [-R0],R12
               R  3253           ?SYMB   '',$,96,6
086E 88D0         3254           MOV     [-R0],R13
               R  3255           ?SYMB   '',$,96,8
0870 88E0         3256           MOV     [-R0],R14
               R  3257           ?SYMB   '',$,96,10
0872 E6FCFFFF     3258           MOV     R12,#0FFFFh
               R  3259           ?SYMB   '',$,102,3
0876 DA000000  R  3260           CALLS   SEG _FindRequestStruct,_FindRequestStruct
               R  3261           ?SYMB   '',$,102,2
087A F084         3262           MOV     R8,R4
087C F095         3263           MOV     R9,R5
               R  3264           ?SYMB   'R8R9',$,100,4
087E 98E0         3265           MOV     R14,[R0+]
               R  3266           ?SYMB   '',$,96,8
               R  3267           ?SYMB   'R14',$,100,2
0880 98D0         3268           MOV     R13,[R0+]
               R  3269           ?SYMB   '',$,96,6
0882 98C0         3270           MOV     R12,[R0+]
               R  3271           ?SYMB   '',$,96,4
               R  3272           ?SYMB   'R12R13',$,100,3
                  3273   ; me_wnd.c  446         if ( NULL == request )
                  3274           ?LINE   446
0884 F0F9         3275           MOV     R15,R9
0886 70F8         3276           OR      R15,R8
0888 3D03         3277           JMPR    cc_NZ,_107
               R  3278           ?SYMB   '',$,102,5
                  3279   ; me_wnd.c  447                 return -1;
                  3280           ?LINE   447
088A              3281   _106:
               R  3282           ?SYMB   '',$,102,4
               R  3283           ?SYMB   '',$,102,2
               R  3284           ?SYMB   '',$,102,3
088A E6F4FFFF     3285           MOV     R4,#0FFFFh
088E 0D36         3286           JMPR    cc_UC,_108
0890              3287   _107:
               R  3288           ?SYMB   '0',$,101,5
               R  3289           ?SYMB   'R8R9',$,100,4
               R  3290           ?SYMB   'R12R13',$,100,3
               R  3291           ?SYMB   'R14',$,100,2
                  3292   ; me_wnd.c  448 
                  3293   ; me_wnd.c  449     request->hWnd = hWnd;
                  3294           ?LINE   449
0890 DC59         3295           EXTP    R9,#02h
0892 C4C83C01 2   3296           MOV     [R8+#013CH],R12
0896 C4D83E01 1   3297           MOV     [R8+#013EH],R13
                  3298   ; me_wnd.c  450     request->message = Msg;
                  3299           ?LINE   450
089A DC49         3300           EXTP    R9,#01h
089C C4E84001 1   3301           MOV     [R8+#0140H],R14
                  3302   ; me_wnd.c  451 
                  3303   ; me_wnd.c  452         memcpy( request->cmddata, pCallFwd, sizeof(CALL_FWD));
                  3304           ?LINE   452
08A0 E6FC2000     3305           MOV     R12,#020h
               R  3306           ?SYMB   '',$,102,3
08A4 88C0         3307           MOV     [-R0],R12
               R  3308           ?SYMB   '',$,96,6
08A6 F0C8         3309           MOV     R12,R8
08A8 F0D9         3310           MOV     R13,R9
08AA 06FC2200     3311           ADD     R12,#022h
08AE D4E00600     3312           MOV     R14,[R0+#06H]
               R  3313           ?SYMB   '',$,102,2
08B2 D4F00800     3314           MOV     R15,[R0+#08H]
08B6 DA000000  R  3315           CALLS   SEG _memcpy,_memcpy
08BA 0802         3316           ADD     R0,#02h
               R  3317           ?SYMB   '',$,96,4
                  3318   ; me_wnd.c  453 
                  3319   ; me_wnd.c  454     /* Fill the request */
                  3320   ; me_wnd.c  455         request->request.cmd = ME_SET_CALLFWDING;
                  3321           ?LINE   455
08BC E6FC1000     3322           MOV     R12,#010h
08C0 DC49         3323           EXTP    R9,#01h
08C2 B8C8     1   3324           MOV     [R8],R12
                  3325   ; me_wnd.c  456 
                  3326   ; me_wnd.c  457         request->request.cmddata = request->cmddata;
                  3327           ?LINE   457
08C4 F0D8         3328           MOV     R13,R8
08C6 F0E9         3329           MOV     R14,R9
08C8 06FD2200     3330           ADD     R13,#022h
08CC DC59         3331           EXTP    R9,#02h
08CE C4D80800 2   3332           MOV     [R8+#08H],R13
08D2 C4E80A00 1   3333           MOV     [R8+#0AH],R14
                  3334   ; me_wnd.c  458         request->request.cmddata_len = sizeof(CALL_FWD);
                  3335           ?LINE   458
08D6 E6FD2000     3336           MOV     R13,#020h
08DA DC49         3337           EXTP    R9,#01h
08DC C4D80C00 1   3338           MOV     [R8+#0CH],R13
                  3339   ; me_wnd.c  459     request->request.reply = ME_WndCallback;
                  3340           ?LINE   459
08E0 E6FE0000  R  3341           MOV     R14,#SOF _ME_WndCallback
08E4 E6FF0000  R  3342           MOV     R15,#SEG _ME_WndCallback
08E8 DC59         3343           EXTP    R9,#02h
08EA C4E80E00 2   3344           MOV     [R8+#0EH],R14
08EE C4F81000 1   3345           MOV     [R8+#010H],R15
                  3346   ; me_wnd.c  460 
                  3347   ; me_wnd.c  461         retval = ME_Request( &(request->request) );
                  3348           ?LINE   461
08F2 F0C8         3349           MOV     R12,R8
08F4 F0D9         3350           MOV     R13,R9
08F6 DA000000  R  3351           CALLS   SEG _ME_Request,_ME_Request
               R  3352           ?SYMB   '',$,102,4
08FA F0C4         3353           MOV     R12,R4
               R  3354           ?SYMB   'R12',$,100,1
                  3355   ; me_wnd.c  462 
                  3356   ; me_wnd.c  463         return retval;
                  3357   ; me_wnd.c  464 }
                  3358           ?LINE   464
08FC              3359   _108:
               R  3360           ?SYMB   '',$,102,1
08FC 9880         3361           MOV     R8,[R0+]
               R  3362           ?SYMB   '',$,96,2
08FE 9890         3363           MOV     R9,[R0+]
               R  3364           ?SYMB   '',$,96,0
0900 DB00         3365           RETS
                  3366   _ME_SetCallForwardStatus        ENDP
               R  3367           ?SYMB   '',$,17,464
                  3368   ; me_wnd.c  465 
                  3369   ; me_wnd.c  466 int ME_GetCallForwardStatus( HWND hWnd, int Msg, int Style, int Class )
                  3370   ; me_wnd.c  467 {
                  3371           ?LINE   467
                  3372           PUBLIC  _ME_GetCallForwardStatus
               R  3373           ?SYMB   'ME_GetCallForwardStatus',_ME_GetCallForwardStatus,37,16
                  3374           ?SYMB   '',467,8,34
                  3375   _ME_GetCallForwardStatus        PROC    FAR
                  3376           ?SYMB   '',0300H,95,0
0902 8890         3377           MOV     [-R0],R9
               R  3378           ?SYMB   '',$,96,2
0904 8880         3379           MOV     [-R0],R8
               R  3380           ?SYMB   '',$,96,4
                  3381   ; Locals:
                  3382   ; 
                  3383   ; Statics:
                  3384   ; 
                  3385   ; CSEs:
                  3386   ;     request = R8R9
                  3387   ;     retval = R12
                  3388   ;     Msg = R14
                  3389   ;     hWnd = R12R13
                  3390   ;     Style = R15
                  3391   ;     Class = offset 4
                  3392   ; 
                  3393           ?SYMB   'hWnd',5,99,394
                  3394           ?SYMB   'Msg',4,99,16
                  3395           ?SYMB   'Style',3,99,16
                  3396           ?SYMB   'Class',2,99,16
                  3397           ?SYMB   'retval',1,98,16
                  3398           ?SYMB   'request',6,98,547
               R  3399           ?SYMB   'R12R13',$,100,5
               R  3400           ?SYMB   'R14',$,100,4
               R  3401           ?SYMB   'R15',$,100,3
               R  3402           ?SYMB   '0',$,101,2
                  3403   ; me_wnd.c  468         int retval = 0;
                  3404   ; me_wnd.c  469         struct ME_REQUEST_WIN * request = FindRequestStruct( -1 );
                  3405           ?LINE   469
0906 88C0         3406           MOV     [-R0],R12
               R  3407           ?SYMB   '',$,96,6
0908 88D0         3408           MOV     [-R0],R13
               R  3409           ?SYMB   '',$,96,8
090A 88E0         3410           MOV     [-R0],R14
               R  3411           ?SYMB   '',$,96,10
090C 88F0         3412           MOV     [-R0],R15
               R  3413           ?SYMB   '',$,96,12
090E E6FCFFFF     3414           MOV     R12,#0FFFFh
               R  3415           ?SYMB   '',$,102,5
0912 DA000000  R  3416           CALLS   SEG _FindRequestStruct,_FindRequestStruct
               R  3417           ?SYMB   '',$,102,4
               R  3418           ?SYMB   '',$,102,3
0916 F084         3419           MOV     R8,R4
0918 F095         3420           MOV     R9,R5
               R  3421           ?SYMB   'R8R9',$,100,6
091A 98F0         3422           MOV     R15,[R0+]
               R  3423           ?SYMB   '',$,96,10
               R  3424           ?SYMB   'R15',$,100,3
091C 98E0         3425           MOV     R14,[R0+]
               R  3426           ?SYMB   '',$,96,8
               R  3427           ?SYMB   'R14',$,100,4
091E 98D0         3428           MOV     R13,[R0+]
               R  3429           ?SYMB   '',$,96,6
0920 98C0         3430           MOV     R12,[R0+]
               R  3431           ?SYMB   '',$,96,4
               R  3432           ?SYMB   'R12R13',$,100,5
                  3433   ; me_wnd.c  470 
                  3434   ; me_wnd.c  471         if ( NULL == request )
                  3435           ?LINE   471
0922 F019         3436           MOV     R1,R9
0924 7018         3437           OR      R1,R8
0926 3D03         3438           JMPR    cc_NZ,_111
               R  3439           ?SYMB   '',$,102,2
                  3440   ; me_wnd.c  472                 return -1;
                  3441           ?LINE   472
0928 E6F4FFFF     3442           MOV     R4,#0FFFFh
092C 0D20         3443           JMPR    cc_UC,_112
092E              3444   _111:
               R  3445           ?SYMB   '',$,102,6
               R  3446           ?SYMB   '',$,102,3
               R  3447           ?SYMB   '',$,102,4
               R  3448           ?SYMB   '',$,102,5
               R  3449           ?SYMB   'R8R9',$,100,6
               R  3450           ?SYMB   'R12R13',$,100,5
               R  3451           ?SYMB   'R14',$,100,4
               R  3452           ?SYMB   'R15',$,100,3
               R  3453           ?SYMB   '0',$,101,2
                  3454   ; me_wnd.c  473 
                  3455   ; me_wnd.c  474     request->hWnd = hWnd;
                  3456           ?LINE   474
092E DC59         3457           EXTP    R9,#02h
0930 C4C83C01 2   3458           MOV     [R8+#013CH],R12
0934 C4D83E01 1   3459           MOV     [R8+#013EH],R13
                  3460   ; me_wnd.c  475     request->message = Msg;
                  3461           ?LINE   475
0938 DC59         3462           EXTP    R9,#02h
093A C4E84001 2   3463           MOV     [R8+#0140H],R14
                  3464   ; me_wnd.c  476 
                  3465   ; me_wnd.c  477     /* Fill the request */
                  3466   ; me_wnd.c  478         request->request.arg1 = Style;
                  3467           ?LINE   478
093E C4F80200 1   3468           MOV     [R8+#02H],R15
                  3469   ; me_wnd.c  479         request->request.arg2 = Class;
                  3470           ?LINE   479
0942 D4C00400     3471           MOV     R12,[R0+#04H]
               R  3472           ?SYMB   '',$,102,5
                  3473   ; me_wnd.c  480 
                  3474   ; me_wnd.c  481         request->request.cmd = ME_GET_CALLFWDING;
                  3475           ?LINE   481
0946 E6FD1100     3476           MOV     R13,#011h
                  3477           ?LINE   479
094A DC59         3478           EXTP    R9,#02h
094C C4C80400 2   3479           MOV     [R8+#04H],R12
                  3480           ?LINE   481
0950 B8D8     1   3481           MOV     [R8],R13
                  3482   ; me_wnd.c  482     request->request.reply = ME_WndCallback;
                  3483           ?LINE   482
0952 E6FE0000  R  3484           MOV     R14,#SOF _ME_WndCallback
               R  3485           ?SYMB   '',$,102,4
0956 E6FF0000  R  3486           MOV     R15,#SEG _ME_WndCallback
               R  3487           ?SYMB   '',$,102,3
095A DC59         3488           EXTP    R9,#02h
095C C4E80E00 2   3489           MOV     [R8+#0EH],R14
0960 C4F81000 1   3490           MOV     [R8+#010H],R15
                  3491   ; me_wnd.c  483 
                  3492   ; me_wnd.c  484         retval = ME_Request( &(request->request) );
                  3493           ?LINE   484
0964 F0C8         3494           MOV     R12,R8
0966 F0D9         3495           MOV     R13,R9
0968 DA000000  R  3496           CALLS   SEG _ME_Request,_ME_Request
               R  3497           ?SYMB   '',$,102,6
096C F0C4         3498           MOV     R12,R4
               R  3499           ?SYMB   'R12',$,100,1
                  3500   ; me_wnd.c  485 
                  3501   ; me_wnd.c  486         return retval;
                  3502   ; me_wnd.c  487 }
                  3503           ?LINE   487
096E              3504   _112:
               R  3505           ?SYMB   '',$,102,1
096E 9880         3506           MOV     R8,[R0+]
               R  3507           ?SYMB   '',$,96,2
0970 9890         3508           MOV     R9,[R0+]
               R  3509           ?SYMB   '',$,96,0
0972 DB00         3510           RETS
                  3511   _ME_GetCallForwardStatus        ENDP
               R  3512           ?SYMB   '',$,17,487
                  3513   ; me_wnd.c  488 
                  3514   ; me_wnd.c  489 int ME_SetCallBarringStatus( HWND hWnd, int Msg, int Style,BOOL bEnable, char* 
                         Password, int Class )
                  3515   ; me_wnd.c  490 {
                  3516           ?LINE   490
                  3517           PUBLIC  _ME_SetCallBarringStatus
               R  3518           ?SYMB   'ME_SetCallBarringStatus',_ME_SetCallBarringStatus,37,16
                  3519           ?SYMB   '',490,8,34
                  3520   _ME_SetCallBarringStatus        PROC    FAR
                  3521           ?SYMB   '',03c0H,95,0
0974 8890         3522           MOV     [-R0],R9
               R  3523           ?SYMB   '',$,96,2
0976 8880         3524           MOV     [-R0],R8
               R  3525           ?SYMB   '',$,96,4
0978 8870         3526           MOV     [-R0],R7
               R  3527           ?SYMB   '',$,96,6
097A 8860         3528           MOV     [-R0],R6
               R  3529           ?SYMB   '',$,96,8
097C 88F0         3530           MOV     [-R0],R15
               R  3531           ?SYMB   '',$,96,10
097E D4700E00     3532           MOV     R7,[R0+#0EH]
0982 D4600C00     3533           MOV     R6,[R0+#0CH]
                  3534   ; Locals:
                  3535   ; 
                  3536   ; Statics:
                  3537   ; 
                  3538   ; CSEs:
                  3539   ;     request = R8R9
                  3540   ;     Password = R6R7
                  3541   ;     retval = R12
                  3542   ;     Msg = R14
                  3543   ;     hWnd = R12R13
                  3544   ;     Style = offset 0
                  3545   ;     Class = offset 16
                  3546   ;     bEnable = offset 10
                  3547   ; 
                  3548           ?SYMB   'hWnd',7,99,394
                  3549           ?SYMB   'Msg',6,99,16
                  3550           ?SYMB   'Style',4,99,16
                  3551           ?SYMB   'bEnable',3,99,258
                  3552           ?SYMB   'Password',5,99,266
                  3553           ?SYMB   'Class',2,99,16
                  3554           ?SYMB   'retval',1,98,16
                  3555           ?SYMB   'request',8,98,547
               R  3556           ?SYMB   'R12R13',$,100,7
               R  3557           ?SYMB   'R14',$,100,6
               R  3558           ?SYMB   'R6R7',$,100,5
               R  3559           ?SYMB   '-a',$,101,4
               R  3560           ?SYMB   '0',$,101,3
               R  3561           ?SYMB   '6',$,101,2
                  3562   ; me_wnd.c  491         int retval = 0;
                  3563   ; me_wnd.c  492         struct ME_REQUEST_WIN * request = FindRequestStruct( -1 );
                  3564           ?LINE   492
0986 88C0         3565           MOV     [-R0],R12
               R  3566           ?SYMB   '',$,96,12
0988 88D0         3567           MOV     [-R0],R13
               R  3568           ?SYMB   '',$,96,14
098A 88E0         3569           MOV     [-R0],R14
               R  3570           ?SYMB   '',$,96,16
098C E6FCFFFF     3571           MOV     R12,#0FFFFh
               R  3572           ?SYMB   '',$,102,7
0990 DA000000  R  3573           CALLS   SEG _FindRequestStruct,_FindRequestStruct
               R  3574           ?SYMB   '',$,102,6
0994 F084         3575           MOV     R8,R4
0996 F095         3576           MOV     R9,R5
               R  3577           ?SYMB   'R8R9',$,100,8
0998 98E0         3578           MOV     R14,[R0+]
               R  3579           ?SYMB   '',$,96,14
               R  3580           ?SYMB   'R14',$,100,6
099A 98D0         3581           MOV     R13,[R0+]
               R  3582           ?SYMB   '',$,96,12
099C 98C0         3583           MOV     R12,[R0+]
               R  3584           ?SYMB   '',$,96,10
               R  3585           ?SYMB   'R12R13',$,100,7
                  3586   ; me_wnd.c  493 
                  3587   ; me_wnd.c  494         if ( NULL == request )
                  3588           ?LINE   494
099E F0F9         3589           MOV     R15,R9
09A0 70F8         3590           OR      R15,R8
09A2 3D04         3591           JMPR    cc_NZ,_116
               R  3592           ?SYMB   '',$,102,4
               R  3593           ?SYMB   '',$,102,3
               R  3594           ?SYMB   '',$,102,2
                  3595   ; me_wnd.c  495                 return -1;
                  3596           ?LINE   495
09A4 E6F4FFFF     3597           MOV     R4,#0FFFFh
09A8 EA00300A  R  3598           JMPA    cc_UC,_118
09AC              3599   _116:
               R  3600           ?SYMB   '',$,102,5
               R  3601           ?SYMB   '',$,102,8
               R  3602           ?SYMB   '',$,102,6
               R  3603           ?SYMB   '',$,102,7
               R  3604           ?SYMB   'R8R9',$,100,8
               R  3605           ?SYMB   'R12R13',$,100,7
               R  3606           ?SYMB   'R14',$,100,6
               R  3607           ?SYMB   'R6R7',$,100,5
               R  3608           ?SYMB   '-a',$,101,4
               R  3609           ?SYMB   '0',$,101,3
               R  3610           ?SYMB   '6',$,101,2
                  3611   ; me_wnd.c  496 
                  3612   ; me_wnd.c  497     request->hWnd = hWnd;
                  3613           ?LINE   497
09AC DC59         3614           EXTP    R9,#02h
09AE C4C83C01 2   3615           MOV     [R8+#013CH],R12
09B2 C4D83E01 1   3616           MOV     [R8+#013EH],R13
                  3617   ; me_wnd.c  498     request->message = Msg;
                  3618           ?LINE   498
09B6 DC49         3619           EXTP    R9,#01h
09B8 C4E84001 1   3620           MOV     [R8+#0140H],R14
                  3621   ; me_wnd.c  499         
                  3622   ; me_wnd.c  500         if ( Password != NULL )
                  3623           ?LINE   500
09BC F0C7         3624           MOV     R12,R7
               R  3625           ?SYMB   '',$,102,7
09BE 70C6         3626           OR      R12,R6
09C0 2D18         3627           JMPR    cc_Z,_117
                  3628   ; me_wnd.c  501         {
                  3629   ; me_wnd.c  502                 strcpy( request->cmddata, Password );
                  3630           ?LINE   502
09C2 F0C8         3631           MOV     R12,R8
09C4 F0D9         3632           MOV     R13,R9
09C6 06FC2200     3633           ADD     R12,#022h
09CA F0E6         3634           MOV     R14,R6
               R  3635           ?SYMB   '',$,102,6
09CC F0F7         3636           MOV     R15,R7
09CE DA000000  R  3637           CALLS   SEG _strcpy,_strcpy
                  3638   ; me_wnd.c  503                 request->request.cmddata = request->cmddata;
                  3639           ?LINE   503
09D2 F0C8         3640           MOV     R12,R8
09D4 F0D9         3641           MOV     R13,R9
09D6 06FC2200     3642           ADD     R12,#022h
09DA DC59         3643           EXTP    R9,#02h
09DC C4C80800 2   3644           MOV     [R8+#08H],R12
09E0 C4D80A00 1   3645           MOV     [R8+#0AH],R13
                  3646   ; me_wnd.c  504                 request->request.cmddata_len = strlen( Password );
                  3647           ?LINE   504
09E4 F0C6         3648           MOV     R12,R6
09E6 F0D7         3649           MOV     R13,R7
09E8 DA000000  R  3650           CALLS   SEG _strlen,_strlen
               R  3651           ?SYMB   '',$,102,5
09EC DC49         3652           EXTP    R9,#01h
09EE C4480C00 1   3653           MOV     [R8+#0CH],R4
                  3654   ; me_wnd.c  505         }
                  3655           ?LINE   505
09F2              3656   _117:
                  3657   ; me_wnd.c  506 
                  3658   ; me_wnd.c  507     /* Fill the request */
                  3659   ; me_wnd.c  508         request->request.arg1 = Style;
                  3660           ?LINE   508
09F2 A860         3661           MOV     R6,[R0]
09F4 DC49         3662           EXTP    R9,#01h
09F6 C4680200 1   3663           MOV     [R8+#02H],R6
                  3664   ; me_wnd.c  509         request->request.arg2 = bEnable;
                  3665           ?LINE   509
09FA D4700A00     3666           MOV     R7,[R0+#0AH]
09FE DC49         3667           EXTP    R9,#01h
0A00 C4780400 1   3668           MOV     [R8+#04H],R7
                  3669   ; me_wnd.c  510         request->request.arg3 = Class;
                  3670           ?LINE   510
0A04 D4C01000     3671           MOV     R12,[R0+#010H]
                  3672   ; me_wnd.c  511 
                  3673   ; me_wnd.c  512         request->request.cmd = ME_SET_CALLBARRING;
                  3674           ?LINE   512
0A08 E6FD1200     3675           MOV     R13,#012h
                  3676           ?LINE   510
0A0C DC59         3677           EXTP    R9,#02h
0A0E C4C80600 2   3678           MOV     [R8+#06H],R12
                  3679           ?LINE   512
0A12 B8D8     1   3680           MOV     [R8],R13
                  3681   ; me_wnd.c  513     request->request.reply = ME_WndCallback;
                  3682           ?LINE   513
0A14 E6FE0000  R  3683           MOV     R14,#SOF _ME_WndCallback
0A18 E6FF0000  R  3684           MOV     R15,#SEG _ME_WndCallback
0A1C DC59         3685           EXTP    R9,#02h
0A1E C4E80E00 2   3686           MOV     [R8+#0EH],R14
0A22 C4F81000 1   3687           MOV     [R8+#010H],R15
                  3688   ; me_wnd.c  514 
                  3689   ; me_wnd.c  515         retval = ME_Request( &(request->request) );
                  3690           ?LINE   515
0A26 F0C8         3691           MOV     R12,R8
0A28 F0D9         3692           MOV     R13,R9
0A2A DA000000  R  3693           CALLS   SEG _ME_Request,_ME_Request
               R  3694           ?SYMB   '',$,102,8
0A2E F0C4         3695           MOV     R12,R4
               R  3696           ?SYMB   'R12',$,100,1
                  3697   ; me_wnd.c  516 
                  3698   ; me_wnd.c  517         return retval;
                  3699   ; me_wnd.c  518 }
                  3700           ?LINE   518
0A30              3701   _118:
               R  3702           ?SYMB   '',$,102,1
0A30 0802         3703           ADD     R0,#02h
               R  3704           ?SYMB   '',$,96,8
0A32 9860         3705           MOV     R6,[R0+]
               R  3706           ?SYMB   '',$,96,6
0A34 9870         3707           MOV     R7,[R0+]
               R  3708           ?SYMB   '',$,96,4
0A36 9880         3709           MOV     R8,[R0+]
               R  3710           ?SYMB   '',$,96,2
0A38 9890         3711           MOV     R9,[R0+]
               R  3712           ?SYMB   '',$,96,0
0A3A DB00         3713           RETS
                  3714   _ME_SetCallBarringStatus        ENDP
               R  3715           ?SYMB   '',$,17,518
                  3716   ; me_wnd.c  519 
                  3717   ; me_wnd.c  520 int ME_GetCallBarringStatus( HWND hWnd, int Msg, int Style, int Class, char* Pa
                         ssword )
                  3718   ; me_wnd.c  521 {
                  3719           ?LINE   521
                  3720           PUBLIC  _ME_GetCallBarringStatus
               R  3721           ?SYMB   'ME_GetCallBarringStatus',_ME_GetCallBarringStatus,37,16
                  3722           ?SYMB   '',521,8,34
                  3723   _ME_GetCallBarringStatus        PROC    FAR
                  3724           ?SYMB   '',03c0H,95,0
0A3C 8890         3725           MOV     [-R0],R9
               R  3726           ?SYMB   '',$,96,2
0A3E 8880         3727           MOV     [-R0],R8
               R  3728           ?SYMB   '',$,96,4
0A40 8870         3729           MOV     [-R0],R7
               R  3730           ?SYMB   '',$,96,6
0A42 8860         3731           MOV     [-R0],R6
               R  3732           ?SYMB   '',$,96,8
0A44 88F0         3733           MOV     [-R0],R15
               R  3734           ?SYMB   '',$,96,10
0A46 D4700E00     3735           MOV     R7,[R0+#0EH]
0A4A D4600C00     3736           MOV     R6,[R0+#0CH]
                  3737   ; Locals:
                  3738   ; 
                  3739   ; Statics:
                  3740   ; 
                  3741   ; CSEs:
                  3742   ;     request = R8R9
                  3743   ;     Password = R6R7
                  3744   ;     retval = R12
                  3745   ;     Msg = R14
                  3746   ;     hWnd = R12R13
                  3747   ;     Style = offset 0
                  3748   ;     Class = offset 10
                  3749   ; 
                  3750           ?SYMB   'hWnd',6,99,394
                  3751           ?SYMB   'Msg',5,99,16
                  3752           ?SYMB   'Style',3,99,16
                  3753           ?SYMB   'Class',2,99,16
                  3754           ?SYMB   'Password',4,99,266
                  3755           ?SYMB   'retval',1,98,16
                  3756           ?SYMB   'request',7,98,547
               R  3757           ?SYMB   'R12R13',$,100,6
               R  3758           ?SYMB   'R14',$,100,5
               R  3759           ?SYMB   'R6R7',$,100,4
               R  3760           ?SYMB   '-a',$,101,3
               R  3761           ?SYMB   '0',$,101,2
                  3762   ; me_wnd.c  522         int retval = 0;
                  3763   ; me_wnd.c  523         struct ME_REQUEST_WIN * request = FindRequestStruct( -1 );
                  3764           ?LINE   523
0A4E 88C0         3765           MOV     [-R0],R12
               R  3766           ?SYMB   '',$,96,12
0A50 88D0         3767           MOV     [-R0],R13
               R  3768           ?SYMB   '',$,96,14
0A52 88E0         3769           MOV     [-R0],R14
               R  3770           ?SYMB   '',$,96,16
0A54 E6FCFFFF     3771           MOV     R12,#0FFFFh
               R  3772           ?SYMB   '',$,102,6
0A58 DA000000  R  3773           CALLS   SEG _FindRequestStruct,_FindRequestStruct
               R  3774           ?SYMB   '',$,102,5
0A5C F084         3775           MOV     R8,R4
0A5E F095         3776           MOV     R9,R5
               R  3777           ?SYMB   'R8R9',$,100,7
0A60 98E0         3778           MOV     R14,[R0+]
               R  3779           ?SYMB   '',$,96,14
               R  3780           ?SYMB   'R14',$,100,5
0A62 98D0         3781           MOV     R13,[R0+]
               R  3782           ?SYMB   '',$,96,12
0A64 98C0         3783           MOV     R12,[R0+]
               R  3784           ?SYMB   '',$,96,10
               R  3785           ?SYMB   'R12R13',$,100,6
                  3786   ; me_wnd.c  524 
                  3787   ; me_wnd.c  525         if ( NULL == request )
                  3788           ?LINE   525
0A66 F0F9         3789           MOV     R15,R9
0A68 70F8         3790           OR      R15,R8
0A6A 3D03         3791           JMPR    cc_NZ,_122
               R  3792           ?SYMB   '',$,102,3
               R  3793           ?SYMB   '',$,102,2
                  3794   ; me_wnd.c  526                 return -1;
                  3795           ?LINE   526
0A6C E6F4FFFF     3796           MOV     R4,#0FFFFh
0A70 0D3D         3797           JMPR    cc_UC,_124
0A72              3798   _122:
               R  3799           ?SYMB   '',$,102,4
               R  3800           ?SYMB   '',$,102,7
               R  3801           ?SYMB   '',$,102,5
               R  3802           ?SYMB   '',$,102,6
               R  3803           ?SYMB   'R8R9',$,100,7
               R  3804           ?SYMB   'R12R13',$,100,6
               R  3805           ?SYMB   'R14',$,100,5
               R  3806           ?SYMB   'R6R7',$,100,4
               R  3807           ?SYMB   '-a',$,101,3
               R  3808           ?SYMB   '0',$,101,2
                  3809   ; me_wnd.c  527 
                  3810   ; me_wnd.c  528     request->hWnd = hWnd;
                  3811           ?LINE   528
0A72 DC59         3812           EXTP    R9,#02h
0A74 C4C83C01 2   3813           MOV     [R8+#013CH],R12
0A78 C4D83E01 1   3814           MOV     [R8+#013EH],R13
                  3815   ; me_wnd.c  529     request->message = Msg;
                  3816           ?LINE   529
0A7C DC49         3817           EXTP    R9,#01h
0A7E C4E84001 1   3818           MOV     [R8+#0140H],R14
                  3819   ; me_wnd.c  530         
                  3820   ; me_wnd.c  531         if ( Password != NULL )
                  3821           ?LINE   531
0A82 F0C7         3822           MOV     R12,R7
               R  3823           ?SYMB   '',$,102,6
0A84 70C6         3824           OR      R12,R6
0A86 2D18         3825           JMPR    cc_Z,_123
                  3826   ; me_wnd.c  532         {
                  3827   ; me_wnd.c  533                 strcpy( request->cmddata, Password );
                  3828           ?LINE   533
0A88 F0C8         3829           MOV     R12,R8
0A8A F0D9         3830           MOV     R13,R9
0A8C 06FC2200     3831           ADD     R12,#022h
0A90 F0E6         3832           MOV     R14,R6
               R  3833           ?SYMB   '',$,102,5
0A92 F0F7         3834           MOV     R15,R7
0A94 DA000000  R  3835           CALLS   SEG _strcpy,_strcpy
                  3836   ; me_wnd.c  534                 request->request.cmddata = request->cmddata;
                  3837           ?LINE   534
0A98 F0C8         3838           MOV     R12,R8
0A9A F0D9         3839           MOV     R13,R9
0A9C 06FC2200     3840           ADD     R12,#022h
0AA0 DC59         3841           EXTP    R9,#02h
0AA2 C4C80800 2   3842           MOV     [R8+#08H],R12
0AA6 C4D80A00 1   3843           MOV     [R8+#0AH],R13
                  3844   ; me_wnd.c  535                 request->request.cmddata_len = strlen( Password );
                  3845           ?LINE   535
0AAA F0C6         3846           MOV     R12,R6
0AAC F0D7         3847           MOV     R13,R7
0AAE DA000000  R  3848           CALLS   SEG _strlen,_strlen
               R  3849           ?SYMB   '',$,102,4
0AB2 DC49         3850           EXTP    R9,#01h
0AB4 C4480C00 1   3851           MOV     [R8+#0CH],R4
                  3852   ; me_wnd.c  536         }
                  3853           ?LINE   536
0AB8              3854   _123:
                  3855   ; me_wnd.c  537 
                  3856   ; me_wnd.c  538     /* Fill the request */
                  3857   ; me_wnd.c  539         request->request.arg1 = Style;
                  3858           ?LINE   539
0AB8 A860         3859           MOV     R6,[R0]
0ABA DC49         3860           EXTP    R9,#01h
0ABC C4680200 1   3861           MOV     [R8+#02H],R6
                  3862   ; me_wnd.c  540         request->request.arg2 = Class;
                  3863           ?LINE   540
0AC0 D4700A00     3864           MOV     R7,[R0+#0AH]
                  3865   ; me_wnd.c  541 
                  3866   ; me_wnd.c  542         request->request.cmd = ME_GET_CALLBARRING;
                  3867           ?LINE   542
0AC4 E6FC1300     3868           MOV     R12,#013h
                  3869           ?LINE   540
0AC8 DC59         3870           EXTP    R9,#02h
0ACA C4780400 2   3871           MOV     [R8+#04H],R7
                  3872           ?LINE   542
0ACE B8C8     1   3873           MOV     [R8],R12
                  3874   ; me_wnd.c  543     request->request.reply = ME_WndCallback;
                  3875           ?LINE   543
0AD0 E6FD0000  R  3876           MOV     R13,#SOF _ME_WndCallback
0AD4 E6FE0000  R  3877           MOV     R14,#SEG _ME_WndCallback
0AD8 DC59         3878           EXTP    R9,#02h
0ADA C4D80E00 2   3879           MOV     [R8+#0EH],R13
0ADE C4E81000 1   3880           MOV     [R8+#010H],R14
                  3881   ; me_wnd.c  544 
                  3882   ; me_wnd.c  545         retval = ME_Request( &(request->request) );
                  3883           ?LINE   545
0AE2 F0C8         3884           MOV     R12,R8
0AE4 F0D9         3885           MOV     R13,R9
0AE6 DA000000  R  3886           CALLS   SEG _ME_Request,_ME_Request
               R  3887           ?SYMB   '',$,102,7
0AEA F0C4         3888           MOV     R12,R4
               R  3889           ?SYMB   'R12',$,100,1
                  3890   ; me_wnd.c  546 
                  3891   ; me_wnd.c  547         return retval;
                  3892   ; me_wnd.c  548 }
                  3893           ?LINE   548
0AEC              3894   _124:
               R  3895           ?SYMB   '',$,102,1
0AEC 0802         3896           ADD     R0,#02h
               R  3897           ?SYMB   '',$,96,8
0AEE 9860         3898           MOV     R6,[R0+]
               R  3899           ?SYMB   '',$,96,6
0AF0 9870         3900           MOV     R7,[R0+]
               R  3901           ?SYMB   '',$,96,4
0AF2 9880         3902           MOV     R8,[R0+]
               R  3903           ?SYMB   '',$,96,2
0AF4 9890         3904           MOV     R9,[R0+]
               R  3905           ?SYMB   '',$,96,0
0AF6 DB00         3906           RETS
                  3907   _ME_GetCallBarringStatus        ENDP
               R  3908           ?SYMB   '',$,17,548
                  3909   ; me_wnd.c  549 
                  3910   ; me_wnd.c  550 int ME_SMS_Send( HWND hWnd, int Msg, PSMS_SEND pSend )
                  3911   ; me_wnd.c  551 {
                  3912           ?LINE   551
                  3913           PUBLIC  _ME_SMS_Send
               R  3914           ?SYMB   'ME_SMS_Send',_ME_SMS_Send,37,16
                  3915           ?SYMB   '',551,8,34
                  3916           ?SYMB   'SMS_SEND',508,13,578
                  3917   _ME_SMS_Send    PROC    FAR
                  3918           ?SYMB   '',0300H,95,0
0AF8 8890         3919           MOV     [-R0],R9
               R  3920           ?SYMB   '',$,96,2
0AFA 8880         3921           MOV     [-R0],R8
               R  3922           ?SYMB   '',$,96,4
                  3923   ; Locals:
                  3924   ; 
                  3925   ; Statics:
                  3926   ; 
                  3927   ; CSEs:
                  3928   ;     request = R8R9
                  3929   ;     retval = R8
                  3930   ;     hWnd = R12R13
                  3931   ;     pSend = offset 4
                  3932   ;     Msg = R14
                  3933   ; 
                  3934           ?SYMB   'hWnd',3,99,394
                  3935           ?SYMB   'Msg',2,99,16
                  3936           ?SYMB   'pSend',5,99,511
                  3937           ?SYMB   'retval',1,98,16
                  3938           ?SYMB   'request',4,98,547
               R  3939           ?SYMB   '0',$,101,5
               R  3940           ?SYMB   'R12R13',$,100,3
               R  3941           ?SYMB   'R14',$,100,2
                  3942   ; me_wnd.c  552         int retval = 0;
                  3943   ; me_wnd.c  553         struct ME_REQUEST_WIN * request;
                  3944   ; me_wnd.c  554 
                  3945   ; me_wnd.c  555         if ( pSend == NULL )
                  3946           ?LINE   555
0AFC D4F00400     3947           MOV     R15,[R0+#04H]
0B00 D4100600     3948           MOV     R1,[R0+#06H]
0B04 70F1         3949           OR      R15,R1
0B06 2D15         3950           JMPR    cc_Z,_133
                  3951   ; me_wnd.c  556                 return -1;
                  3952   ; me_wnd.c  557 
                  3953   ; me_wnd.c  558         request = FindRequestStruct( -1 );
                  3954           ?LINE   558
0B08 88C0         3955           MOV     [-R0],R12
               R  3956           ?SYMB   '',$,96,6
0B0A 88D0         3957           MOV     [-R0],R13
               R  3958           ?SYMB   '',$,96,8
0B0C 88E0         3959           MOV     [-R0],R14
               R  3960           ?SYMB   '',$,96,10
0B0E E6FCFFFF     3961           MOV     R12,#0FFFFh
               R  3962           ?SYMB   '',$,102,3
0B12 DA000000  R  3963           CALLS   SEG _FindRequestStruct,_FindRequestStruct
               R  3964           ?SYMB   '',$,102,2
0B16 F084         3965           MOV     R8,R4
0B18 F095         3966           MOV     R9,R5
               R  3967           ?SYMB   'R8R9',$,100,4
0B1A 98E0         3968           MOV     R14,[R0+]
               R  3969           ?SYMB   '',$,96,8
               R  3970           ?SYMB   'R14',$,100,2
0B1C 98D0         3971           MOV     R13,[R0+]
               R  3972           ?SYMB   '',$,96,6
0B1E 98C0         3973           MOV     R12,[R0+]
               R  3974           ?SYMB   '',$,96,4
               R  3975           ?SYMB   'R12R13',$,100,3
                  3976   ; me_wnd.c  559         
                  3977   ; me_wnd.c  560         if ( NULL == request )
                  3978           ?LINE   560
0B20 F0F9         3979           MOV     R15,R9
0B22 70F8         3980           OR      R15,R8
0B24 3D09         3981           JMPR    cc_NZ,_134
               R  3982           ?SYMB   '',$,102,5
                  3983   ; me_wnd.c  561         {
                  3984   ; me_wnd.c  562 #if defined VME_DEBUG
                  3985   ; me_wnd.c  563                 debugex_nonl( "\r\nME Find Request Struct Fail!" );
                  3986           ?LINE   563
0B26 E6FC0000  R  3987           MOV     R12,#POF _56
               R  3988           ?SYMB   '',$,102,3
0B2A E6FD0000  R  3989           MOV     R13,#PAG _56
0B2E DA000000  R  3990           CALLS   SEG _debugex_nonl,_debugex_nonl
               R  3991           ?SYMB   '',$,102,4
               R  3992           ?SYMB   '',$,102,2
                  3993   ; me_wnd.c  564 #endif
                  3994   ; me_wnd.c  565                 return -1;
                  3995           ?LINE   565
0B32              3996   _133:
0B32 E6F4FFFF     3997           MOV     R4,#0FFFFh
0B36 0D3E         3998           JMPR    cc_UC,_135
                  3999   ; me_wnd.c  566         }
                  4000           ?LINE   566
0B38              4001   _134:
               R  4002           ?SYMB   '0',$,101,5
               R  4003           ?SYMB   'R8R9',$,100,4
               R  4004           ?SYMB   'R12R13',$,100,3
               R  4005           ?SYMB   'R14',$,100,2
                  4006   ; me_wnd.c  567 
                  4007   ; me_wnd.c  568     request->hWnd = hWnd;
                  4008           ?LINE   568
0B38 DC59         4009           EXTP    R9,#02h
0B3A C4C83C01 2   4010           MOV     [R8+#013CH],R12
0B3E C4D83E01 1   4011           MOV     [R8+#013EH],R13
                  4012   ; me_wnd.c  569     request->message = Msg;
                  4013           ?LINE   569
0B42 DC49         4014           EXTP    R9,#01h
0B44 C4E84001 1   4015           MOV     [R8+#0140H],R14
                  4016   ; me_wnd.c  570         memcpy( request->cmddata, pSend, sizeof(SMS_SEND) );
                  4017           ?LINE   570
0B48 E6FCE000     4018           MOV     R12,#0E0h
               R  4019           ?SYMB   '',$,102,3
0B4C 88C0         4020           MOV     [-R0],R12
               R  4021           ?SYMB   '',$,96,6
0B4E F0C8         4022           MOV     R12,R8
0B50 F0D9         4023           MOV     R13,R9
0B52 06FC2200     4024           ADD     R12,#022h
0B56 D4E00600     4025           MOV     R14,[R0+#06H]
               R  4026           ?SYMB   '',$,102,2
0B5A D4F00800     4027           MOV     R15,[R0+#08H]
0B5E DA000000  R  4028           CALLS   SEG _memcpy,_memcpy
0B62 0802         4029           ADD     R0,#02h
               R  4030           ?SYMB   '',$,96,4
                  4031   ; me_wnd.c  571         
                  4032   ; me_wnd.c  572     /* Fill the request */
                  4033   ; me_wnd.c  573         request->request.cmddata = request->cmddata;
                  4034           ?LINE   573
0B64 F0C8         4035           MOV     R12,R8
0B66 F0D9         4036           MOV     R13,R9
0B68 06FC2200     4037           ADD     R12,#022h
0B6C DC59         4038           EXTP    R9,#02h
0B6E C4C80800 2   4039           MOV     [R8+#08H],R12
0B72 C4D80A00 1   4040           MOV     [R8+#0AH],R13
                  4041   ; me_wnd.c  574         request->request.cmddata_len = sizeof(SMS_SEND);
                  4042           ?LINE   574
0B76 E6FCE000     4043           MOV     R12,#0E0h
                  4044   ; me_wnd.c  575 
                  4045   ; me_wnd.c  576         request->request.cmd = ME_SMS_SEND;
                  4046           ?LINE   576
0B7A E6FD1400     4047           MOV     R13,#014h
                  4048           ?LINE   574
0B7E DC59         4049           EXTP    R9,#02h
0B80 C4C80C00 2   4050           MOV     [R8+#0CH],R12
                  4051           ?LINE   576
0B84 B8D8     1   4052           MOV     [R8],R13
                  4053   ; me_wnd.c  577     request->request.reply = ME_WndCallback;
                  4054           ?LINE   577
0B86 E6FE0000  R  4055           MOV     R14,#SOF _ME_WndCallback
0B8A E6FF0000  R  4056           MOV     R15,#SEG _ME_WndCallback
0B8E DC59         4057           EXTP    R9,#02h
0B90 C4E80E00 2   4058           MOV     [R8+#0EH],R14
0B94 C4F81000 1   4059           MOV     [R8+#010H],R15
                  4060   ; me_wnd.c  578 
                  4061   ; me_wnd.c  579         retval = ME_Request( &(request->request) );
                  4062           ?LINE   579
0B98 F0C8         4063           MOV     R12,R8
0B9A F0D9         4064           MOV     R13,R9
0B9C DA000000  R  4065           CALLS   SEG _ME_Request,_ME_Request
               R  4066           ?SYMB   '',$,102,4
0BA0 F084         4067           MOV     R8,R4
               R  4068           ?SYMB   'R8',$,100,1
                  4069   ; me_wnd.c  580 
                  4070   ; me_wnd.c  581 #if defined VME_DEBUG
                  4071   ; me_wnd.c  582                 debugex_nonl( "\r\nME Request return %d!", retval );
                  4072           ?LINE   582
0BA2 8880         4073           MOV     [-R0],R8
               R  4074           ?SYMB   '',$,96,6
0BA4 E6FC0000  R  4075           MOV     R12,#POF _57
0BA8 E6FD0000  R  4076           MOV     R13,#PAG _57
0BAC DA000000  R  4077           CALLS   SEG _debugex_nonl,_debugex_nonl
0BB0 0802         4078           ADD     R0,#02h
               R  4079           ?SYMB   '',$,96,4
                  4080   ; me_wnd.c  583 #endif
                  4081   ; me_wnd.c  584                 return retval;
                  4082           ?LINE   584
0BB2 F048         4083           MOV     R4,R8
                  4084   ; me_wnd.c  585 }
                  4085           ?LINE   585
0BB4              4086   _135:
               R  4087           ?SYMB   '',$,102,1
0BB4 9880         4088           MOV     R8,[R0+]
               R  4089           ?SYMB   '',$,96,2
0BB6 9890         4090           MOV     R9,[R0+]
               R  4091           ?SYMB   '',$,96,0
0BB8 DB00         4092           RETS
                  4093   _ME_SMS_Send    ENDP
               R  4094           ?SYMB   '',$,17,585
                  4095   ; me_wnd.c  586 
                  4096   ; me_wnd.c  587 int ME_SMS_Read( HWND hWnd, int Msg, BOOL bPreRead, int MemType, int Index )
                  4097   ; me_wnd.c  588 {
                  4098           ?LINE   588
                  4099           PUBLIC  _ME_SMS_Read
               R  4100           ?SYMB   'ME_SMS_Read',_ME_SMS_Read,37,16
                  4101           ?SYMB   '',588,8,34
                  4102   _ME_SMS_Read    PROC    FAR
                  4103           ?SYMB   '',0300H,95,0
0BBA 8890         4104           MOV     [-R0],R9
               R  4105           ?SYMB   '',$,96,2
0BBC 8880         4106           MOV     [-R0],R8
               R  4107           ?SYMB   '',$,96,4
                  4108   ; Locals:
                  4109   ; 
                  4110   ; Statics:
                  4111   ; 
                  4112   ; CSEs:
                  4113   ;     request = R8R9
                  4114   ;     retval = R8
                  4115   ;     bPreRead = R15
                  4116   ;     hWnd = R12R13
                  4117   ;     Msg = R14
                  4118   ;     Index = offset 6
                  4119   ;     MemType = offset 4
                  4120   ; 
                  4121           ?SYMB   'hWnd',6,99,394
                  4122           ?SYMB   'Msg',5,99,16
                  4123           ?SYMB   'bPreRead',4,99,258
                  4124           ?SYMB   'MemType',3,99,16
                  4125           ?SYMB   'Index',2,99,16
                  4126           ?SYMB   'retval',1,98,16
                  4127           ?SYMB   'request',7,98,547
               R  4128           ?SYMB   'R12R13',$,100,6
               R  4129           ?SYMB   'R14',$,100,5
               R  4130           ?SYMB   'R15',$,100,4
               R  4131           ?SYMB   '0',$,101,3
               R  4132           ?SYMB   '2',$,101,2
                  4133   ; me_wnd.c  589         int retval = 0;
                  4134   ; me_wnd.c  590         struct ME_REQUEST_WIN * request;
                  4135   ; me_wnd.c  591 
                  4136   ; me_wnd.c  592         request = FindRequestStruct( -1 );
                  4137           ?LINE   592
0BBE 88C0         4138           MOV     [-R0],R12
               R  4139           ?SYMB   '',$,96,6
0BC0 88D0         4140           MOV     [-R0],R13
               R  4141           ?SYMB   '',$,96,8
0BC2 88E0         4142           MOV     [-R0],R14
               R  4143           ?SYMB   '',$,96,10
0BC4 88F0         4144           MOV     [-R0],R15
               R  4145           ?SYMB   '',$,96,12
0BC6 E6FCFFFF     4146           MOV     R12,#0FFFFh
               R  4147           ?SYMB   '',$,102,6
0BCA DA000000  R  4148           CALLS   SEG _FindRequestStruct,_FindRequestStruct
               R  4149           ?SYMB   '',$,102,5
               R  4150           ?SYMB   '',$,102,4
0BCE F084         4151           MOV     R8,R4
0BD0 F095         4152           MOV     R9,R5
               R  4153           ?SYMB   'R8R9',$,100,7
0BD2 98F0         4154           MOV     R15,[R0+]
               R  4155           ?SYMB   '',$,96,10
               R  4156           ?SYMB   'R15',$,100,4
0BD4 98E0         4157           MOV     R14,[R0+]
               R  4158           ?SYMB   '',$,96,8
               R  4159           ?SYMB   'R14',$,100,5
0BD6 98D0         4160           MOV     R13,[R0+]
               R  4161           ?SYMB   '',$,96,6
0BD8 98C0         4162           MOV     R12,[R0+]
               R  4163           ?SYMB   '',$,96,4
               R  4164           ?SYMB   'R12R13',$,100,6
                  4165   ; me_wnd.c  593         
                  4166   ; me_wnd.c  594         if ( NULL == request )
                  4167           ?LINE   594
0BDA F019         4168           MOV     R1,R9
0BDC 7018         4169           OR      R1,R8
0BDE 3D09         4170           JMPR    cc_NZ,_138
               R  4171           ?SYMB   '',$,102,3
               R  4172           ?SYMB   '',$,102,2
                  4173   ; me_wnd.c  595         {
                  4174   ; me_wnd.c  596 #if defined VME_DEBUG
                  4175   ; me_wnd.c  597                 debugex_nonl( "\r\nME Find Request Struct Fail!" );
                  4176           ?LINE   597
0BE0 E6FC0000  R  4177           MOV     R12,#POF _56
               R  4178           ?SYMB   '',$,102,6
0BE4 E6FD0000  R  4179           MOV     R13,#PAG _56
0BE8 DA000000  R  4180           CALLS   SEG _debugex_nonl,_debugex_nonl
               R  4181           ?SYMB   '',$,102,7
               R  4182           ?SYMB   '',$,102,4
               R  4183           ?SYMB   '',$,102,5
                  4184   ; me_wnd.c  598 #endif
                  4185   ; me_wnd.c  599                 return -1;
                  4186           ?LINE   599
0BEC E6F4FFFF     4187           MOV     R4,#0FFFFh
0BF0 0D2E         4188           JMPR    cc_UC,_139
                  4189   ; me_wnd.c  600         }
                  4190           ?LINE   600
0BF2              4191   _138:
               R  4192           ?SYMB   'R8R9',$,100,7
               R  4193           ?SYMB   'R12R13',$,100,6
               R  4194           ?SYMB   'R14',$,100,5
               R  4195           ?SYMB   'R15',$,100,4
               R  4196           ?SYMB   '0',$,101,3
               R  4197           ?SYMB   '2',$,101,2
                  4198   ; me_wnd.c  601     request->hWnd = hWnd;
                  4199           ?LINE   601
0BF2 DC59         4200           EXTP    R9,#02h
0BF4 C4C83C01 2   4201           MOV     [R8+#013CH],R12
0BF8 C4D83E01 1   4202           MOV     [R8+#013EH],R13
                  4203   ; me_wnd.c  602     request->message = Msg;
                  4204           ?LINE   602
0BFC DC59         4205           EXTP    R9,#02h
0BFE C4E84001 2   4206           MOV     [R8+#0140H],R14
                  4207   ; me_wnd.c  603         
                  4208   ; me_wnd.c  604     /* Fill the request */
                  4209   ; me_wnd.c  605         request->request.arg1 = bPreRead;
                  4210           ?LINE   605
0C02 C4F80200 1   4211           MOV     [R8+#02H],R15
                  4212   ; me_wnd.c  606         request->request.arg2 = MemType;
                  4213           ?LINE   606
0C06 D4C00400     4214           MOV     R12,[R0+#04H]
               R  4215           ?SYMB   '',$,102,6
0C0A DC49         4216           EXTP    R9,#01h
0C0C C4C80400 1   4217           MOV     [R8+#04H],R12
                  4218   ; me_wnd.c  607         request->request.arg3 = Index;
                  4219           ?LINE   607
0C10 D4D00600     4220           MOV     R13,[R0+#06H]
                  4221   ; me_wnd.c  608 
                  4222   ; me_wnd.c  609         request->request.cmd = ME_SMS_READ;
                  4223           ?LINE   609
0C14 E6FE1500     4224           MOV     R14,#015h
                  4225           ?LINE   607
0C18 DC59         4226           EXTP    R9,#02h
0C1A C4D80600 2   4227           MOV     [R8+#06H],R13
               R  4228           ?SYMB   '',$,102,5
                  4229           ?LINE   609
0C1E B8E8     1   4230           MOV     [R8],R14
                  4231   ; me_wnd.c  610     request->request.reply = ME_WndCallback;
                  4232           ?LINE   610
0C20 E6FF0000  R  4233           MOV     R15,#SOF _ME_WndCallback
               R  4234           ?SYMB   '',$,102,4
0C24 E6F10000  R  4235           MOV     R1,#SEG _ME_WndCallback
0C28 DC59         4236           EXTP    R9,#02h
0C2A C4F80E00 2   4237           MOV     [R8+#0EH],R15
0C2E C4181000 1   4238           MOV     [R8+#010H],R1
                  4239   ; me_wnd.c  611 
                  4240   ; me_wnd.c  612         retval = ME_Request( &(request->request) );
                  4241           ?LINE   612
0C32 F0C8         4242           MOV     R12,R8
0C34 F0D9         4243           MOV     R13,R9
0C36 DA000000  R  4244           CALLS   SEG _ME_Request,_ME_Request
               R  4245           ?SYMB   '',$,102,7
0C3A F084         4246           MOV     R8,R4
               R  4247           ?SYMB   'R8',$,100,1
                  4248   ; me_wnd.c  613 
                  4249   ; me_wnd.c  614 #if defined VME_DEBUG
                  4250   ; me_wnd.c  615                 debugex_nonl( "\r\nME Request return %d!", retval );
                  4251           ?LINE   615
0C3C 8880         4252           MOV     [-R0],R8
               R  4253           ?SYMB   '',$,96,6
0C3E E6FC0000  R  4254           MOV     R12,#POF _57
0C42 E6FD0000  R  4255           MOV     R13,#PAG _57
0C46 DA000000  R  4256           CALLS   SEG _debugex_nonl,_debugex_nonl
0C4A 0802         4257           ADD     R0,#02h
               R  4258           ?SYMB   '',$,96,4
                  4259   ; me_wnd.c  616 #endif
                  4260   ; me_wnd.c  617                 return retval;
                  4261           ?LINE   617
0C4C F048         4262           MOV     R4,R8
                  4263   ; me_wnd.c  618 }
                  4264           ?LINE   618
0C4E              4265   _139:
               R  4266           ?SYMB   '',$,102,1
0C4E 9880         4267           MOV     R8,[R0+]
               R  4268           ?SYMB   '',$,96,2
0C50 9890         4269           MOV     R9,[R0+]
               R  4270           ?SYMB   '',$,96,0
0C52 DB00         4271           RETS
                  4272   _ME_SMS_Read    ENDP
               R  4273           ?SYMB   '',$,17,618
                  4274   ; me_wnd.c  619 
                  4275   ; me_wnd.c  620 int ME_SMS_Delete( HWND hWnd, int Msg, int MemType, int Index )
                  4276   ; me_wnd.c  621 {
                  4277           ?LINE   621
                  4278           PUBLIC  _ME_SMS_Delete
               R  4279           ?SYMB   'ME_SMS_Delete',_ME_SMS_Delete,37,16
                  4280           ?SYMB   '',621,8,34
                  4281   _ME_SMS_Delete  PROC    FAR
                  4282           ?SYMB   '',0300H,95,0
0C54 8890         4283           MOV     [-R0],R9
               R  4284           ?SYMB   '',$,96,2
0C56 8880         4285           MOV     [-R0],R8
               R  4286           ?SYMB   '',$,96,4
                  4287   ; Locals:
                  4288   ; 
                  4289   ; Statics:
                  4290   ; 
                  4291   ; CSEs:
                  4292   ;     request = R8R9
                  4293   ;     retval = R12
                  4294   ;     Msg = R14
                  4295   ;     hWnd = R12R13
                  4296   ;     MemType = R15
                  4297   ;     Index = offset 4
                  4298   ; 
                  4299           ?SYMB   'hWnd',5,99,394
                  4300           ?SYMB   'Msg',4,99,16
                  4301           ?SYMB   'MemType',3,99,16
                  4302           ?SYMB   'Index',2,99,16
                  4303           ?SYMB   'retval',1,98,16
                  4304           ?SYMB   'request',6,98,547
               R  4305           ?SYMB   'R12R13',$,100,5
               R  4306           ?SYMB   'R14',$,100,4
               R  4307           ?SYMB   'R15',$,100,3
               R  4308           ?SYMB   '0',$,101,2
                  4309   ; me_wnd.c  622         int retval = 0;
                  4310   ; me_wnd.c  623         struct ME_REQUEST_WIN * request;
                  4311   ; me_wnd.c  624 
                  4312   ; me_wnd.c  625         request = FindRequestStruct( -1 );
                  4313           ?LINE   625
0C58 88C0         4314           MOV     [-R0],R12
               R  4315           ?SYMB   '',$,96,6
0C5A 88D0         4316           MOV     [-R0],R13
               R  4317           ?SYMB   '',$,96,8
0C5C 88E0         4318           MOV     [-R0],R14
               R  4319           ?SYMB   '',$,96,10
0C5E 88F0         4320           MOV     [-R0],R15
               R  4321           ?SYMB   '',$,96,12
0C60 E6FCFFFF     4322           MOV     R12,#0FFFFh
               R  4323           ?SYMB   '',$,102,5
0C64 DA000000  R  4324           CALLS   SEG _FindRequestStruct,_FindRequestStruct
               R  4325           ?SYMB   '',$,102,4
               R  4326           ?SYMB   '',$,102,3
0C68 F084         4327           MOV     R8,R4
0C6A F095         4328           MOV     R9,R5
               R  4329           ?SYMB   'R8R9',$,100,6
0C6C 98F0         4330           MOV     R15,[R0+]
               R  4331           ?SYMB   '',$,96,10
               R  4332           ?SYMB   'R15',$,100,3
0C6E 98E0         4333           MOV     R14,[R0+]
               R  4334           ?SYMB   '',$,96,8
               R  4335           ?SYMB   'R14',$,100,4
0C70 98D0         4336           MOV     R13,[R0+]
               R  4337           ?SYMB   '',$,96,6
0C72 98C0         4338           MOV     R12,[R0+]
               R  4339           ?SYMB   '',$,96,4
               R  4340           ?SYMB   'R12R13',$,100,5
                  4341   ; me_wnd.c  626         
                  4342   ; me_wnd.c  627         if ( NULL == request )
                  4343           ?LINE   627
0C74 F019         4344           MOV     R1,R9
0C76 7018         4345           OR      R1,R8
0C78 3D03         4346           JMPR    cc_NZ,_142
               R  4347           ?SYMB   '',$,102,2
                  4348   ; me_wnd.c  628                 return -1;
                  4349           ?LINE   628
0C7A E6F4FFFF     4350           MOV     R4,#0FFFFh
0C7E 0D20         4351           JMPR    cc_UC,_143
0C80              4352   _142:
               R  4353           ?SYMB   '',$,102,6
               R  4354           ?SYMB   '',$,102,3
               R  4355           ?SYMB   '',$,102,4
               R  4356           ?SYMB   '',$,102,5
               R  4357           ?SYMB   'R8R9',$,100,6
               R  4358           ?SYMB   'R12R13',$,100,5
               R  4359           ?SYMB   'R14',$,100,4
               R  4360           ?SYMB   'R15',$,100,3
               R  4361           ?SYMB   '0',$,101,2
                  4362   ; me_wnd.c  629 
                  4363   ; me_wnd.c  630     request->hWnd = hWnd;
                  4364           ?LINE   630
0C80 DC59         4365           EXTP    R9,#02h
0C82 C4C83C01 2   4366           MOV     [R8+#013CH],R12
0C86 C4D83E01 1   4367           MOV     [R8+#013EH],R13
                  4368   ; me_wnd.c  631     request->message = Msg;
                  4369           ?LINE   631
0C8A DC59         4370           EXTP    R9,#02h
0C8C C4E84001 2   4371           MOV     [R8+#0140H],R14
                  4372   ; me_wnd.c  632         
                  4373   ; me_wnd.c  633     /* Fill the request */
                  4374   ; me_wnd.c  634         request->request.arg1 = MemType;
                  4375           ?LINE   634
0C90 C4F80200 1   4376           MOV     [R8+#02H],R15
                  4377   ; me_wnd.c  635         request->request.arg2 = Index;
                  4378           ?LINE   635
0C94 D4C00400     4379           MOV     R12,[R0+#04H]
               R  4380           ?SYMB   '',$,102,5
                  4381   ; me_wnd.c  636 
                  4382   ; me_wnd.c  637         request->request.cmd = ME_SMS_DELETE;
                  4383           ?LINE   637
0C98 E6FD1600     4384           MOV     R13,#016h
                  4385           ?LINE   635
0C9C DC59         4386           EXTP    R9,#02h
0C9E C4C80400 2   4387           MOV     [R8+#04H],R12
                  4388           ?LINE   637
0CA2 B8D8     1   4389           MOV     [R8],R13
                  4390   ; me_wnd.c  638     request->request.reply = ME_WndCallback;
                  4391           ?LINE   638
0CA4 E6FE0000  R  4392           MOV     R14,#SOF _ME_WndCallback
               R  4393           ?SYMB   '',$,102,4
0CA8 E6FF0000  R  4394           MOV     R15,#SEG _ME_WndCallback
               R  4395           ?SYMB   '',$,102,3
0CAC DC59         4396           EXTP    R9,#02h
0CAE C4E80E00 2   4397           MOV     [R8+#0EH],R14
0CB2 C4F81000 1   4398           MOV     [R8+#010H],R15
                  4399   ; me_wnd.c  639 
                  4400   ; me_wnd.c  640         retval = ME_Request( &(request->request) );
                  4401           ?LINE   640
0CB6 F0C8         4402           MOV     R12,R8
0CB8 F0D9         4403           MOV     R13,R9
0CBA DA000000  R  4404           CALLS   SEG _ME_Request,_ME_Request
               R  4405           ?SYMB   '',$,102,6
0CBE F0C4         4406           MOV     R12,R4
               R  4407           ?SYMB   'R12',$,100,1
                  4408   ; me_wnd.c  641 
                  4409   ; me_wnd.c  642         return retval;
                  4410   ; me_wnd.c  643 }
                  4411           ?LINE   643
0CC0              4412   _143:
               R  4413           ?SYMB   '',$,102,1
0CC0 9880         4414           MOV     R8,[R0+]
               R  4415           ?SYMB   '',$,96,2
0CC2 9890         4416           MOV     R9,[R0+]
               R  4417           ?SYMB   '',$,96,0
0CC4 DB00         4418           RETS
                  4419   _ME_SMS_Delete  ENDP
               R  4420           ?SYMB   '',$,17,643
                  4421   ; me_wnd.c  644 
                  4422   ; me_wnd.c  645 int ME_SMS_List( HWND hWnd, int Msg, int Type, BOOL bPreRead, int MemType )
                  4423   ; me_wnd.c  646 {
                  4424           ?LINE   646
                  4425           PUBLIC  _ME_SMS_List
               R  4426           ?SYMB   'ME_SMS_List',_ME_SMS_List,37,16
                  4427           ?SYMB   '',646,8,34
                  4428   _ME_SMS_List    PROC    FAR
                  4429           ?SYMB   '',0300H,95,0
0CC6 8890         4430           MOV     [-R0],R9
               R  4431           ?SYMB   '',$,96,2
0CC8 8880         4432           MOV     [-R0],R8
               R  4433           ?SYMB   '',$,96,4
                  4434   ; Locals:
                  4435   ; 
                  4436   ; Statics:
                  4437   ; 
                  4438   ; CSEs:
                  4439   ;     request = R8R9
                  4440   ;     retval = R12
                  4441   ;     Msg = R14
                  4442   ;     hWnd = R12R13
                  4443   ;     Type = R15
                  4444   ;     bPreRead = offset 4
                  4445   ;     MemType = offset 6
                  4446   ; 
                  4447           ?SYMB   'hWnd',6,99,394
                  4448           ?SYMB   'Msg',5,99,16
                  4449           ?SYMB   'Type',2,99,16
                  4450           ?SYMB   'bPreRead',4,99,258
                  4451           ?SYMB   'MemType',3,99,16
                  4452           ?SYMB   'retval',1,98,16
                  4453           ?SYMB   'request',7,98,547
               R  4454           ?SYMB   'R12R13',$,100,6
               R  4455           ?SYMB   'R14',$,100,5
               R  4456           ?SYMB   '0',$,101,4
               R  4457           ?SYMB   '2',$,101,3
               R  4458           ?SYMB   'R15',$,100,2
                  4459   ; me_wnd.c  647         int retval = 0;
                  4460   ; me_wnd.c  648         struct ME_REQUEST_WIN * request;
                  4461   ; me_wnd.c  649 
                  4462   ; me_wnd.c  650         request = FindRequestStruct( -1 );
                  4463           ?LINE   650
0CCA 88C0         4464           MOV     [-R0],R12
               R  4465           ?SYMB   '',$,96,6
0CCC 88D0         4466           MOV     [-R0],R13
               R  4467           ?SYMB   '',$,96,8
0CCE 88E0         4468           MOV     [-R0],R14
               R  4469           ?SYMB   '',$,96,10
0CD0 88F0         4470           MOV     [-R0],R15
               R  4471           ?SYMB   '',$,96,12
0CD2 E6FCFFFF     4472           MOV     R12,#0FFFFh
               R  4473           ?SYMB   '',$,102,6
0CD6 DA000000  R  4474           CALLS   SEG _FindRequestStruct,_FindRequestStruct
               R  4475           ?SYMB   '',$,102,5
               R  4476           ?SYMB   '',$,102,2
0CDA F084         4477           MOV     R8,R4
0CDC F095         4478           MOV     R9,R5
               R  4479           ?SYMB   'R8R9',$,100,7
0CDE 98F0         4480           MOV     R15,[R0+]
               R  4481           ?SYMB   '',$,96,10
               R  4482           ?SYMB   'R15',$,100,2
0CE0 98E0         4483           MOV     R14,[R0+]
               R  4484           ?SYMB   '',$,96,8
               R  4485           ?SYMB   'R14',$,100,5
0CE2 98D0         4486           MOV     R13,[R0+]
               R  4487           ?SYMB   '',$,96,6
0CE4 98C0         4488           MOV     R12,[R0+]
               R  4489           ?SYMB   '',$,96,4
               R  4490           ?SYMB   'R12R13',$,100,6
                  4491   ; me_wnd.c  651         
                  4492   ; me_wnd.c  652         if ( NULL == request )
                  4493           ?LINE   652
0CE6 F019         4494           MOV     R1,R9
0CE8 7018         4495           OR      R1,R8
0CEA 3D03         4496           JMPR    cc_NZ,_146
               R  4497           ?SYMB   '',$,102,4
               R  4498           ?SYMB   '',$,102,3
                  4499   ; me_wnd.c  653                 return -1;
                  4500           ?LINE   653
0CEC E6F4FFFF     4501           MOV     R4,#0FFFFh
0CF0 0D26         4502           JMPR    cc_UC,_147
0CF2              4503   _146:
               R  4504           ?SYMB   '',$,102,7
               R  4505           ?SYMB   '',$,102,2
               R  4506           ?SYMB   '',$,102,5
               R  4507           ?SYMB   '',$,102,6
               R  4508           ?SYMB   'R8R9',$,100,7
               R  4509           ?SYMB   'R12R13',$,100,6
               R  4510           ?SYMB   'R14',$,100,5
               R  4511           ?SYMB   '0',$,101,4
               R  4512           ?SYMB   '2',$,101,3
               R  4513           ?SYMB   'R15',$,100,2
                  4514   ; me_wnd.c  654 
                  4515   ; me_wnd.c  655     request->hWnd = hWnd;
                  4516           ?LINE   655
0CF2 DC59         4517           EXTP    R9,#02h
0CF4 C4C83C01 2   4518           MOV     [R8+#013CH],R12
0CF8 C4D83E01 1   4519           MOV     [R8+#013EH],R13
                  4520   ; me_wnd.c  656     request->message = Msg;
                  4521           ?LINE   656
0CFC DC49         4522           EXTP    R9,#01h
0CFE C4E84001 1   4523           MOV     [R8+#0140H],R14
                  4524   ; me_wnd.c  657 
                  4525   ; me_wnd.c  658     /* Fill the request */
                  4526   ; me_wnd.c  659         request->request.arg1 = bPreRead;
                  4527           ?LINE   659
0D02 D4C00400     4528           MOV     R12,[R0+#04H]
               R  4529           ?SYMB   '',$,102,6
0D06 DC49         4530           EXTP    R9,#01h
0D08 C4C80200 1   4531           MOV     [R8+#02H],R12
                  4532   ; me_wnd.c  660         request->request.arg2 = MemType;
                  4533           ?LINE   660
0D0C D4D00600     4534           MOV     R13,[R0+#06H]
0D10 DC59         4535           EXTP    R9,#02h
0D12 C4D80400 2   4536           MOV     [R8+#04H],R13
                  4537   ; me_wnd.c  661         request->request.arg3 = Type;
                  4538           ?LINE   661
0D16 C4F80600 1   4539           MOV     [R8+#06H],R15
                  4540   ; me_wnd.c  662 
                  4541   ; me_wnd.c  663         request->request.cmd = ME_SMS_LIST;
                  4542           ?LINE   663
0D1A E6FE1700     4543           MOV     R14,#017h
               R  4544           ?SYMB   '',$,102,5
0D1E DC49         4545           EXTP    R9,#01h
0D20 B8E8     1   4546           MOV     [R8],R14
                  4547   ; me_wnd.c  664     request->request.reply = ME_WndCallback;
                  4548           ?LINE   664
0D22 E6FF0000  R  4549           MOV     R15,#SOF _ME_WndCallback
               R  4550           ?SYMB   '',$,102,2
0D26 E6F10000  R  4551           MOV     R1,#SEG _ME_WndCallback
0D2A DC59         4552           EXTP    R9,#02h
0D2C C4F80E00 2   4553           MOV     [R8+#0EH],R15
0D30 C4181000 1   4554           MOV     [R8+#010H],R1
                  4555   ; me_wnd.c  665 
                  4556   ; me_wnd.c  666         retval = ME_Request( &(request->request) );
                  4557           ?LINE   666
0D34 F0C8         4558           MOV     R12,R8
0D36 F0D9         4559           MOV     R13,R9
0D38 DA000000  R  4560           CALLS   SEG _ME_Request,_ME_Request
               R  4561           ?SYMB   '',$,102,7
0D3C F0C4         4562           MOV     R12,R4
               R  4563           ?SYMB   'R12',$,100,1
                  4564   ; me_wnd.c  667 
                  4565   ; me_wnd.c  668         return retval;
                  4566   ; me_wnd.c  669 }
                  4567           ?LINE   669
0D3E              4568   _147:
               R  4569           ?SYMB   '',$,102,1
0D3E 9880         4570           MOV     R8,[R0+]
               R  4571           ?SYMB   '',$,96,2
0D40 9890         4572           MOV     R9,[R0+]
               R  4573           ?SYMB   '',$,96,0
0D42 DB00         4574           RETS
                  4575   _ME_SMS_List    ENDP
               R  4576           ?SYMB   '',$,17,669
                  4577   ; me_wnd.c  670 
                  4578   ; me_wnd.c  671 int ME_SMS_SetSCA( HWND hWnd, int Msg, char* SCA )
                  4579   ; me_wnd.c  672 {
                  4580           ?LINE   672
                  4581           PUBLIC  _ME_SMS_SetSCA
               R  4582           ?SYMB   'ME_SMS_SetSCA',_ME_SMS_SetSCA,37,16
                  4583           ?SYMB   '',672,8,34
                  4584   _ME_SMS_SetSCA  PROC    FAR
                  4585           ?SYMB   '',03c0H,95,0
0D44 8890         4586           MOV     [-R0],R9
               R  4587           ?SYMB   '',$,96,2
0D46 8880         4588           MOV     [-R0],R8
               R  4589           ?SYMB   '',$,96,4
0D48 8870         4590           MOV     [-R0],R7
               R  4591           ?SYMB   '',$,96,6
0D4A 8860         4592           MOV     [-R0],R6
               R  4593           ?SYMB   '',$,96,8
0D4C D4700A00     4594           MOV     R7,[R0+#0AH]
0D50 D4600800     4595           MOV     R6,[R0+#08H]
                  4596   ; Locals:
                  4597   ; 
                  4598   ; Statics:
                  4599   ; 
                  4600   ; CSEs:
                  4601   ;     request = R8R9
                  4602   ;     retval = R12
                  4603   ;     SCA = R6R7
                  4604   ;     hWnd = R12R13
                  4605   ;     Msg = R14
                  4606   ; 
                  4607           ?SYMB   'hWnd',3,99,394
                  4608           ?SYMB   'Msg',2,99,16
                  4609           ?SYMB   'SCA',5,99,266
                  4610           ?SYMB   'retval',1,98,16
                  4611           ?SYMB   'request',4,98,547
               R  4612           ?SYMB   'R6R7',$,100,5
               R  4613           ?SYMB   'R12R13',$,100,3
               R  4614           ?SYMB   'R14',$,100,2
                  4615   ; me_wnd.c  673         int retval = 0;
                  4616   ; me_wnd.c  674         struct ME_REQUEST_WIN * request;
                  4617   ; me_wnd.c  675 
                  4618   ; me_wnd.c  676         if ( SCA == NULL )
                  4619           ?LINE   676
0D54 F0F7         4620           MOV     R15,R7
0D56 70F6         4621           OR      R15,R6
0D58 2D0F         4622           JMPR    cc_Z,_156
                  4623   ; me_wnd.c  677                 return -1;
                  4624   ; me_wnd.c  678 
                  4625   ; me_wnd.c  679         request = FindRequestStruct( -1 );
                  4626           ?LINE   679
0D5A 88C0         4627           MOV     [-R0],R12
               R  4628           ?SYMB   '',$,96,10
0D5C 88D0         4629           MOV     [-R0],R13
               R  4630           ?SYMB   '',$,96,12
0D5E 88E0         4631           MOV     [-R0],R14
               R  4632           ?SYMB   '',$,96,14
0D60 E6FCFFFF     4633           MOV     R12,#0FFFFh
               R  4634           ?SYMB   '',$,102,3
0D64 DA000000  R  4635           CALLS   SEG _FindRequestStruct,_FindRequestStruct
               R  4636           ?SYMB   '',$,102,2
0D68 F084         4637           MOV     R8,R4
0D6A F095         4638           MOV     R9,R5
               R  4639           ?SYMB   'R8R9',$,100,4
0D6C 98E0         4640           MOV     R14,[R0+]
               R  4641           ?SYMB   '',$,96,12
               R  4642           ?SYMB   'R14',$,100,2
0D6E 98D0         4643           MOV     R13,[R0+]
               R  4644           ?SYMB   '',$,96,10
0D70 98C0         4645           MOV     R12,[R0+]
               R  4646           ?SYMB   '',$,96,8
               R  4647           ?SYMB   'R12R13',$,100,3
                  4648   ; me_wnd.c  680         
                  4649   ; me_wnd.c  681         if ( NULL == request )
                  4650           ?LINE   681
0D72 F0F9         4651           MOV     R15,R9
0D74 70F8         4652           OR      R15,R8
0D76 3D03         4653           JMPR    cc_NZ,_157
                  4654   ; me_wnd.c  682                 return -1;
                  4655           ?LINE   682
0D78              4656   _156:
               R  4657           ?SYMB   '',$,102,5
               R  4658           ?SYMB   '',$,102,4
               R  4659           ?SYMB   '',$,102,2
               R  4660           ?SYMB   '',$,102,3
0D78 E6F4FFFF     4661           MOV     R4,#0FFFFh
0D7C 0D31         4662           JMPR    cc_UC,_158
0D7E              4663   _157:
               R  4664           ?SYMB   'R6R7',$,100,5
               R  4665           ?SYMB   'R8R9',$,100,4
               R  4666           ?SYMB   'R12R13',$,100,3
               R  4667           ?SYMB   'R14',$,100,2
                  4668   ; me_wnd.c  683 
                  4669   ; me_wnd.c  684     request->hWnd = hWnd;
                  4670           ?LINE   684
0D7E DC59         4671           EXTP    R9,#02h
0D80 C4C83C01 2   4672           MOV     [R8+#013CH],R12
0D84 C4D83E01 1   4673           MOV     [R8+#013EH],R13
                  4674   ; me_wnd.c  685     request->message = Msg;
                  4675           ?LINE   685
0D88 DC49         4676           EXTP    R9,#01h
0D8A C4E84001 1   4677           MOV     [R8+#0140H],R14
                  4678   ; me_wnd.c  686         strcpy( request->cmddata, SCA );
                  4679           ?LINE   686
0D8E F0C8         4680           MOV     R12,R8
               R  4681           ?SYMB   '',$,102,3
0D90 F0D9         4682           MOV     R13,R9
0D92 06FC2200     4683           ADD     R12,#022h
0D96 F0E6         4684           MOV     R14,R6
               R  4685           ?SYMB   '',$,102,2
0D98 F0F7         4686           MOV     R15,R7
0D9A DA000000  R  4687           CALLS   SEG _strcpy,_strcpy
                  4688   ; me_wnd.c  687 
                  4689   ; me_wnd.c  688     /* Fill the request */
                  4690   ; me_wnd.c  689         request->request.cmddata = request->cmddata;
                  4691           ?LINE   689
0D9E F0C8         4692           MOV     R12,R8
0DA0 F0D9         4693           MOV     R13,R9
0DA2 06FC2200     4694           ADD     R12,#022h
0DA6 DC59         4695           EXTP    R9,#02h
0DA8 C4C80800 2   4696           MOV     [R8+#08H],R12
0DAC C4D80A00 1   4697           MOV     [R8+#0AH],R13
                  4698   ; me_wnd.c  690         request->request.cmddata_len = strlen( SCA );
                  4699           ?LINE   690
0DB0 F0C6         4700           MOV     R12,R6
0DB2 F0D7         4701           MOV     R13,R7
0DB4 DA000000  R  4702           CALLS   SEG _strlen,_strlen
               R  4703           ?SYMB   '',$,102,5
                  4704   ; me_wnd.c  691 
                  4705   ; me_wnd.c  692         request->request.cmd = ME_SMS_SET_SCA;
                  4706           ?LINE   692
0DB8 E6F61800     4707           MOV     R6,#018h
                  4708           ?LINE   690
0DBC DC59         4709           EXTP    R9,#02h
0DBE C4480C00 2   4710           MOV     [R8+#0CH],R4
                  4711           ?LINE   692
0DC2 B868     1   4712           MOV     [R8],R6
                  4713   ; me_wnd.c  693     request->request.reply = ME_WndCallback;
                  4714           ?LINE   693
0DC4 E6F70000  R  4715           MOV     R7,#SOF _ME_WndCallback
0DC8 E6FC0000  R  4716           MOV     R12,#SEG _ME_WndCallback
0DCC DC59         4717           EXTP    R9,#02h
0DCE C4780E00 2   4718           MOV     [R8+#0EH],R7
0DD2 C4C81000 1   4719           MOV     [R8+#010H],R12
                  4720   ; me_wnd.c  694 
                  4721   ; me_wnd.c  695         retval = ME_Request( &(request->request) );
                  4722           ?LINE   695
0DD6 F0C8         4723           MOV     R12,R8
0DD8 F0D9         4724           MOV     R13,R9
0DDA DA000000  R  4725           CALLS   SEG _ME_Request,_ME_Request
               R  4726           ?SYMB   '',$,102,4
0DDE F0C4         4727           MOV     R12,R4
               R  4728           ?SYMB   'R12',$,100,1
                  4729   ; me_wnd.c  696 
                  4730   ; me_wnd.c  697         return retval;
                  4731   ; me_wnd.c  698 }
                  4732           ?LINE   698
0DE0              4733   _158:
               R  4734           ?SYMB   '',$,102,1
0DE0 9860         4735           MOV     R6,[R0+]
               R  4736           ?SYMB   '',$,96,6
0DE2 9870         4737           MOV     R7,[R0+]
               R  4738           ?SYMB   '',$,96,4
0DE4 9880         4739           MOV     R8,[R0+]
               R  4740           ?SYMB   '',$,96,2
0DE6 9890         4741           MOV     R9,[R0+]
               R  4742           ?SYMB   '',$,96,0
0DE8 DB00         4743           RETS
                  4744   _ME_SMS_SetSCA  ENDP
               R  4745           ?SYMB   '',$,17,698
                  4746   ; me_wnd.c  699 
                  4747   ; me_wnd.c  700 int ME_SMS_GetSCA( HWND hWnd, int Msg )
                  4748   ; me_wnd.c  701 {
                  4749           ?LINE   701
                  4750           PUBLIC  _ME_SMS_GetSCA
               R  4751           ?SYMB   'ME_SMS_GetSCA',_ME_SMS_GetSCA,37,16
                  4752           ?SYMB   '',701,8,34
                  4753   _ME_SMS_GetSCA  PROC    FAR
                  4754           ?SYMB   '',0300H,95,0
0DEA 8890         4755           MOV     [-R0],R9
               R  4756           ?SYMB   '',$,96,2
0DEC 8880         4757           MOV     [-R0],R8
               R  4758           ?SYMB   '',$,96,4
                  4759   ; Locals:
                  4760   ; 
                  4761   ; Statics:
                  4762   ; 
                  4763   ; CSEs:
                  4764   ;     request = R8R9
                  4765   ;     retval = R12
                  4766   ;     hWnd = R12R13
                  4767   ;     Msg = R14
                  4768   ; 
                  4769           ?SYMB   'hWnd',3,99,394
                  4770           ?SYMB   'Msg',2,99,16
                  4771           ?SYMB   'retval',1,98,16
                  4772           ?SYMB   'request',4,98,547
               R  4773           ?SYMB   'R12R13',$,100,3
               R  4774           ?SYMB   'R14',$,100,2
                  4775   ; me_wnd.c  702         int retval = 0;
                  4776   ; me_wnd.c  703         struct ME_REQUEST_WIN * request;
                  4777   ; me_wnd.c  704 
                  4778   ; me_wnd.c  705         request = FindRequestStruct( -1 );
                  4779           ?LINE   705
0DEE 88C0         4780           MOV     [-R0],R12
               R  4781           ?SYMB   '',$,96,6
0DF0 88D0         4782           MOV     [-R0],R13
               R  4783           ?SYMB   '',$,96,8
0DF2 88E0         4784           MOV     [-R0],R14
               R  4785           ?SYMB   '',$,96,10
0DF4 E6FCFFFF     4786           MOV     R12,#0FFFFh
               R  4787           ?SYMB   '',$,102,3
0DF8 DA000000  R  4788           CALLS   SEG _FindRequestStruct,_FindRequestStruct
               R  4789           ?SYMB   '',$,102,2
0DFC F084         4790           MOV     R8,R4
0DFE F095         4791           MOV     R9,R5
               R  4792           ?SYMB   'R8R9',$,100,4
0E00 98E0         4793           MOV     R14,[R0+]
               R  4794           ?SYMB   '',$,96,8
               R  4795           ?SYMB   'R14',$,100,2
0E02 98D0         4796           MOV     R13,[R0+]
               R  4797           ?SYMB   '',$,96,6
0E04 98C0         4798           MOV     R12,[R0+]
               R  4799           ?SYMB   '',$,96,4
               R  4800           ?SYMB   'R12R13',$,100,3
                  4801   ; me_wnd.c  706         
                  4802   ; me_wnd.c  707         if ( NULL == request )
                  4803           ?LINE   707
0E06 F0F9         4804           MOV     R15,R9
0E08 70F8         4805           OR      R15,R8
0E0A 3D03         4806           JMPR    cc_NZ,_161
                  4807   ; me_wnd.c  708                 return -1;
                  4808           ?LINE   708
0E0C E6F4FFFF     4809           MOV     R4,#0FFFFh
0E10 0D19         4810           JMPR    cc_UC,_162
0E12              4811   _161:
               R  4812           ?SYMB   '',$,102,4
               R  4813           ?SYMB   '',$,102,2
               R  4814           ?SYMB   '',$,102,3
               R  4815           ?SYMB   'R8R9',$,100,4
               R  4816           ?SYMB   'R12R13',$,100,3
               R  4817           ?SYMB   'R14',$,100,2
                  4818   ; me_wnd.c  709 
                  4819   ; me_wnd.c  710     request->hWnd = hWnd;
                  4820           ?LINE   710
0E12 DC59         4821           EXTP    R9,#02h
0E14 C4C83C01 2   4822           MOV     [R8+#013CH],R12
0E18 C4D83E01 1   4823           MOV     [R8+#013EH],R13
                  4824   ; me_wnd.c  711     request->message = Msg;
                  4825   ; me_wnd.c  712 
                  4826   ; me_wnd.c  713     /* Fill the request */
                  4827   ; me_wnd.c  714         request->request.cmd = ME_SMS_GET_SCA;
                  4828           ?LINE   714
0E1C E6FC1900     4829           MOV     R12,#019h
                  4830           ?LINE   711
0E20 DC59         4831           EXTP    R9,#02h
0E22 C4E84001 2   4832           MOV     [R8+#0140H],R14
               R  4833           ?SYMB   '',$,102,3
                  4834           ?LINE   714
0E26 B8C8     1   4835           MOV     [R8],R12
                  4836   ; me_wnd.c  715     request->request.reply = ME_WndCallback;
                  4837           ?LINE   715
0E28 E6FD0000  R  4838           MOV     R13,#SOF _ME_WndCallback
0E2C E6FE0000  R  4839           MOV     R14,#SEG _ME_WndCallback
               R  4840           ?SYMB   '',$,102,2
0E30 DC59         4841           EXTP    R9,#02h
0E32 C4D80E00 2   4842           MOV     [R8+#0EH],R13
0E36 C4E81000 1   4843           MOV     [R8+#010H],R14
                  4844   ; me_wnd.c  716 
                  4845   ; me_wnd.c  717         retval = ME_Request( &(request->request) );
                  4846           ?LINE   717
0E3A F0C8         4847           MOV     R12,R8
0E3C F0D9         4848           MOV     R13,R9
0E3E DA000000  R  4849           CALLS   SEG _ME_Request,_ME_Request
               R  4850           ?SYMB   '',$,102,4
0E42 F0C4         4851           MOV     R12,R4
               R  4852           ?SYMB   'R12',$,100,1
                  4853   ; me_wnd.c  718 
                  4854   ; me_wnd.c  719         return retval;
                  4855   ; me_wnd.c  720 }
                  4856           ?LINE   720
0E44              4857   _162:
               R  4858           ?SYMB   '',$,102,1
0E44 9880         4859           MOV     R8,[R0+]
               R  4860           ?SYMB   '',$,96,2
0E46 9890         4861           MOV     R9,[R0+]
               R  4862           ?SYMB   '',$,96,0
0E48 DB00         4863           RETS
                  4864   _ME_SMS_GetSCA  ENDP
               R  4865           ?SYMB   '',$,17,720
                  4866   ; me_wnd.c  721 
                  4867   ; me_wnd.c  722 int ME_SMS_SetIndStatus( HWND hWnd, int Msg, PIND_STATUS pStatus )
                  4868   ; me_wnd.c  723 {
                  4869           ?LINE   723
                  4870           PUBLIC  _ME_SMS_SetIndStatus
               R  4871           ?SYMB   'ME_SMS_SetIndStatus',_ME_SMS_SetIndStatus,37,16
                  4872           ?SYMB   '',723,8,34
                  4873           ?SYMB   'IND_STATUS',512,13,585
                  4874   _ME_SMS_SetIndStatus    PROC    FAR
                  4875           ?SYMB   '',0300H,95,0
0E4A 8890         4876           MOV     [-R0],R9
               R  4877           ?SYMB   '',$,96,2
0E4C 8880         4878           MOV     [-R0],R8
               R  4879           ?SYMB   '',$,96,4
                  4880   ; Locals:
                  4881   ; 
                  4882   ; Statics:
                  4883   ; 
                  4884   ; CSEs:
                  4885   ;     request = R8R9
                  4886   ;     retval = R12
                  4887   ;     hWnd = R12R13
                  4888   ;     pStatus = offset 4
                  4889   ;     Msg = R14
                  4890   ; 
                  4891           ?SYMB   'hWnd',3,99,394
                  4892           ?SYMB   'Msg',2,99,16
                  4893           ?SYMB   'pStatus',5,99,515
                  4894           ?SYMB   'retval',1,98,16
                  4895           ?SYMB   'request',4,98,547
               R  4896           ?SYMB   '0',$,101,5
               R  4897           ?SYMB   'R12R13',$,100,3
               R  4898           ?SYMB   'R14',$,100,2
                  4899   ; me_wnd.c  724         int retval = 0;
                  4900   ; me_wnd.c  725         struct ME_REQUEST_WIN * request;
                  4901   ; me_wnd.c  726 
                  4902   ; me_wnd.c  727         if ( pStatus == NULL )
                  4903           ?LINE   727
0E4E D4F00400     4904           MOV     R15,[R0+#04H]
0E52 D4100600     4905           MOV     R1,[R0+#06H]
0E56 70F1         4906           OR      R15,R1
0E58 2D0F         4907           JMPR    cc_Z,_171
                  4908   ; me_wnd.c  728                 return -1;
                  4909   ; me_wnd.c  729 
                  4910   ; me_wnd.c  730         request = FindRequestStruct( -1 );
                  4911           ?LINE   730
0E5A 88C0         4912           MOV     [-R0],R12
               R  4913           ?SYMB   '',$,96,6
0E5C 88D0         4914           MOV     [-R0],R13
               R  4915           ?SYMB   '',$,96,8
0E5E 88E0         4916           MOV     [-R0],R14
               R  4917           ?SYMB   '',$,96,10
0E60 E6FCFFFF     4918           MOV     R12,#0FFFFh
               R  4919           ?SYMB   '',$,102,3
0E64 DA000000  R  4920           CALLS   SEG _FindRequestStruct,_FindRequestStruct
               R  4921           ?SYMB   '',$,102,2
0E68 F084         4922           MOV     R8,R4
0E6A F095         4923           MOV     R9,R5
               R  4924           ?SYMB   'R8R9',$,100,4
0E6C 98E0         4925           MOV     R14,[R0+]
               R  4926           ?SYMB   '',$,96,8
               R  4927           ?SYMB   'R14',$,100,2
0E6E 98D0         4928           MOV     R13,[R0+]
               R  4929           ?SYMB   '',$,96,6
0E70 98C0         4930           MOV     R12,[R0+]
               R  4931           ?SYMB   '',$,96,4
               R  4932           ?SYMB   'R12R13',$,100,3
                  4933   ; me_wnd.c  731         
                  4934   ; me_wnd.c  732         if ( NULL == request )
                  4935           ?LINE   732
0E72 F0F9         4936           MOV     R15,R9
0E74 70F8         4937           OR      R15,R8
0E76 3D03         4938           JMPR    cc_NZ,_172
               R  4939           ?SYMB   '',$,102,5
                  4940   ; me_wnd.c  733                 return -1;
                  4941           ?LINE   733
0E78              4942   _171:
               R  4943           ?SYMB   '',$,102,4
               R  4944           ?SYMB   '',$,102,2
               R  4945           ?SYMB   '',$,102,3
0E78 E6F4FFFF     4946           MOV     R4,#0FFFFh
0E7C 0D33         4947           JMPR    cc_UC,_173
0E7E              4948   _172:
               R  4949           ?SYMB   '0',$,101,5
               R  4950           ?SYMB   'R8R9',$,100,4
               R  4951           ?SYMB   'R12R13',$,100,3
               R  4952           ?SYMB   'R14',$,100,2
                  4953   ; me_wnd.c  734 
                  4954   ; me_wnd.c  735     request->hWnd = hWnd;
                  4955           ?LINE   735
0E7E DC59         4956           EXTP    R9,#02h
0E80 C4C83C01 2   4957           MOV     [R8+#013CH],R12
0E84 C4D83E01 1   4958           MOV     [R8+#013EH],R13
                  4959   ; me_wnd.c  736     request->message = Msg;
                  4960           ?LINE   736
0E88 DC49         4961           EXTP    R9,#01h
0E8A C4E84001 1   4962           MOV     [R8+#0140H],R14
                  4963   ; me_wnd.c  737         memcpy( request->cmddata, pStatus, sizeof(IND_STATUS) );
                  4964           ?LINE   737
0E8E E06C         4965           MOV     R12,#06h
               R  4966           ?SYMB   '',$,102,3
0E90 88C0         4967           MOV     [-R0],R12
               R  4968           ?SYMB   '',$,96,6
0E92 F0C8         4969           MOV     R12,R8
0E94 F0D9         4970           MOV     R13,R9
0E96 06FC2200     4971           ADD     R12,#022h
0E9A D4E00600     4972           MOV     R14,[R0+#06H]
               R  4973           ?SYMB   '',$,102,2
0E9E D4F00800     4974           MOV     R15,[R0+#08H]
0EA2 DA000000  R  4975           CALLS   SEG _memcpy,_memcpy
0EA6 0802         4976           ADD     R0,#02h
               R  4977           ?SYMB   '',$,96,4
                  4978   ; me_wnd.c  738 
                  4979   ; me_wnd.c  739     /* Fill the request */
                  4980   ; me_wnd.c  740         request->request.cmddata = request->cmddata;
                  4981           ?LINE   740
0EA8 F0C8         4982           MOV     R12,R8
0EAA F0D9         4983           MOV     R13,R9
0EAC 06FC2200     4984           ADD     R12,#022h
0EB0 DC59         4985           EXTP    R9,#02h
0EB2 C4C80800 2   4986           MOV     [R8+#08H],R12
0EB6 C4D80A00 1   4987           MOV     [R8+#0AH],R13
                  4988   ; me_wnd.c  741         request->request.cmddata_len = sizeof(IND_STATUS);
                  4989           ?LINE   741
0EBA E06C         4990           MOV     R12,#06h
                  4991   ; me_wnd.c  742 
                  4992   ; me_wnd.c  743         request->request.cmd = ME_SMS_SETINDSTATUS;
                  4993           ?LINE   743
0EBC E6FD1B00     4994           MOV     R13,#01Bh
                  4995           ?LINE   741
0EC0 DC59         4996           EXTP    R9,#02h
0EC2 C4C80C00 2   4997           MOV     [R8+#0CH],R12
                  4998           ?LINE   743
0EC6 B8D8     1   4999           MOV     [R8],R13
                  5000   ; me_wnd.c  744     request->request.reply = ME_WndCallback;
                  5001           ?LINE   744
0EC8 E6FE0000  R  5002           MOV     R14,#SOF _ME_WndCallback
0ECC E6FF0000  R  5003           MOV     R15,#SEG _ME_WndCallback
0ED0 DC59         5004           EXTP    R9,#02h
0ED2 C4E80E00 2   5005           MOV     [R8+#0EH],R14
0ED6 C4F81000 1   5006           MOV     [R8+#010H],R15
                  5007   ; me_wnd.c  745 
                  5008   ; me_wnd.c  746         retval = ME_Request( &(request->request) );
                  5009           ?LINE   746
0EDA F0C8         5010           MOV     R12,R8
0EDC F0D9         5011           MOV     R13,R9
0EDE DA000000  R  5012           CALLS   SEG _ME_Request,_ME_Request
               R  5013           ?SYMB   '',$,102,4
0EE2 F0C4         5014           MOV     R12,R4
               R  5015           ?SYMB   'R12',$,100,1
                  5016   ; me_wnd.c  747 
                  5017   ; me_wnd.c  748         return retval;
                  5018   ; me_wnd.c  749 }
                  5019           ?LINE   749
0EE4              5020   _173:
               R  5021           ?SYMB   '',$,102,1
0EE4 9880         5022           MOV     R8,[R0+]
               R  5023           ?SYMB   '',$,96,2
0EE6 9890         5024           MOV     R9,[R0+]
               R  5025           ?SYMB   '',$,96,0
0EE8 DB00         5026           RETS
                  5027   _ME_SMS_SetIndStatus    ENDP
               R  5028           ?SYMB   '',$,17,749
                  5029   ; me_wnd.c  750 
                  5030   ; me_wnd.c  751 int ME_SMS_GetIndStatus( HWND hWnd, int Msg )
                  5031   ; me_wnd.c  752 {
                  5032           ?LINE   752
                  5033           PUBLIC  _ME_SMS_GetIndStatus
               R  5034           ?SYMB   'ME_SMS_GetIndStatus',_ME_SMS_GetIndStatus,37,16
                  5035           ?SYMB   '',752,8,34
                  5036   _ME_SMS_GetIndStatus    PROC    FAR
                  5037           ?SYMB   '',0300H,95,0
0EEA 8890         5038           MOV     [-R0],R9
               R  5039           ?SYMB   '',$,96,2
0EEC 8880         5040           MOV     [-R0],R8
               R  5041           ?SYMB   '',$,96,4
                  5042   ; Locals:
                  5043   ; 
                  5044   ; Statics:
                  5045   ; 
                  5046   ; CSEs:
                  5047   ;     request = R8R9
                  5048   ;     retval = R12
                  5049   ;     hWnd = R12R13
                  5050   ;     Msg = R14
                  5051   ; 
                  5052           ?SYMB   'hWnd',3,99,394
                  5053           ?SYMB   'Msg',2,99,16
                  5054           ?SYMB   'retval',1,98,16
                  5055           ?SYMB   'request',4,98,547
               R  5056           ?SYMB   'R12R13',$,100,3
               R  5057           ?SYMB   'R14',$,100,2
                  5058   ; me_wnd.c  753         int retval = 0;
                  5059   ; me_wnd.c  754         struct ME_REQUEST_WIN * request;
                  5060   ; me_wnd.c  755 
                  5061   ; me_wnd.c  756         request = FindRequestStruct( -1 );
                  5062           ?LINE   756
0EEE 88C0         5063           MOV     [-R0],R12
               R  5064           ?SYMB   '',$,96,6
0EF0 88D0         5065           MOV     [-R0],R13
               R  5066           ?SYMB   '',$,96,8
0EF2 88E0         5067           MOV     [-R0],R14
               R  5068           ?SYMB   '',$,96,10
0EF4 E6FCFFFF     5069           MOV     R12,#0FFFFh
               R  5070           ?SYMB   '',$,102,3
0EF8 DA000000  R  5071           CALLS   SEG _FindRequestStruct,_FindRequestStruct
               R  5072           ?SYMB   '',$,102,2
0EFC F084         5073           MOV     R8,R4
0EFE F095         5074           MOV     R9,R5
               R  5075           ?SYMB   'R8R9',$,100,4
0F00 98E0         5076           MOV     R14,[R0+]
               R  5077           ?SYMB   '',$,96,8
               R  5078           ?SYMB   'R14',$,100,2
0F02 98D0         5079           MOV     R13,[R0+]
               R  5080           ?SYMB   '',$,96,6
0F04 98C0         5081           MOV     R12,[R0+]
               R  5082           ?SYMB   '',$,96,4
               R  5083           ?SYMB   'R12R13',$,100,3
                  5084   ; me_wnd.c  757         if ( NULL == request )
                  5085           ?LINE   757
0F06 F0F9         5086           MOV     R15,R9
0F08 70F8         5087           OR      R15,R8
0F0A 3D03         5088           JMPR    cc_NZ,_176
                  5089   ; me_wnd.c  758                 return -1;
                  5090           ?LINE   758
0F0C E6F4FFFF     5091           MOV     R4,#0FFFFh
0F10 0D19         5092           JMPR    cc_UC,_177
0F12              5093   _176:
               R  5094           ?SYMB   '',$,102,4
               R  5095           ?SYMB   '',$,102,2
               R  5096           ?SYMB   '',$,102,3
               R  5097           ?SYMB   'R8R9',$,100,4
               R  5098           ?SYMB   'R12R13',$,100,3
               R  5099           ?SYMB   'R14',$,100,2
                  5100   ; me_wnd.c  759 
                  5101   ; me_wnd.c  760     request->hWnd = hWnd;
                  5102           ?LINE   760
0F12 DC59         5103           EXTP    R9,#02h
0F14 C4C83C01 2   5104           MOV     [R8+#013CH],R12
0F18 C4D83E01 1   5105           MOV     [R8+#013EH],R13
                  5106   ; me_wnd.c  761     request->message = Msg;
                  5107   ; me_wnd.c  762 
                  5108   ; me_wnd.c  763     /* Fill the request */
                  5109   ; me_wnd.c  764         request->request.cmd = ME_SMS_GETINDSTATUS;
                  5110           ?LINE   764
0F1C E6FC1A00     5111           MOV     R12,#01Ah
                  5112           ?LINE   761
0F20 DC59         5113           EXTP    R9,#02h
0F22 C4E84001 2   5114           MOV     [R8+#0140H],R14
               R  5115           ?SYMB   '',$,102,3
                  5116           ?LINE   764
0F26 B8C8     1   5117           MOV     [R8],R12
                  5118   ; me_wnd.c  765     request->request.reply = ME_WndCallback;
                  5119           ?LINE   765
0F28 E6FD0000  R  5120           MOV     R13,#SOF _ME_WndCallback
0F2C E6FE0000  R  5121           MOV     R14,#SEG _ME_WndCallback
               R  5122           ?SYMB   '',$,102,2
0F30 DC59         5123           EXTP    R9,#02h
0F32 C4D80E00 2   5124           MOV     [R8+#0EH],R13
0F36 C4E81000 1   5125           MOV     [R8+#010H],R14
                  5126   ; me_wnd.c  766 
                  5127   ; me_wnd.c  767         retval = ME_Request( &(request->request) );
                  5128           ?LINE   767
0F3A F0C8         5129           MOV     R12,R8
0F3C F0D9         5130           MOV     R13,R9
0F3E DA000000  R  5131           CALLS   SEG _ME_Request,_ME_Request
               R  5132           ?SYMB   '',$,102,4
0F42 F0C4         5133           MOV     R12,R4
               R  5134           ?SYMB   'R12',$,100,1
                  5135   ; me_wnd.c  768 
                  5136   ; me_wnd.c  769         return retval;
                  5137   ; me_wnd.c  770 }
                  5138           ?LINE   770
0F44              5139   _177:
               R  5140           ?SYMB   '',$,102,1
0F44 9880         5141           MOV     R8,[R0+]
               R  5142           ?SYMB   '',$,96,2
0F46 9890         5143           MOV     R9,[R0+]
               R  5144           ?SYMB   '',$,96,0
0F48 DB00         5145           RETS
                  5146   _ME_SMS_GetIndStatus    ENDP
               R  5147           ?SYMB   '',$,17,770
                  5148   ; me_wnd.c  771 
                  5149   ; me_wnd.c  772 int ME_SMS_SetCellBroadcast( HWND hWnd, int Msg, PCELL_BROADCAST pStatus )
                  5150   ; me_wnd.c  773 {
                  5151           ?LINE   773
                  5152           PUBLIC  _ME_SMS_SetCellBroadcast
               R  5153           ?SYMB   'ME_SMS_SetCellBroadcast',_ME_SMS_SetCellBroadcast,37,16
                  5154           ?SYMB   '',773,8,34
                  5155           ?SYMB   'CELL_BROADCAST',520,13,588
                  5156   _ME_SMS_SetCellBroadcast        PROC    FAR
                  5157           ?SYMB   '',0300H,95,0
0F4A 8890         5158           MOV     [-R0],R9
               R  5159           ?SYMB   '',$,96,2
0F4C 8880         5160           MOV     [-R0],R8
               R  5161           ?SYMB   '',$,96,4
                  5162   ; Locals:
                  5163   ; 
                  5164   ; Statics:
                  5165   ; 
                  5166   ; CSEs:
                  5167   ;     request = R8R9
                  5168   ;     retval = R12
                  5169   ;     hWnd = R12R13
                  5170   ;     pStatus = offset 4
                  5171   ;     Msg = R14
                  5172   ; 
                  5173           ?SYMB   'hWnd',3,99,394
                  5174           ?SYMB   'Msg',2,99,16
                  5175           ?SYMB   'pStatus',5,99,523
                  5176           ?SYMB   'retval',1,98,16
                  5177           ?SYMB   'request',4,98,547
               R  5178           ?SYMB   '0',$,101,5
               R  5179           ?SYMB   'R12R13',$,100,3
               R  5180           ?SYMB   'R14',$,100,2
                  5181   ; me_wnd.c  774         int retval = 0;
                  5182   ; me_wnd.c  775         struct ME_REQUEST_WIN * request;
                  5183   ; me_wnd.c  776 
                  5184   ; me_wnd.c  777         if ( pStatus == NULL )
                  5185           ?LINE   777
0F4E D4F00400     5186           MOV     R15,[R0+#04H]
0F52 D4100600     5187           MOV     R1,[R0+#06H]
0F56 70F1         5188           OR      R15,R1
0F58 2D0F         5189           JMPR    cc_Z,_186
                  5190   ; me_wnd.c  778                 return -1;
                  5191   ; me_wnd.c  779 
                  5192   ; me_wnd.c  780         request = FindRequestStruct( -1 );
                  5193           ?LINE   780
0F5A 88C0         5194           MOV     [-R0],R12
               R  5195           ?SYMB   '',$,96,6
0F5C 88D0         5196           MOV     [-R0],R13
               R  5197           ?SYMB   '',$,96,8
0F5E 88E0         5198           MOV     [-R0],R14
               R  5199           ?SYMB   '',$,96,10
0F60 E6FCFFFF     5200           MOV     R12,#0FFFFh
               R  5201           ?SYMB   '',$,102,3
0F64 DA000000  R  5202           CALLS   SEG _FindRequestStruct,_FindRequestStruct
               R  5203           ?SYMB   '',$,102,2
0F68 F084         5204           MOV     R8,R4
0F6A F095         5205           MOV     R9,R5
               R  5206           ?SYMB   'R8R9',$,100,4
0F6C 98E0         5207           MOV     R14,[R0+]
               R  5208           ?SYMB   '',$,96,8
               R  5209           ?SYMB   'R14',$,100,2
0F6E 98D0         5210           MOV     R13,[R0+]
               R  5211           ?SYMB   '',$,96,6
0F70 98C0         5212           MOV     R12,[R0+]
               R  5213           ?SYMB   '',$,96,4
               R  5214           ?SYMB   'R12R13',$,100,3
                  5215   ; me_wnd.c  781         
                  5216   ; me_wnd.c  782         if ( NULL == request )
                  5217           ?LINE   782
0F72 F0F9         5218           MOV     R15,R9
0F74 70F8         5219           OR      R15,R8
0F76 3D03         5220           JMPR    cc_NZ,_187
               R  5221           ?SYMB   '',$,102,5
                  5222   ; me_wnd.c  783                 return -1;
                  5223           ?LINE   783
0F78              5224   _186:
               R  5225           ?SYMB   '',$,102,4
               R  5226           ?SYMB   '',$,102,2
               R  5227           ?SYMB   '',$,102,3
0F78 E6F4FFFF     5228           MOV     R4,#0FFFFh
0F7C 0D35         5229           JMPR    cc_UC,_188
0F7E              5230   _187:
               R  5231           ?SYMB   '0',$,101,5
               R  5232           ?SYMB   'R8R9',$,100,4
               R  5233           ?SYMB   'R12R13',$,100,3
               R  5234           ?SYMB   'R14',$,100,2
                  5235   ; me_wnd.c  784 
                  5236   ; me_wnd.c  785     request->hWnd = hWnd;
                  5237           ?LINE   785
0F7E DC59         5238           EXTP    R9,#02h
0F80 C4C83C01 2   5239           MOV     [R8+#013CH],R12
0F84 C4D83E01 1   5240           MOV     [R8+#013EH],R13
                  5241   ; me_wnd.c  786     request->message = Msg;
                  5242           ?LINE   786
0F88 DC49         5243           EXTP    R9,#01h
0F8A C4E84001 1   5244           MOV     [R8+#0140H],R14
                  5245   ; me_wnd.c  787         memcpy( request->cmddata, pStatus, sizeof(CELL_BROADCAST) );
                  5246           ?LINE   787
0F8E E6FC3E00     5247           MOV     R12,#03Eh
               R  5248           ?SYMB   '',$,102,3
0F92 88C0         5249           MOV     [-R0],R12
               R  5250           ?SYMB   '',$,96,6
0F94 F0C8         5251           MOV     R12,R8
0F96 F0D9         5252           MOV     R13,R9
0F98 06FC2200     5253           ADD     R12,#022h
0F9C D4E00600     5254           MOV     R14,[R0+#06H]
               R  5255           ?SYMB   '',$,102,2
0FA0 D4F00800     5256           MOV     R15,[R0+#08H]
0FA4 DA000000  R  5257           CALLS   SEG _memcpy,_memcpy
0FA8 0802         5258           ADD     R0,#02h
               R  5259           ?SYMB   '',$,96,4
                  5260   ; me_wnd.c  788 
                  5261   ; me_wnd.c  789     /* Fill the request */
                  5262   ; me_wnd.c  790         request->request.cmddata = request->cmddata;
                  5263           ?LINE   790
0FAA F0C8         5264           MOV     R12,R8
0FAC F0D9         5265           MOV     R13,R9
0FAE 06FC2200     5266           ADD     R12,#022h
0FB2 DC59         5267           EXTP    R9,#02h
0FB4 C4C80800 2   5268           MOV     [R8+#08H],R12
0FB8 C4D80A00 1   5269           MOV     [R8+#0AH],R13
                  5270   ; me_wnd.c  791         request->request.cmddata_len = sizeof(CELL_BROADCAST);
                  5271           ?LINE   791
0FBC E6FC3E00     5272           MOV     R12,#03Eh
                  5273   ; me_wnd.c  792 
                  5274   ; me_wnd.c  793         request->request.cmd = ME_SET_CELLBROADCAST;
                  5275           ?LINE   793
0FC0 E6FD1C00     5276           MOV     R13,#01Ch
                  5277           ?LINE   791
0FC4 DC59         5278           EXTP    R9,#02h
0FC6 C4C80C00 2   5279           MOV     [R8+#0CH],R12
                  5280           ?LINE   793
0FCA B8D8     1   5281           MOV     [R8],R13
                  5282   ; me_wnd.c  794     request->request.reply = ME_WndCallback;
                  5283           ?LINE   794
0FCC E6FE0000  R  5284           MOV     R14,#SOF _ME_WndCallback
0FD0 E6FF0000  R  5285           MOV     R15,#SEG _ME_WndCallback
0FD4 DC59         5286           EXTP    R9,#02h
0FD6 C4E80E00 2   5287           MOV     [R8+#0EH],R14
0FDA C4F81000 1   5288           MOV     [R8+#010H],R15
                  5289   ; me_wnd.c  795 
                  5290   ; me_wnd.c  796         retval = ME_Request( &(request->request) );
                  5291           ?LINE   796
0FDE F0C8         5292           MOV     R12,R8
0FE0 F0D9         5293           MOV     R13,R9
0FE2 DA000000  R  5294           CALLS   SEG _ME_Request,_ME_Request
               R  5295           ?SYMB   '',$,102,4
0FE6 F0C4         5296           MOV     R12,R4
               R  5297           ?SYMB   'R12',$,100,1
                  5298   ; me_wnd.c  797 
                  5299   ; me_wnd.c  798         return retval;
                  5300   ; me_wnd.c  799 }
                  5301           ?LINE   799
0FE8              5302   _188:
               R  5303           ?SYMB   '',$,102,1
0FE8 9880         5304           MOV     R8,[R0+]
               R  5305           ?SYMB   '',$,96,2
0FEA 9890         5306           MOV     R9,[R0+]
               R  5307           ?SYMB   '',$,96,0
0FEC DB00         5308           RETS
                  5309   _ME_SMS_SetCellBroadcast        ENDP
               R  5310           ?SYMB   '',$,17,799
                  5311   ; me_wnd.c  800 
                  5312   ; me_wnd.c  801 int ME_SMS_GetCellBroadcast( HWND hWnd, int Msg )
                  5313   ; me_wnd.c  802 {
                  5314           ?LINE   802
                  5315           PUBLIC  _ME_SMS_GetCellBroadcast
               R  5316           ?SYMB   'ME_SMS_GetCellBroadcast',_ME_SMS_GetCellBroadcast,37,16
                  5317           ?SYMB   '',802,8,34
                  5318   ME_WND_2_PR     ENDS
                  5319   
                  5320   ME_WND_3_PR     SECTION CODE WORD PUBLIC 'CPROGRAM'
                  5321   _ME_SMS_GetCellBroadcast        PROC    FAR
                  5322           ?SYMB   '',0300H,95,0
0000 8890         5323           MOV     [-R0],R9
               R  5324           ?SYMB   '',$,96,2
0002 8880         5325           MOV     [-R0],R8
               R  5326           ?SYMB   '',$,96,4
                  5327   ; Locals:
                  5328   ; 
                  5329   ; Statics:
                  5330   ; 
                  5331   ; CSEs:
                  5332   ;     request = R8R9
                  5333   ;     retval = R12
                  5334   ;     hWnd = R12R13
                  5335   ;     Msg = R14
                  5336   ; 
                  5337           ?SYMB   'hWnd',3,99,394
                  5338           ?SYMB   'Msg',2,99,16
                  5339           ?SYMB   'retval',1,98,16
                  5340           ?SYMB   'request',4,98,547
               R  5341           ?SYMB   'R12R13',$,100,3
               R  5342           ?SYMB   'R14',$,100,2
                  5343   ; me_wnd.c  803         int retval = 0;
                  5344   ; me_wnd.c  804         struct ME_REQUEST_WIN * request;
                  5345   ; me_wnd.c  805 
                  5346   ; me_wnd.c  806         request = FindRequestStruct( -1 );
                  5347           ?LINE   806
0004 88C0         5348           MOV     [-R0],R12
               R  5349           ?SYMB   '',$,96,6
0006 88D0         5350           MOV     [-R0],R13
               R  5351           ?SYMB   '',$,96,8
0008 88E0         5352           MOV     [-R0],R14
               R  5353           ?SYMB   '',$,96,10
000A E6FCFFFF     5354           MOV     R12,#0FFFFh
               R  5355           ?SYMB   '',$,102,3
000E DA000000  R  5356           CALLS   SEG _FindRequestStruct,_FindRequestStruct
               R  5357           ?SYMB   '',$,102,2
0012 F084         5358           MOV     R8,R4
0014 F095         5359           MOV     R9,R5
               R  5360           ?SYMB   'R8R9',$,100,4
0016 98E0         5361           MOV     R14,[R0+]
               R  5362           ?SYMB   '',$,96,8
               R  5363           ?SYMB   'R14',$,100,2
0018 98D0         5364           MOV     R13,[R0+]
               R  5365           ?SYMB   '',$,96,6
001A 98C0         5366           MOV     R12,[R0+]
               R  5367           ?SYMB   '',$,96,4
               R  5368           ?SYMB   'R12R13',$,100,3
                  5369   ; me_wnd.c  807         if ( NULL == request )
                  5370           ?LINE   807
001C F0F9         5371           MOV     R15,R9
001E 70F8         5372           OR      R15,R8
0020 3D03         5373           JMPR    cc_NZ,_191
                  5374   ; me_wnd.c  808                 return -1;
                  5375           ?LINE   808
0022 E6F4FFFF     5376           MOV     R4,#0FFFFh
0026 0D19         5377           JMPR    cc_UC,_192
0028              5378   _191:
               R  5379           ?SYMB   '',$,102,4
               R  5380           ?SYMB   '',$,102,2
               R  5381           ?SYMB   '',$,102,3
               R  5382           ?SYMB   'R8R9',$,100,4
               R  5383           ?SYMB   'R12R13',$,100,3
               R  5384           ?SYMB   'R14',$,100,2
                  5385   ; me_wnd.c  809 
                  5386   ; me_wnd.c  810     request->hWnd = hWnd;
                  5387           ?LINE   810
0028 DC59         5388           EXTP    R9,#02h
002A C4C83C01 2   5389           MOV     [R8+#013CH],R12
002E C4D83E01 1   5390           MOV     [R8+#013EH],R13
                  5391   ; me_wnd.c  811     request->message = Msg;
                  5392   ; me_wnd.c  812 
                  5393   ; me_wnd.c  813     /* Fill the request */
                  5394   ; me_wnd.c  814         request->request.cmd = ME_GET_CELLBROADCAST;
                  5395           ?LINE   814
0032 E6FC1D00     5396           MOV     R12,#01Dh
                  5397           ?LINE   811
0036 DC59         5398           EXTP    R9,#02h
0038 C4E84001 2   5399           MOV     [R8+#0140H],R14
               R  5400           ?SYMB   '',$,102,3
                  5401           ?LINE   814
003C B8C8     1   5402           MOV     [R8],R12
                  5403   ; me_wnd.c  815     request->request.reply = ME_WndCallback;
                  5404           ?LINE   815
003E E6FD0000  R  5405           MOV     R13,#SOF _ME_WndCallback
0042 E6FE0000  R  5406           MOV     R14,#SEG _ME_WndCallback
               R  5407           ?SYMB   '',$,102,2
0046 DC59         5408           EXTP    R9,#02h
0048 C4D80E00 2   5409           MOV     [R8+#0EH],R13
004C C4E81000 1   5410           MOV     [R8+#010H],R14
                  5411   ; me_wnd.c  816 
                  5412   ; me_wnd.c  817         retval = ME_Request( &(request->request) );
                  5413           ?LINE   817
0050 F0C8         5414           MOV     R12,R8
0052 F0D9         5415           MOV     R13,R9
0054 DA000000  R  5416           CALLS   SEG _ME_Request,_ME_Request
               R  5417           ?SYMB   '',$,102,4
0058 F0C4         5418           MOV     R12,R4
               R  5419           ?SYMB   'R12',$,100,1
                  5420   ; me_wnd.c  818 
                  5421   ; me_wnd.c  819         return retval;
                  5422   ; me_wnd.c  820 }
                  5423           ?LINE   820
005A              5424   _192:
               R  5425           ?SYMB   '',$,102,1
005A 9880         5426           MOV     R8,[R0+]
               R  5427           ?SYMB   '',$,96,2
005C 9890         5428           MOV     R9,[R0+]
               R  5429           ?SYMB   '',$,96,0
005E DB00         5430           RETS
                  5431   _ME_SMS_GetCellBroadcast        ENDP
               R  5432           ?SYMB   '',$,17,820
                  5433   ; me_wnd.c  821 
                  5434   ; me_wnd.c  822 int ME_SMS_GetMemStatus( HWND hWnd, int Msg, int MemType )
                  5435   ; me_wnd.c  823 {
                  5436           ?LINE   823
                  5437           PUBLIC  _ME_SMS_GetMemStatus
               R  5438           ?SYMB   'ME_SMS_GetMemStatus',_ME_SMS_GetMemStatus,37,16
                  5439           ?SYMB   '',823,8,34
                  5440   _ME_SMS_GetMemStatus    PROC    FAR
                  5441           ?SYMB   '',0300H,95,0
0060 8890         5442           MOV     [-R0],R9
               R  5443           ?SYMB   '',$,96,2
0062 8880         5444           MOV     [-R0],R8
               R  5445           ?SYMB   '',$,96,4
                  5446   ; Locals:
                  5447   ; 
                  5448   ; Statics:
                  5449   ; 
                  5450   ; CSEs:
                  5451   ;     request = R8R9
                  5452   ;     retval = R12
                  5453   ;     Msg = R14
                  5454   ;     MemType = R15
                  5455   ;     hWnd = R12R13
                  5456   ; 
                  5457           ?SYMB   'hWnd',4,99,394
                  5458           ?SYMB   'Msg',3,99,16
                  5459           ?SYMB   'MemType',2,99,16
                  5460           ?SYMB   'retval',1,98,16
                  5461           ?SYMB   'request',5,98,547
               R  5462           ?SYMB   'R12R13',$,100,4
               R  5463           ?SYMB   'R14',$,100,3
               R  5464           ?SYMB   'R15',$,100,2
                  5465   ; me_wnd.c  824         int retval = 0;
                  5466   ; me_wnd.c  825         struct ME_REQUEST_WIN * request;
                  5467   ; me_wnd.c  826 
                  5468   ; me_wnd.c  827         request = FindRequestStruct( -1 );
                  5469           ?LINE   827
0064 88C0         5470           MOV     [-R0],R12
               R  5471           ?SYMB   '',$,96,6
0066 88D0         5472           MOV     [-R0],R13
               R  5473           ?SYMB   '',$,96,8
0068 88E0         5474           MOV     [-R0],R14
               R  5475           ?SYMB   '',$,96,10
006A 88F0         5476           MOV     [-R0],R15
               R  5477           ?SYMB   '',$,96,12
006C E6FCFFFF     5478           MOV     R12,#0FFFFh
               R  5479           ?SYMB   '',$,102,4
0070 DA000000  R  5480           CALLS   SEG _FindRequestStruct,_FindRequestStruct
               R  5481           ?SYMB   '',$,102,3
               R  5482           ?SYMB   '',$,102,2
0074 F084         5483           MOV     R8,R4
0076 F095         5484           MOV     R9,R5
               R  5485           ?SYMB   'R8R9',$,100,5
0078 98F0         5486           MOV     R15,[R0+]
               R  5487           ?SYMB   '',$,96,10
               R  5488           ?SYMB   'R15',$,100,2
007A 98E0         5489           MOV     R14,[R0+]
               R  5490           ?SYMB   '',$,96,8
               R  5491           ?SYMB   'R14',$,100,3
007C 98D0         5492           MOV     R13,[R0+]
               R  5493           ?SYMB   '',$,96,6
007E 98C0         5494           MOV     R12,[R0+]
               R  5495           ?SYMB   '',$,96,4
               R  5496           ?SYMB   'R12R13',$,100,4
                  5497   ; me_wnd.c  828         
                  5498   ; me_wnd.c  829         if ( NULL == request )
                  5499           ?LINE   829
0080 F019         5500           MOV     R1,R9
0082 7018         5501           OR      R1,R8
0084 3D03         5502           JMPR    cc_NZ,_195
                  5503   ; me_wnd.c  830                 return -1;
                  5504           ?LINE   830
0086 E6F4FFFF     5505           MOV     R4,#0FFFFh
008A 0D1C         5506           JMPR    cc_UC,_196
008C              5507   _195:
               R  5508           ?SYMB   '',$,102,5
               R  5509           ?SYMB   '',$,102,2
               R  5510           ?SYMB   '',$,102,3
               R  5511           ?SYMB   '',$,102,4
               R  5512           ?SYMB   'R8R9',$,100,5
               R  5513           ?SYMB   'R12R13',$,100,4
               R  5514           ?SYMB   'R14',$,100,3
               R  5515           ?SYMB   'R15',$,100,2
                  5516   ; me_wnd.c  831 
                  5517   ; me_wnd.c  832     request->hWnd = hWnd;
                  5518           ?LINE   832
008C DC59         5519           EXTP    R9,#02h
008E C4C83C01 2   5520           MOV     [R8+#013CH],R12
0092 C4D83E01 1   5521           MOV     [R8+#013EH],R13
                  5522   ; me_wnd.c  833     request->message = Msg;
                  5523           ?LINE   833
0096 DC59         5524           EXTP    R9,#02h
0098 C4E84001 2   5525           MOV     [R8+#0140H],R14
                  5526   ; me_wnd.c  834         
                  5527   ; me_wnd.c  835     /* Fill the request */
                  5528   ; me_wnd.c  836         request->request.arg1 = MemType;
                  5529           ?LINE   836
009C C4F80200 1   5530           MOV     [R8+#02H],R15
                  5531   ; me_wnd.c  837 
                  5532   ; me_wnd.c  838         request->request.cmd = ME_SMS_MEMCOUNT;
                  5533           ?LINE   838
00A0 E6FC1E00     5534           MOV     R12,#01Eh
               R  5535           ?SYMB   '',$,102,4
00A4 DC49         5536           EXTP    R9,#01h
00A6 B8C8     1   5537           MOV     [R8],R12
                  5538   ; me_wnd.c  839     request->request.reply = ME_WndCallback;
                  5539           ?LINE   839
00A8 E6FD0000  R  5540           MOV     R13,#SOF _ME_WndCallback
00AC E6FE0000  R  5541           MOV     R14,#SEG _ME_WndCallback
               R  5542           ?SYMB   '',$,102,3
00B0 DC59         5543           EXTP    R9,#02h
00B2 C4D80E00 2   5544           MOV     [R8+#0EH],R13
00B6 C4E81000 1   5545           MOV     [R8+#010H],R14
                  5546   ; me_wnd.c  840 
                  5547   ; me_wnd.c  841         retval = ME_Request( &(request->request) );
                  5548           ?LINE   841
00BA F0C8         5549           MOV     R12,R8
00BC F0D9         5550           MOV     R13,R9
00BE DA000000  R  5551           CALLS   SEG _ME_Request,_ME_Request
               R  5552           ?SYMB   '',$,102,5
               R  5553           ?SYMB   '',$,102,2
00C2 F0C4         5554           MOV     R12,R4
               R  5555           ?SYMB   'R12',$,100,1
                  5556   ; me_wnd.c  842 
                  5557   ; me_wnd.c  843         return retval;
                  5558   ; me_wnd.c  844 }
                  5559           ?LINE   844
00C4              5560   _196:
               R  5561           ?SYMB   '',$,102,1
00C4 9880         5562           MOV     R8,[R0+]
               R  5563           ?SYMB   '',$,96,2
00C6 9890         5564           MOV     R9,[R0+]
               R  5565           ?SYMB   '',$,96,0
00C8 DB00         5566           RETS
                  5567   _ME_SMS_GetMemStatus    ENDP
               R  5568           ?SYMB   '',$,17,844
                  5569   ; me_wnd.c  845 
                  5570   ; me_wnd.c  846 int ME_ReadPhonebook(HWND hWnd, int Msg, int Type, int IndexBegin, int IndexEnd
                         )
                  5571   ; me_wnd.c  847 {
                  5572           ?LINE   847
                  5573           PUBLIC  _ME_ReadPhonebook
               R  5574           ?SYMB   'ME_ReadPhonebook',_ME_ReadPhonebook,37,16
                  5575           ?SYMB   '',847,8,34
                  5576   _ME_ReadPhonebook       PROC    FAR
                  5577           ?SYMB   '',0300H,95,0
00CA 8890         5578           MOV     [-R0],R9
               R  5579           ?SYMB   '',$,96,2
00CC 8880         5580           MOV     [-R0],R8
               R  5581           ?SYMB   '',$,96,4
                  5582   ; Locals:
                  5583   ; 
                  5584   ; Statics:
                  5585   ; 
                  5586   ; CSEs:
                  5587   ;     request = R8R9
                  5588   ;     retval = R12
                  5589   ;     Type = R15
                  5590   ;     hWnd = R12R13
                  5591   ;     Msg = R14
                  5592   ;     IndexEnd = offset 6
                  5593   ;     IndexBegin = offset 4
                  5594   ; 
                  5595           ?SYMB   'hWnd',6,99,394
                  5596           ?SYMB   'Msg',5,99,16
                  5597           ?SYMB   'Type',4,99,16
                  5598           ?SYMB   'IndexBegin',3,99,16
                  5599           ?SYMB   'IndexEnd',2,99,16
                  5600           ?SYMB   'retval',1,98,16
                  5601           ?SYMB   'request',7,98,547
               R  5602           ?SYMB   'R12R13',$,100,6
               R  5603           ?SYMB   'R14',$,100,5
               R  5604           ?SYMB   'R15',$,100,4
               R  5605           ?SYMB   '0',$,101,3
               R  5606           ?SYMB   '2',$,101,2
                  5607   ; me_wnd.c  848         int retval = 0;
                  5608   ; me_wnd.c  849         struct ME_REQUEST_WIN * request;
                  5609   ; me_wnd.c  850 
                  5610   ; me_wnd.c  851         request = FindRequestStruct( -1 );
                  5611           ?LINE   851
00CE 88C0         5612           MOV     [-R0],R12
               R  5613           ?SYMB   '',$,96,6
00D0 88D0         5614           MOV     [-R0],R13
               R  5615           ?SYMB   '',$,96,8
00D2 88E0         5616           MOV     [-R0],R14
               R  5617           ?SYMB   '',$,96,10
00D4 88F0         5618           MOV     [-R0],R15
               R  5619           ?SYMB   '',$,96,12
00D6 E6FCFFFF     5620           MOV     R12,#0FFFFh
               R  5621           ?SYMB   '',$,102,6
00DA DA000000  R  5622           CALLS   SEG _FindRequestStruct,_FindRequestStruct
               R  5623           ?SYMB   '',$,102,5
               R  5624           ?SYMB   '',$,102,4
00DE F084         5625           MOV     R8,R4
00E0 F095         5626           MOV     R9,R5
               R  5627           ?SYMB   'R8R9',$,100,7
00E2 98F0         5628           MOV     R15,[R0+]
               R  5629           ?SYMB   '',$,96,10
               R  5630           ?SYMB   'R15',$,100,4
00E4 98E0         5631           MOV     R14,[R0+]
               R  5632           ?SYMB   '',$,96,8
               R  5633           ?SYMB   'R14',$,100,5
00E6 98D0         5634           MOV     R13,[R0+]
               R  5635           ?SYMB   '',$,96,6
00E8 98C0         5636           MOV     R12,[R0+]
               R  5637           ?SYMB   '',$,96,4
               R  5638           ?SYMB   'R12R13',$,100,6
                  5639   ; me_wnd.c  852         
                  5640   ; me_wnd.c  853         if ( NULL == request )
                  5641           ?LINE   853
00EA F019         5642           MOV     R1,R9
00EC 7018         5643           OR      R1,R8
00EE 3D03         5644           JMPR    cc_NZ,_199
               R  5645           ?SYMB   '',$,102,3
               R  5646           ?SYMB   '',$,102,2
                  5647   ; me_wnd.c  854                 return -1;
                  5648           ?LINE   854
00F0 E6F4FFFF     5649           MOV     R4,#0FFFFh
00F4 0D25         5650           JMPR    cc_UC,_200
00F6              5651   _199:
               R  5652           ?SYMB   '',$,102,7
               R  5653           ?SYMB   '',$,102,4
               R  5654           ?SYMB   '',$,102,5
               R  5655           ?SYMB   '',$,102,6
               R  5656           ?SYMB   'R8R9',$,100,7
               R  5657           ?SYMB   'R12R13',$,100,6
               R  5658           ?SYMB   'R14',$,100,5
               R  5659           ?SYMB   'R15',$,100,4
               R  5660           ?SYMB   '0',$,101,3
               R  5661           ?SYMB   '2',$,101,2
                  5662   ; me_wnd.c  855 
                  5663   ; me_wnd.c  856     request->hWnd = hWnd;
                  5664           ?LINE   856
00F6 DC59         5665           EXTP    R9,#02h
00F8 C4C83C01 2   5666           MOV     [R8+#013CH],R12
00FC C4D83E01 1   5667           MOV     [R8+#013EH],R13
                  5668   ; me_wnd.c  857     request->message = Msg;
                  5669           ?LINE   857
0100 DC59         5670           EXTP    R9,#02h
0102 C4E84001 2   5671           MOV     [R8+#0140H],R14
                  5672   ; me_wnd.c  858 
                  5673   ; me_wnd.c  859     /* Fill the request */
                  5674   ; me_wnd.c  860         request->request.arg1 = Type;
                  5675           ?LINE   860
0106 C4F80200 1   5676           MOV     [R8+#02H],R15
                  5677   ; me_wnd.c  861         request->request.arg2 = IndexBegin;
                  5678           ?LINE   861
010A D4C00400     5679           MOV     R12,[R0+#04H]
               R  5680           ?SYMB   '',$,102,6
010E DC49         5681           EXTP    R9,#01h
0110 C4C80400 1   5682           MOV     [R8+#04H],R12
                  5683   ; me_wnd.c  862         request->request.arg3 = IndexEnd;
                  5684           ?LINE   862
0114 D4D00600     5685           MOV     R13,[R0+#06H]
                  5686   ; me_wnd.c  863 
                  5687   ; me_wnd.c  864         request->request.cmd = ME_PBOOK_READ;
                  5688           ?LINE   864
0118 E6FE2000     5689           MOV     R14,#020h
                  5690           ?LINE   862
011C DC59         5691           EXTP    R9,#02h
011E C4D80600 2   5692           MOV     [R8+#06H],R13
               R  5693           ?SYMB   '',$,102,5
                  5694           ?LINE   864
0122 B8E8     1   5695           MOV     [R8],R14
                  5696   ; me_wnd.c  865     request->request.reply = ME_WndCallback;
                  5697           ?LINE   865
0124 E6FF0000  R  5698           MOV     R15,#SOF _ME_WndCallback
               R  5699           ?SYMB   '',$,102,4
0128 E6F10000  R  5700           MOV     R1,#SEG _ME_WndCallback
012C DC59         5701           EXTP    R9,#02h
012E C4F80E00 2   5702           MOV     [R8+#0EH],R15
0132 C4181000 1   5703           MOV     [R8+#010H],R1
                  5704   ; me_wnd.c  866 
                  5705   ; me_wnd.c  867         retval = ME_Request( &(request->request) );
                  5706           ?LINE   867
0136 F0C8         5707           MOV     R12,R8
0138 F0D9         5708           MOV     R13,R9
013A DA000000  R  5709           CALLS   SEG _ME_Request,_ME_Request
               R  5710           ?SYMB   '',$,102,7
013E F0C4         5711           MOV     R12,R4
               R  5712           ?SYMB   'R12',$,100,1
                  5713   ; me_wnd.c  868 
                  5714   ; me_wnd.c  869         return retval;
                  5715   ; me_wnd.c  870 }
                  5716           ?LINE   870
0140              5717   _200:
               R  5718           ?SYMB   '',$,102,1
0140 9880         5719           MOV     R8,[R0+]
               R  5720           ?SYMB   '',$,96,2
0142 9890         5721           MOV     R9,[R0+]
               R  5722           ?SYMB   '',$,96,0
0144 DB00         5723           RETS
                  5724   _ME_ReadPhonebook       ENDP
               R  5725           ?SYMB   '',$,17,870
                  5726   ; me_wnd.c  871 
                  5727   ; me_wnd.c  872 int ME_WritePhonebook( HWND hWnd, int Msg, PPHONEBOOK Record )
                  5728   ; me_wnd.c  873 {
                  5729           ?LINE   873
                  5730           PUBLIC  _ME_WritePhonebook
               R  5731           ?SYMB   'ME_WritePhonebook',_ME_WritePhonebook,37,16
                  5732           ?SYMB   '',873,8,34
                  5733           ?SYMB   'PHONEBOOK',526,13,593
                  5734   _ME_WritePhonebook      PROC    FAR
                  5735           ?SYMB   '',0300H,95,0
0146 8890         5736           MOV     [-R0],R9
               R  5737           ?SYMB   '',$,96,2
0148 8880         5738           MOV     [-R0],R8
               R  5739           ?SYMB   '',$,96,4
                  5740   ; Locals:
                  5741   ; 
                  5742   ; Statics:
                  5743   ; 
                  5744   ; CSEs:
                  5745   ;     request = R8R9
                  5746   ;     retval = R12
                  5747   ;     hWnd = R12R13
                  5748   ;     Record = offset 4
                  5749   ;     Msg = R14
                  5750   ; 
                  5751           ?SYMB   'hWnd',3,99,394
                  5752           ?SYMB   'Msg',2,99,16
                  5753           ?SYMB   'Record',5,99,529
                  5754           ?SYMB   'retval',1,98,16
                  5755           ?SYMB   'request',4,98,547
               R  5756           ?SYMB   '0',$,101,5
               R  5757           ?SYMB   'R12R13',$,100,3
               R  5758           ?SYMB   'R14',$,100,2
                  5759   ; me_wnd.c  874         int retval = 0;
                  5760   ; me_wnd.c  875         struct ME_REQUEST_WIN * request;
                  5761   ; me_wnd.c  876 
                  5762   ; me_wnd.c  877         if ( NULL == Record )
                  5763           ?LINE   877
014A D4F00400     5764           MOV     R15,[R0+#04H]
014E D4100600     5765           MOV     R1,[R0+#06H]
0152 70F1         5766           OR      R15,R1
0154 2D0F         5767           JMPR    cc_Z,_209
                  5768   ; me_wnd.c  878                 return -1;
                  5769   ; me_wnd.c  879 
                  5770   ; me_wnd.c  880         request = FindRequestStruct( -1 );
                  5771           ?LINE   880
0156 88C0         5772           MOV     [-R0],R12
               R  5773           ?SYMB   '',$,96,6
0158 88D0         5774           MOV     [-R0],R13
               R  5775           ?SYMB   '',$,96,8
015A 88E0         5776           MOV     [-R0],R14
               R  5777           ?SYMB   '',$,96,10
015C E6FCFFFF     5778           MOV     R12,#0FFFFh
               R  5779           ?SYMB   '',$,102,3
0160 DA000000  R  5780           CALLS   SEG _FindRequestStruct,_FindRequestStruct
               R  5781           ?SYMB   '',$,102,2
0164 F084         5782           MOV     R8,R4
0166 F095         5783           MOV     R9,R5
               R  5784           ?SYMB   'R8R9',$,100,4
0168 98E0         5785           MOV     R14,[R0+]
               R  5786           ?SYMB   '',$,96,8
               R  5787           ?SYMB   'R14',$,100,2
016A 98D0         5788           MOV     R13,[R0+]
               R  5789           ?SYMB   '',$,96,6
016C 98C0         5790           MOV     R12,[R0+]
               R  5791           ?SYMB   '',$,96,4
               R  5792           ?SYMB   'R12R13',$,100,3
                  5793   ; me_wnd.c  881         if ( NULL == request )
                  5794           ?LINE   881
016E F0F9         5795           MOV     R15,R9
0170 70F8         5796           OR      R15,R8
0172 3D03         5797           JMPR    cc_NZ,_210
               R  5798           ?SYMB   '',$,102,5
                  5799   ; me_wnd.c  882                 return -1;
                  5800           ?LINE   882
0174              5801   _209:
               R  5802           ?SYMB   '',$,102,4
               R  5803           ?SYMB   '',$,102,2
               R  5804           ?SYMB   '',$,102,3
0174 E6F4FFFF     5805           MOV     R4,#0FFFFh
0178 0D35         5806           JMPR    cc_UC,_211
017A              5807   _210:
               R  5808           ?SYMB   '0',$,101,5
               R  5809           ?SYMB   'R8R9',$,100,4
               R  5810           ?SYMB   'R12R13',$,100,3
               R  5811           ?SYMB   'R14',$,100,2
                  5812   ; me_wnd.c  883 
                  5813   ; me_wnd.c  884     request->hWnd = hWnd;
                  5814           ?LINE   884
017A DC59         5815           EXTP    R9,#02h
017C C4C83C01 2   5816           MOV     [R8+#013CH],R12
0180 C4D83E01 1   5817           MOV     [R8+#013EH],R13
                  5818   ; me_wnd.c  885     request->message = Msg;     
                  5819           ?LINE   885
0184 DC49         5820           EXTP    R9,#01h
0186 C4E84001 1   5821           MOV     [R8+#0140H],R14
                  5822   ; me_wnd.c  886         memcpy( request->cmddata, Record, sizeof(PHONEBOOK) );
                  5823           ?LINE   886
018A E6FC2A00     5824           MOV     R12,#02Ah
               R  5825           ?SYMB   '',$,102,3
018E 88C0         5826           MOV     [-R0],R12
               R  5827           ?SYMB   '',$,96,6
0190 F0C8         5828           MOV     R12,R8
0192 F0D9         5829           MOV     R13,R9
0194 06FC2200     5830           ADD     R12,#022h
0198 D4E00600     5831           MOV     R14,[R0+#06H]
               R  5832           ?SYMB   '',$,102,2
019C D4F00800     5833           MOV     R15,[R0+#08H]
01A0 DA000000  R  5834           CALLS   SEG _memcpy,_memcpy
01A4 0802         5835           ADD     R0,#02h
               R  5836           ?SYMB   '',$,96,4
                  5837   ; me_wnd.c  887 
                  5838   ; me_wnd.c  888     /* Fill the request */
                  5839   ; me_wnd.c  889         request->request.cmddata = request->cmddata;
                  5840           ?LINE   889
01A6 F0C8         5841           MOV     R12,R8
01A8 F0D9         5842           MOV     R13,R9
01AA 06FC2200     5843           ADD     R12,#022h
01AE DC59         5844           EXTP    R9,#02h
01B0 C4C80800 2   5845           MOV     [R8+#08H],R12
01B4 C4D80A00 1   5846           MOV     [R8+#0AH],R13
                  5847   ; me_wnd.c  890         request->request.cmddata_len = sizeof( PHONEBOOK );
                  5848           ?LINE   890
01B8 E6FC2A00     5849           MOV     R12,#02Ah
                  5850   ; me_wnd.c  891 
                  5851   ; me_wnd.c  892         request->request.cmd = ME_PBOOK_WRITE;
                  5852           ?LINE   892
01BC E6FD2100     5853           MOV     R13,#021h
                  5854           ?LINE   890
01C0 DC59         5855           EXTP    R9,#02h
01C2 C4C80C00 2   5856           MOV     [R8+#0CH],R12
                  5857           ?LINE   892
01C6 B8D8     1   5858           MOV     [R8],R13
                  5859   ; me_wnd.c  893     request->request.reply = ME_WndCallback;
                  5860           ?LINE   893
01C8 E6FE0000  R  5861           MOV     R14,#SOF _ME_WndCallback
01CC E6FF0000  R  5862           MOV     R15,#SEG _ME_WndCallback
01D0 DC59         5863           EXTP    R9,#02h
01D2 C4E80E00 2   5864           MOV     [R8+#0EH],R14
01D6 C4F81000 1   5865           MOV     [R8+#010H],R15
                  5866   ; me_wnd.c  894 
                  5867   ; me_wnd.c  895         retval = ME_Request( &(request->request) );
                  5868           ?LINE   895
01DA F0C8         5869           MOV     R12,R8
01DC F0D9         5870           MOV     R13,R9
01DE DA000000  R  5871           CALLS   SEG _ME_Request,_ME_Request
               R  5872           ?SYMB   '',$,102,4
01E2 F0C4         5873           MOV     R12,R4
               R  5874           ?SYMB   'R12',$,100,1
                  5875   ; me_wnd.c  896 
                  5876   ; me_wnd.c  897         return retval;
                  5877   ; me_wnd.c  898 }
                  5878           ?LINE   898
01E4              5879   _211:
               R  5880           ?SYMB   '',$,102,1
01E4 9880         5881           MOV     R8,[R0+]
               R  5882           ?SYMB   '',$,96,2
01E6 9890         5883           MOV     R9,[R0+]
               R  5884           ?SYMB   '',$,96,0
01E8 DB00         5885           RETS
                  5886   _ME_WritePhonebook      ENDP
               R  5887           ?SYMB   '',$,17,898
                  5888   ; me_wnd.c  899 
                  5889   ; me_wnd.c  900 int ME_GetPhonebookMemStatus( HWND hWnd, int Msg, int Type )
                  5890   ; me_wnd.c  901 {
                  5891           ?LINE   901
                  5892           PUBLIC  _ME_GetPhonebookMemStatus
               R  5893           ?SYMB   'ME_GetPhonebookMemStatus',_ME_GetPhonebookMemStatus,37,16
                  5894           ?SYMB   '',901,8,34
                  5895   _ME_GetPhonebookMemStatus       PROC    FAR
                  5896           ?SYMB   '',0300H,95,0
01EA 8890         5897           MOV     [-R0],R9
               R  5898           ?SYMB   '',$,96,2
01EC 8880         5899           MOV     [-R0],R8
               R  5900           ?SYMB   '',$,96,4
                  5901   ; Locals:
                  5902   ; 
                  5903   ; Statics:
                  5904   ; 
                  5905   ; CSEs:
                  5906   ;     request = R8R9
                  5907   ;     retval = R12
                  5908   ;     Msg = R14
                  5909   ;     Type = R15
                  5910   ;     hWnd = R12R13
                  5911   ; 
                  5912           ?SYMB   'hWnd',4,99,394
                  5913           ?SYMB   'Msg',3,99,16
                  5914           ?SYMB   'Type',2,99,16
                  5915           ?SYMB   'retval',1,98,16
                  5916           ?SYMB   'request',5,98,547
               R  5917           ?SYMB   'R12R13',$,100,4
               R  5918           ?SYMB   'R14',$,100,3
               R  5919           ?SYMB   'R15',$,100,2
                  5920   ; me_wnd.c  902         int retval = 0;
                  5921   ; me_wnd.c  903         struct ME_REQUEST_WIN * request;
                  5922   ; me_wnd.c  904 
                  5923   ; me_wnd.c  905         request = FindRequestStruct( -1 );
                  5924           ?LINE   905
01EE 88C0         5925           MOV     [-R0],R12
               R  5926           ?SYMB   '',$,96,6
01F0 88D0         5927           MOV     [-R0],R13
               R  5928           ?SYMB   '',$,96,8
01F2 88E0         5929           MOV     [-R0],R14
               R  5930           ?SYMB   '',$,96,10
01F4 88F0         5931           MOV     [-R0],R15
               R  5932           ?SYMB   '',$,96,12
01F6 E6FCFFFF     5933           MOV     R12,#0FFFFh
               R  5934           ?SYMB   '',$,102,4
01FA DA000000  R  5935           CALLS   SEG _FindRequestStruct,_FindRequestStruct
               R  5936           ?SYMB   '',$,102,3
               R  5937           ?SYMB   '',$,102,2
01FE F084         5938           MOV     R8,R4
0200 F095         5939           MOV     R9,R5
               R  5940           ?SYMB   'R8R9',$,100,5
0202 98F0         5941           MOV     R15,[R0+]
               R  5942           ?SYMB   '',$,96,10
               R  5943           ?SYMB   'R15',$,100,2
0204 98E0         5944           MOV     R14,[R0+]
               R  5945           ?SYMB   '',$,96,8
               R  5946           ?SYMB   'R14',$,100,3
0206 98D0         5947           MOV     R13,[R0+]
               R  5948           ?SYMB   '',$,96,6
0208 98C0         5949           MOV     R12,[R0+]
               R  5950           ?SYMB   '',$,96,4
               R  5951           ?SYMB   'R12R13',$,100,4
                  5952   ; me_wnd.c  906         if ( NULL == request )
                  5953           ?LINE   906
020A F019         5954           MOV     R1,R9
020C 7018         5955           OR      R1,R8
020E 3D03         5956           JMPR    cc_NZ,_214
                  5957   ; me_wnd.c  907                 return -1;
                  5958           ?LINE   907
0210 E6F4FFFF     5959           MOV     R4,#0FFFFh
0214 0D1C         5960           JMPR    cc_UC,_215
0216              5961   _214:
               R  5962           ?SYMB   '',$,102,5
               R  5963           ?SYMB   '',$,102,2
               R  5964           ?SYMB   '',$,102,3
               R  5965           ?SYMB   '',$,102,4
               R  5966           ?SYMB   'R8R9',$,100,5
               R  5967           ?SYMB   'R12R13',$,100,4
               R  5968           ?SYMB   'R14',$,100,3
               R  5969           ?SYMB   'R15',$,100,2
                  5970   ; me_wnd.c  908 
                  5971   ; me_wnd.c  909     request->hWnd = hWnd;
                  5972           ?LINE   909
0216 DC59         5973           EXTP    R9,#02h
0218 C4C83C01 2   5974           MOV     [R8+#013CH],R12
021C C4D83E01 1   5975           MOV     [R8+#013EH],R13
                  5976   ; me_wnd.c  910     request->message = Msg;
                  5977           ?LINE   910
0220 DC59         5978           EXTP    R9,#02h
0222 C4E84001 2   5979           MOV     [R8+#0140H],R14
                  5980   ; me_wnd.c  911 
                  5981   ; me_wnd.c  912     /* Fill the request */
                  5982   ; me_wnd.c  913         request->request.arg1 = Type;
                  5983           ?LINE   913
0226 C4F80200 1   5984           MOV     [R8+#02H],R15
                  5985   ; me_wnd.c  914 
                  5986   ; me_wnd.c  915         request->request.cmd = ME_PBOOK_MEMCOUNT;
                  5987           ?LINE   915
022A E6FC2200     5988           MOV     R12,#022h
               R  5989           ?SYMB   '',$,102,4
022E DC49         5990           EXTP    R9,#01h
0230 B8C8     1   5991           MOV     [R8],R12
                  5992   ; me_wnd.c  916     request->request.reply = ME_WndCallback;
                  5993           ?LINE   916
0232 E6FD0000  R  5994           MOV     R13,#SOF _ME_WndCallback
0236 E6FE0000  R  5995           MOV     R14,#SEG _ME_WndCallback
               R  5996           ?SYMB   '',$,102,3
023A DC59         5997           EXTP    R9,#02h
023C C4D80E00 2   5998           MOV     [R8+#0EH],R13
0240 C4E81000 1   5999           MOV     [R8+#010H],R14
                  6000   ; me_wnd.c  917 
                  6001   ; me_wnd.c  918         retval = ME_Request( &(request->request) );
                  6002           ?LINE   918
0244 F0C8         6003           MOV     R12,R8
0246 F0D9         6004           MOV     R13,R9
0248 DA000000  R  6005           CALLS   SEG _ME_Request,_ME_Request
               R  6006           ?SYMB   '',$,102,5
               R  6007           ?SYMB   '',$,102,2
024C F0C4         6008           MOV     R12,R4
               R  6009           ?SYMB   'R12',$,100,1
                  6010   ; me_wnd.c  919 
                  6011   ; me_wnd.c  920         return retval;
                  6012   ; me_wnd.c  921 }
                  6013           ?LINE   921
024E              6014   _215:
               R  6015           ?SYMB   '',$,102,1
024E 9880         6016           MOV     R8,[R0+]
               R  6017           ?SYMB   '',$,96,2
0250 9890         6018           MOV     R9,[R0+]
               R  6019           ?SYMB   '',$,96,0
0252 DB00         6020           RETS
                  6021   _ME_GetPhonebookMemStatus       ENDP
               R  6022           ?SYMB   '',$,17,921
                  6023   ; me_wnd.c  922 
                  6024   ; me_wnd.c  923 int ME_SetPhoneLockStatus( HWND hWnd, int Msg, int Type, char* Password, BOOL b
                         Enable )
                  6025   ; me_wnd.c  924 {
                  6026           ?LINE   924
                  6027           PUBLIC  _ME_SetPhoneLockStatus
               R  6028           ?SYMB   'ME_SetPhoneLockStatus',_ME_SetPhoneLockStatus,37,16
                  6029           ?SYMB   '',924,8,34
                  6030   _ME_SetPhoneLockStatus  PROC    FAR
                  6031           ?SYMB   '',03c0H,95,0
0254 8890         6032           MOV     [-R0],R9
               R  6033           ?SYMB   '',$,96,2
0256 8880         6034           MOV     [-R0],R8
               R  6035           ?SYMB   '',$,96,4
0258 8870         6036           MOV     [-R0],R7
               R  6037           ?SYMB   '',$,96,6
025A 8860         6038           MOV     [-R0],R6
               R  6039           ?SYMB   '',$,96,8
025C 88F0         6040           MOV     [-R0],R15
               R  6041           ?SYMB   '',$,96,10
025E D4700C00     6042           MOV     R7,[R0+#0CH]
0262 D4600A00     6043           MOV     R6,[R0+#0AH]
                  6044   ; Locals:
                  6045   ; 
                  6046   ; Statics:
                  6047   ; 
                  6048   ; CSEs:
                  6049   ;     request = R8R9
                  6050   ;     Password = R6R7
                  6051   ;     retval = R12
                  6052   ;     Msg = R14
                  6053   ;     hWnd = R12R13
                  6054   ;     Type = offset 0
                  6055   ;     bEnable = offset 14
                  6056   ; 
                  6057           ?SYMB   'hWnd',6,99,394
                  6058           ?SYMB   'Msg',5,99,16
                  6059           ?SYMB   'Type',3,99,16
                  6060           ?SYMB   'Password',4,99,266
                  6061           ?SYMB   'bEnable',2,99,258
                  6062           ?SYMB   'retval',1,98,16
                  6063           ?SYMB   'request',7,98,547
               R  6064           ?SYMB   'R12R13',$,100,6
               R  6065           ?SYMB   'R14',$,100,5
               R  6066           ?SYMB   'R6R7',$,100,4
               R  6067           ?SYMB   '-a',$,101,3
               R  6068           ?SYMB   '4',$,101,2
                  6069   ; me_wnd.c  925         int retval = 0;
                  6070   ; me_wnd.c  926         struct ME_REQUEST_WIN * request;
                  6071   ; me_wnd.c  927 
                  6072   ; me_wnd.c  928         request = FindRequestStruct( -1 );
                  6073           ?LINE   928
0266 88C0         6074           MOV     [-R0],R12
               R  6075           ?SYMB   '',$,96,12
0268 88D0         6076           MOV     [-R0],R13
               R  6077           ?SYMB   '',$,96,14
026A 88E0         6078           MOV     [-R0],R14
               R  6079           ?SYMB   '',$,96,16
026C E6FCFFFF     6080           MOV     R12,#0FFFFh
               R  6081           ?SYMB   '',$,102,6
0270 DA000000  R  6082           CALLS   SEG _FindRequestStruct,_FindRequestStruct
               R  6083           ?SYMB   '',$,102,5
0274 F084         6084           MOV     R8,R4
0276 F095         6085           MOV     R9,R5
               R  6086           ?SYMB   'R8R9',$,100,7
0278 98E0         6087           MOV     R14,[R0+]
               R  6088           ?SYMB   '',$,96,14
               R  6089           ?SYMB   'R14',$,100,5
027A 98D0         6090           MOV     R13,[R0+]
               R  6091           ?SYMB   '',$,96,12
027C 98C0         6092           MOV     R12,[R0+]
               R  6093           ?SYMB   '',$,96,10
               R  6094           ?SYMB   'R12R13',$,100,6
                  6095   ; me_wnd.c  929         if ( NULL == request )
                  6096           ?LINE   929
027E F0F9         6097           MOV     R15,R9
0280 70F8         6098           OR      R15,R8
0282 3D03         6099           JMPR    cc_NZ,_219
               R  6100           ?SYMB   '',$,102,3
               R  6101           ?SYMB   '',$,102,2
                  6102   ; me_wnd.c  930                 return -1;
                  6103           ?LINE   930
0284 E6F4FFFF     6104           MOV     R4,#0FFFFh
0288 0D3D         6105           JMPR    cc_UC,_221
028A              6106   _219:
               R  6107           ?SYMB   '',$,102,4
               R  6108           ?SYMB   '',$,102,7
               R  6109           ?SYMB   '',$,102,5
               R  6110           ?SYMB   '',$,102,6
               R  6111           ?SYMB   'R8R9',$,100,7
               R  6112           ?SYMB   'R12R13',$,100,6
               R  6113           ?SYMB   'R14',$,100,5
               R  6114           ?SYMB   'R6R7',$,100,4
               R  6115           ?SYMB   '-a',$,101,3
               R  6116           ?SYMB   '4',$,101,2
                  6117   ; me_wnd.c  931 
                  6118   ; me_wnd.c  932     request->hWnd = hWnd;
                  6119           ?LINE   932
028A DC59         6120           EXTP    R9,#02h
028C C4C83C01 2   6121           MOV     [R8+#013CH],R12
0290 C4D83E01 1   6122           MOV     [R8+#013EH],R13
                  6123   ; me_wnd.c  933     request->message = Msg;
                  6124           ?LINE   933
0294 DC49         6125           EXTP    R9,#01h
0296 C4E84001 1   6126           MOV     [R8+#0140H],R14
                  6127   ; me_wnd.c  934 
                  6128   ; me_wnd.c  935         if ( Password != NULL )
                  6129           ?LINE   935
029A F0C7         6130           MOV     R12,R7
               R  6131           ?SYMB   '',$,102,6
029C 70C6         6132           OR      R12,R6
029E 2D18         6133           JMPR    cc_Z,_220
                  6134   ; me_wnd.c  936         {
                  6135   ; me_wnd.c  937                 strcpy( request->cmddata, Password );
                  6136           ?LINE   937
02A0 F0C8         6137           MOV     R12,R8
02A2 F0D9         6138           MOV     R13,R9
02A4 06FC2200     6139           ADD     R12,#022h
02A8 F0E6         6140           MOV     R14,R6
               R  6141           ?SYMB   '',$,102,5
02AA F0F7         6142           MOV     R15,R7
02AC DA000000  R  6143           CALLS   SEG _strcpy,_strcpy
                  6144   ; me_wnd.c  938                 request->request.cmddata = request->cmddata;
                  6145           ?LINE   938
02B0 F0C8         6146           MOV     R12,R8
02B2 F0D9         6147           MOV     R13,R9
02B4 06FC2200     6148           ADD     R12,#022h
02B8 DC59         6149           EXTP    R9,#02h
02BA C4C80800 2   6150           MOV     [R8+#08H],R12
02BE C4D80A00 1   6151           MOV     [R8+#0AH],R13
                  6152   ; me_wnd.c  939                 request->request.cmddata_len = strlen( Password );
                  6153           ?LINE   939
02C2 F0C6         6154           MOV     R12,R6
02C4 F0D7         6155           MOV     R13,R7
02C6 DA000000  R  6156           CALLS   SEG _strlen,_strlen
               R  6157           ?SYMB   '',$,102,4
02CA DC49         6158           EXTP    R9,#01h
02CC C4480C00 1   6159           MOV     [R8+#0CH],R4
                  6160   ; me_wnd.c  940         }
                  6161           ?LINE   940
02D0              6162   _220:
                  6163   ; me_wnd.c  941 
                  6164   ; me_wnd.c  942     /* Fill the request */
                  6165   ; me_wnd.c  943         request->request.arg1 = Type;
                  6166           ?LINE   943
02D0 A860         6167           MOV     R6,[R0]
02D2 DC49         6168           EXTP    R9,#01h
02D4 C4680200 1   6169           MOV     [R8+#02H],R6
                  6170   ; me_wnd.c  944         request->request.arg2 = bEnable;
                  6171           ?LINE   944
02D8 D4700E00     6172           MOV     R7,[R0+#0EH]
                  6173   ; me_wnd.c  945 
                  6174   ; me_wnd.c  946         request->request.cmd = ME_SET_LOCK;
                  6175           ?LINE   946
02DC E6FC2300     6176           MOV     R12,#023h
                  6177           ?LINE   944
02E0 DC59         6178           EXTP    R9,#02h
02E2 C4780400 2   6179           MOV     [R8+#04H],R7
                  6180           ?LINE   946
02E6 B8C8     1   6181           MOV     [R8],R12
                  6182   ; me_wnd.c  947     request->request.reply = ME_WndCallback;
                  6183           ?LINE   947
02E8 E6FD0000  R  6184           MOV     R13,#SOF _ME_WndCallback
02EC E6FE0000  R  6185           MOV     R14,#SEG _ME_WndCallback
02F0 DC59         6186           EXTP    R9,#02h
02F2 C4D80E00 2   6187           MOV     [R8+#0EH],R13
02F6 C4E81000 1   6188           MOV     [R8+#010H],R14
                  6189   ; me_wnd.c  948 
                  6190   ; me_wnd.c  949         retval = ME_Request( &(request->request) );
                  6191           ?LINE   949
02FA F0C8         6192           MOV     R12,R8
02FC F0D9         6193           MOV     R13,R9
02FE DA000000  R  6194           CALLS   SEG _ME_Request,_ME_Request
               R  6195           ?SYMB   '',$,102,7
0302 F0C4         6196           MOV     R12,R4
               R  6197           ?SYMB   'R12',$,100,1
                  6198   ; me_wnd.c  950 
                  6199   ; me_wnd.c  951         return retval;
                  6200   ; me_wnd.c  952 }
                  6201           ?LINE   952
0304              6202   _221:
               R  6203           ?SYMB   '',$,102,1
0304 0802         6204           ADD     R0,#02h
               R  6205           ?SYMB   '',$,96,8
0306 9860         6206           MOV     R6,[R0+]
               R  6207           ?SYMB   '',$,96,6
0308 9870         6208           MOV     R7,[R0+]
               R  6209           ?SYMB   '',$,96,4
030A 9880         6210           MOV     R8,[R0+]
               R  6211           ?SYMB   '',$,96,2
030C 9890         6212           MOV     R9,[R0+]
               R  6213           ?SYMB   '',$,96,0
030E DB00         6214           RETS
                  6215   _ME_SetPhoneLockStatus  ENDP
               R  6216           ?SYMB   '',$,17,952
                  6217   ; me_wnd.c  953 
                  6218   ; me_wnd.c  954 int ME_GetPhoneLockStatus( HWND hWnd, int Msg, int Type, char* Password )
                  6219   ; me_wnd.c  955 {
                  6220           ?LINE   955
                  6221           PUBLIC  _ME_GetPhoneLockStatus
               R  6222           ?SYMB   'ME_GetPhoneLockStatus',_ME_GetPhoneLockStatus,37,16
                  6223           ?SYMB   '',955,8,34
                  6224   _ME_GetPhoneLockStatus  PROC    FAR
                  6225           ?SYMB   '',03c0H,95,0
0310 8890         6226           MOV     [-R0],R9
               R  6227           ?SYMB   '',$,96,2
0312 8880         6228           MOV     [-R0],R8
               R  6229           ?SYMB   '',$,96,4
0314 8870         6230           MOV     [-R0],R7
               R  6231           ?SYMB   '',$,96,6
0316 8860         6232           MOV     [-R0],R6
               R  6233           ?SYMB   '',$,96,8
0318 88F0         6234           MOV     [-R0],R15
               R  6235           ?SYMB   '',$,96,10
031A D4700C00     6236           MOV     R7,[R0+#0CH]
031E D4600A00     6237           MOV     R6,[R0+#0AH]
                  6238   ; Locals:
                  6239   ; 
                  6240   ; Statics:
                  6241   ; 
                  6242   ; CSEs:
                  6243   ;     request = R8R9
                  6244   ;     Password = R6R7
                  6245   ;     retval = R12
                  6246   ;     Msg = R14
                  6247   ;     Type = offset 0
                  6248   ;     hWnd = R12R13
                  6249   ; 
                  6250           ?SYMB   'hWnd',5,99,394
                  6251           ?SYMB   'Msg',4,99,16
                  6252           ?SYMB   'Type',2,99,16
                  6253           ?SYMB   'Password',3,99,266
                  6254           ?SYMB   'retval',1,98,16
                  6255           ?SYMB   'request',6,98,547
               R  6256           ?SYMB   'R12R13',$,100,5
               R  6257           ?SYMB   'R14',$,100,4
               R  6258           ?SYMB   'R6R7',$,100,3
               R  6259           ?SYMB   '-a',$,101,2
                  6260   ; me_wnd.c  956         int retval = 0;
                  6261   ; me_wnd.c  957         struct ME_REQUEST_WIN * request;
                  6262   ; me_wnd.c  958 
                  6263   ; me_wnd.c  959         request = FindRequestStruct( -1 );
                  6264           ?LINE   959
0322 88C0         6265           MOV     [-R0],R12
               R  6266           ?SYMB   '',$,96,12
0324 88D0         6267           MOV     [-R0],R13
               R  6268           ?SYMB   '',$,96,14
0326 88E0         6269           MOV     [-R0],R14
               R  6270           ?SYMB   '',$,96,16
0328 E6FCFFFF     6271           MOV     R12,#0FFFFh
               R  6272           ?SYMB   '',$,102,5
032C DA000000  R  6273           CALLS   SEG _FindRequestStruct,_FindRequestStruct
               R  6274           ?SYMB   '',$,102,4
0330 F084         6275           MOV     R8,R4
0332 F095         6276           MOV     R9,R5
               R  6277           ?SYMB   'R8R9',$,100,6
0334 98E0         6278           MOV     R14,[R0+]
               R  6279           ?SYMB   '',$,96,14
               R  6280           ?SYMB   'R14',$,100,4
0336 98D0         6281           MOV     R13,[R0+]
               R  6282           ?SYMB   '',$,96,12
0338 98C0         6283           MOV     R12,[R0+]
               R  6284           ?SYMB   '',$,96,10
               R  6285           ?SYMB   'R12R13',$,100,5
                  6286   ; me_wnd.c  960         if ( NULL == request )
                  6287           ?LINE   960
033A F0F9         6288           MOV     R15,R9
033C 70F8         6289           OR      R15,R8
033E 3D03         6290           JMPR    cc_NZ,_225
               R  6291           ?SYMB   '',$,102,2
                  6292   ; me_wnd.c  961                 return -1;
                  6293           ?LINE   961
0340 E6F4FFFF     6294           MOV     R4,#0FFFFh
0344 0D38         6295           JMPR    cc_UC,_227
0346              6296   _225:
               R  6297           ?SYMB   '',$,102,3
               R  6298           ?SYMB   '',$,102,6
               R  6299           ?SYMB   '',$,102,4
               R  6300           ?SYMB   '',$,102,5
               R  6301           ?SYMB   'R8R9',$,100,6
               R  6302           ?SYMB   'R12R13',$,100,5
               R  6303           ?SYMB   'R14',$,100,4
               R  6304           ?SYMB   'R6R7',$,100,3
               R  6305           ?SYMB   '-a',$,101,2
                  6306   ; me_wnd.c  962 
                  6307   ; me_wnd.c  963     request->hWnd = hWnd;
                  6308           ?LINE   963
0346 DC59         6309           EXTP    R9,#02h
0348 C4C83C01 2   6310           MOV     [R8+#013CH],R12
034C C4D83E01 1   6311           MOV     [R8+#013EH],R13
                  6312   ; me_wnd.c  964     request->message = Msg;
                  6313           ?LINE   964
0350 DC49         6314           EXTP    R9,#01h
0352 C4E84001 1   6315           MOV     [R8+#0140H],R14
                  6316   ; me_wnd.c  965 
                  6317   ; me_wnd.c  966         if ( Password != NULL )
                  6318           ?LINE   966
0356 F0C7         6319           MOV     R12,R7
               R  6320           ?SYMB   '',$,102,5
0358 70C6         6321           OR      R12,R6
035A 2D18         6322           JMPR    cc_Z,_226
                  6323   ; me_wnd.c  967         {
                  6324   ; me_wnd.c  968                 strcpy( request->cmddata, Password );
                  6325           ?LINE   968
035C F0C8         6326           MOV     R12,R8
035E F0D9         6327           MOV     R13,R9
0360 06FC2200     6328           ADD     R12,#022h
0364 F0E6         6329           MOV     R14,R6
               R  6330           ?SYMB   '',$,102,4
0366 F0F7         6331           MOV     R15,R7
0368 DA000000  R  6332           CALLS   SEG _strcpy,_strcpy
                  6333   ; me_wnd.c  969                 request->request.cmddata = request->cmddata;
                  6334           ?LINE   969
036C F0C8         6335           MOV     R12,R8
036E F0D9         6336           MOV     R13,R9
0370 06FC2200     6337           ADD     R12,#022h
0374 DC59         6338           EXTP    R9,#02h
0376 C4C80800 2   6339           MOV     [R8+#08H],R12
037A C4D80A00 1   6340           MOV     [R8+#0AH],R13
                  6341   ; me_wnd.c  970                 request->request.cmddata_len = strlen( Password );
                  6342           ?LINE   970
037E F0C6         6343           MOV     R12,R6
0380 F0D7         6344           MOV     R13,R7
0382 DA000000  R  6345           CALLS   SEG _strlen,_strlen
               R  6346           ?SYMB   '',$,102,3
0386 DC49         6347           EXTP    R9,#01h
0388 C4480C00 1   6348           MOV     [R8+#0CH],R4
                  6349   ; me_wnd.c  971         }
                  6350           ?LINE   971
038C              6351   _226:
                  6352   ; me_wnd.c  972 
                  6353   ; me_wnd.c  973     /* Fill the request */
                  6354   ; me_wnd.c  974         request->request.arg1 = Type;
                  6355           ?LINE   974
038C A860         6356           MOV     R6,[R0]
                  6357   ; me_wnd.c  975 
                  6358   ; me_wnd.c  976         request->request.cmd = ME_GET_LOCK;
                  6359           ?LINE   976
038E E6F72400     6360           MOV     R7,#024h
                  6361           ?LINE   974
0392 DC59         6362           EXTP    R9,#02h
0394 C4680200 2   6363           MOV     [R8+#02H],R6
                  6364           ?LINE   976
0398 B878     1   6365           MOV     [R8],R7
                  6366   ; me_wnd.c  977     request->request.reply = ME_WndCallback;
                  6367           ?LINE   977
039A E6FC0000  R  6368           MOV     R12,#SOF _ME_WndCallback
039E E6FD0000  R  6369           MOV     R13,#SEG _ME_WndCallback
03A2 DC59         6370           EXTP    R9,#02h
03A4 C4C80E00 2   6371           MOV     [R8+#0EH],R12
03A8 C4D81000 1   6372           MOV     [R8+#010H],R13
                  6373   ; me_wnd.c  978 
                  6374   ; me_wnd.c  979         retval = ME_Request( &(request->request) );
                  6375           ?LINE   979
03AC F0C8         6376           MOV     R12,R8
03AE F0D9         6377           MOV     R13,R9
03B0 DA000000  R  6378           CALLS   SEG _ME_Request,_ME_Request
               R  6379           ?SYMB   '',$,102,6
03B4 F0C4         6380           MOV     R12,R4
               R  6381           ?SYMB   'R12',$,100,1
                  6382   ; me_wnd.c  980 
                  6383   ; me_wnd.c  981         return retval;
                  6384   ; me_wnd.c  982 }
                  6385           ?LINE   982
03B6              6386   _227:
               R  6387           ?SYMB   '',$,102,1
03B6 0802         6388           ADD     R0,#02h
               R  6389           ?SYMB   '',$,96,8
03B8 9860         6390           MOV     R6,[R0+]
               R  6391           ?SYMB   '',$,96,6
03BA 9870         6392           MOV     R7,[R0+]
               R  6393           ?SYMB   '',$,96,4
03BC 9880         6394           MOV     R8,[R0+]
               R  6395           ?SYMB   '',$,96,2
03BE 9890         6396           MOV     R9,[R0+]
               R  6397           ?SYMB   '',$,96,0
03C0 DB00         6398           RETS
                  6399   _ME_GetPhoneLockStatus  ENDP
               R  6400           ?SYMB   '',$,17,982
                  6401   ; me_wnd.c  983 
                  6402   ; me_wnd.c  984 int ME_ChangeLockPassword( HWND hWnd, int Msg, int Type, char* OldPass, char* N
                         ewPass )
                  6403   ; me_wnd.c  985 {
                  6404           ?LINE   985
                  6405           PUBLIC  _ME_ChangeLockPassword
               R  6406           ?SYMB   'ME_ChangeLockPassword',_ME_ChangeLockPassword,37,16
                  6407           ?SYMB   '',985,8,34
                  6408   _ME_ChangeLockPassword  PROC    FAR
                  6409           ?SYMB   '',03c0H,95,0
03C2 8890         6410           MOV     [-R0],R9
               R  6411           ?SYMB   '',$,96,2
03C4 8880         6412           MOV     [-R0],R8
               R  6413           ?SYMB   '',$,96,4
03C6 8870         6414           MOV     [-R0],R7
               R  6415           ?SYMB   '',$,96,6
03C8 8860         6416           MOV     [-R0],R6
               R  6417           ?SYMB   '',$,96,8
03CA F07F         6418           MOV     R7,R15
                  6419   ; Locals:
                  6420   ; 
                  6421   ; Statics:
                  6422   ; 
                  6423   ; CSEs:
                  6424   ;     request = R8R9
                  6425   ;     len = R6
                  6426   ;     NewPass = offset 12
                  6427   ;     retval = R12
                  6428   ;     OldPass = offset 8
                  6429   ;     hWnd = R12R13
                  6430   ;     Msg = R14
                  6431   ;     Type = R7
                  6432   ; 
                  6433           ?SYMB   'hWnd',5,99,394
                  6434           ?SYMB   'Msg',4,99,16
                  6435           ?SYMB   'Type',2,99,16
                  6436           ?SYMB   'OldPass',8,99,266
                  6437           ?SYMB   'NewPass',7,99,266
                  6438           ?SYMB   'retval',1,98,16
                  6439           ?SYMB   'len',3,98,16
                  6440           ?SYMB   'request',6,98,547
               R  6441           ?SYMB   '0',$,101,8
               R  6442           ?SYMB   '4',$,101,7
               R  6443           ?SYMB   'R12R13',$,100,5
               R  6444           ?SYMB   'R14',$,100,4
               R  6445           ?SYMB   'R7',$,100,2
                  6446   ; me_wnd.c  986         int retval = 0;
                  6447   ; me_wnd.c  987         int     len;
                  6448   ; me_wnd.c  988         struct ME_REQUEST_WIN * request;
                  6449   ; me_wnd.c  989 
                  6450   ; me_wnd.c  990         if ( OldPass == NULL || NewPass == NULL )
                  6451           ?LINE   990
03CC D4F00800     6452           MOV     R15,[R0+#08H]
03D0 D4100A00     6453           MOV     R1,[R0+#0AH]
03D4 70F1         6454           OR      R15,R1
03D6 2D15         6455           JMPR    cc_Z,_239
03D8 D4F00C00     6456           MOV     R15,[R0+#0CH]
03DC D4200E00     6457           MOV     R2,[R0+#0EH]
03E0 70F2         6458           OR      R15,R2
03E2 2D0F         6459           JMPR    cc_Z,_239
                  6460   ; me_wnd.c  991                 return -1;
                  6461   ; me_wnd.c  992 
                  6462   ; me_wnd.c  993         request = FindRequestStruct( -1 );
                  6463           ?LINE   993
03E4 F06C         6464           MOV     R6,R12
03E6 88D0         6465           MOV     [-R0],R13
               R  6466           ?SYMB   '',$,96,10
03E8 88E0         6467           MOV     [-R0],R14
               R  6468           ?SYMB   '',$,96,12
03EA E6FCFFFF     6469           MOV     R12,#0FFFFh
               R  6470           ?SYMB   '',$,102,5
03EE DA000000  R  6471           CALLS   SEG _FindRequestStruct,_FindRequestStruct
               R  6472           ?SYMB   '',$,102,4
03F2 F084         6473           MOV     R8,R4
03F4 F095         6474           MOV     R9,R5
               R  6475           ?SYMB   'R8R9',$,100,6
03F6 98E0         6476           MOV     R14,[R0+]
               R  6477           ?SYMB   '',$,96,10
               R  6478           ?SYMB   'R14',$,100,4
03F8 98D0         6479           MOV     R13,[R0+]
               R  6480           ?SYMB   '',$,96,8
03FA F0C6         6481           MOV     R12,R6
               R  6482           ?SYMB   'R12R13',$,100,5
                  6483   ; me_wnd.c  994         if ( NULL == request )
                  6484           ?LINE   994
03FC F069         6485           MOV     R6,R9
03FE 7068         6486           OR      R6,R8
0400 3D04         6487           JMPR    cc_NZ,_240
               R  6488           ?SYMB   '',$,102,8
               R  6489           ?SYMB   '',$,102,7
                  6490   ; me_wnd.c  995                 return -1;
                  6491           ?LINE   995
0402              6492   _239:
               R  6493           ?SYMB   '',$,102,2
               R  6494           ?SYMB   '',$,102,6
               R  6495           ?SYMB   '',$,102,4
               R  6496           ?SYMB   '',$,102,5
0402 E6F4FFFF     6497           MOV     R4,#0FFFFh
0406 EA00B204  R  6498           JMPA    cc_UC,_241
040A              6499   _240:
               R  6500           ?SYMB   '0',$,101,8
               R  6501           ?SYMB   '4',$,101,7
               R  6502           ?SYMB   'R8R9',$,100,6
               R  6503           ?SYMB   'R12R13',$,100,5
               R  6504           ?SYMB   'R14',$,100,4
               R  6505           ?SYMB   'R7',$,100,2
                  6506   ; me_wnd.c  996 
                  6507   ; me_wnd.c  997     request->hWnd = hWnd;
                  6508           ?LINE   997
040A DC59         6509           EXTP    R9,#02h
040C C4C83C01 2   6510           MOV     [R8+#013CH],R12
0410 C4D83E01 1   6511           MOV     [R8+#013EH],R13
                  6512   ; me_wnd.c  998     request->message = Msg;
                  6513           ?LINE   998
0414 DC49         6514           EXTP    R9,#01h
0416 C4E84001 1   6515           MOV     [R8+#0140H],R14
                  6516   ; me_wnd.c  999 
                  6517   ; me_wnd.c 1000         len = strlen( OldPass );
                  6518           ?LINE   1000
041A D4C00800     6519           MOV     R12,[R0+#08H]
               R  6520           ?SYMB   '',$,102,5
041E D4D00A00     6521           MOV     R13,[R0+#0AH]
0422 DA000000  R  6522           CALLS   SEG _strlen,_strlen
               R  6523           ?SYMB   '',$,102,4
0426 F064         6524           MOV     R6,R4
               R  6525           ?SYMB   'R6',$,100,3
                  6526   ; me_wnd.c 1001         strcpy( request->cmddata, OldPass );
                  6527           ?LINE   1001
0428 F0C8         6528           MOV     R12,R8
042A F0D9         6529           MOV     R13,R9
042C 06FC2200     6530           ADD     R12,#022h
0430 D4E00800     6531           MOV     R14,[R0+#08H]
0434 D4F00A00     6532           MOV     R15,[R0+#0AH]
0438 DA000000  R  6533           CALLS   SEG _strcpy,_strcpy
                  6534   ; me_wnd.c 1002         memcpy( &request->cmddata[len+1], NewPass, strlen(NewPass) );
                  6535           ?LINE   1002
043C D4C00C00     6536           MOV     R12,[R0+#0CH]
0440 D4D00E00     6537           MOV     R13,[R0+#0EH]
0444 DA000000  R  6538           CALLS   SEG _strlen,_strlen
0448 8840         6539           MOV     [-R0],R4
               R  6540           ?SYMB   '',$,96,10
044A F0C8         6541           MOV     R12,R8
044C F0D9         6542           MOV     R13,R9
044E 06FC2300     6543           ADD     R12,#023h
0452 00C6         6544           ADD     R12,R6
0454 D4E00E00     6545           MOV     R14,[R0+#0EH]
0458 D4F01000     6546           MOV     R15,[R0+#010H]
045C DA000000  R  6547           CALLS   SEG _memcpy,_memcpy
0460 0802         6548           ADD     R0,#02h
               R  6549           ?SYMB   '',$,96,8
                  6550   ; me_wnd.c 1003 
                  6551   ; me_wnd.c 1004     /* Fill the request */
                  6552   ; me_wnd.c 1005         request->request.cmd = ME_PASS_CHANGE;
                  6553           ?LINE   1005
0462 E6FC2500     6554           MOV     R12,#025h
0466 DC49         6555           EXTP    R9,#01h
0468 B8C8     1   6556           MOV     [R8],R12
                  6557   ; me_wnd.c 1006         request->request.cmddata = request->cmddata;
                  6558           ?LINE   1006
046A F0D8         6559           MOV     R13,R8
046C F0E9         6560           MOV     R14,R9
046E 06FD2200     6561           ADD     R13,#022h
0472 DC59         6562           EXTP    R9,#02h
0474 C4D80800 2   6563           MOV     [R8+#08H],R13
0478 C4E80A00 1   6564           MOV     [R8+#0AH],R14
                  6565   ; me_wnd.c 1007         request->request.cmddata_len = len + strlen(NewPass) + 1;
                  6566           ?LINE   1007
047C D4C00C00     6567           MOV     R12,[R0+#0CH]
0480 D4D00E00     6568           MOV     R13,[R0+#0EH]
0484 DA000000  R  6569           CALLS   SEG _strlen,_strlen
0488 0064         6570           ADD     R6,R4
               R  6571           ?SYMB   '',$,102,3
048A 0861         6572           ADD     R6,#01h
048C DC59         6573           EXTP    R9,#02h
048E C4680C00 2   6574           MOV     [R8+#0CH],R6
                  6575   ; me_wnd.c 1008         request->request.arg1 = Type;
                  6576           ?LINE   1008
0492 C4780200 1   6577           MOV     [R8+#02H],R7
                  6578   ; me_wnd.c 1009 
                  6579   ; me_wnd.c 1010     request->request.reply = ME_WndCallback;
                  6580           ?LINE   1010
0496 E6F60000  R  6581           MOV     R6,#SOF _ME_WndCallback
049A E6F70000  R  6582           MOV     R7,#SEG _ME_WndCallback
               R  6583           ?SYMB   '',$,102,2
049E DC59         6584           EXTP    R9,#02h
04A0 C4680E00 2   6585           MOV     [R8+#0EH],R6
04A4 C4781000 1   6586           MOV     [R8+#010H],R7
                  6587   ; me_wnd.c 1011         retval = ME_Request( &(request->request) );
                  6588           ?LINE   1011
04A8 F0C8         6589           MOV     R12,R8
04AA F0D9         6590           MOV     R13,R9
04AC DA000000  R  6591           CALLS   SEG _ME_Request,_ME_Request
               R  6592           ?SYMB   '',$,102,6
04B0 F0C4         6593           MOV     R12,R4
               R  6594           ?SYMB   'R12',$,100,1
                  6595   ; me_wnd.c 1012 
                  6596   ; me_wnd.c 1013         return retval;
                  6597   ; me_wnd.c 1014 }
                  6598           ?LINE   1014
04B2              6599   _241:
               R  6600           ?SYMB   '',$,102,1
04B2 9860         6601           MOV     R6,[R0+]
               R  6602           ?SYMB   '',$,96,6
04B4 9870         6603           MOV     R7,[R0+]
               R  6604           ?SYMB   '',$,96,4
04B6 9880         6605           MOV     R8,[R0+]
               R  6606           ?SYMB   '',$,96,2
04B8 9890         6607           MOV     R9,[R0+]
               R  6608           ?SYMB   '',$,96,0
04BA DB00         6609           RETS
                  6610   _ME_ChangeLockPassword  ENDP
               R  6611           ?SYMB   '',$,17,1014
                  6612   ; me_wnd.c 1015 
                  6613   ; me_wnd.c 1016 
                  6614   ; me_wnd.c 1017 int ME_PasswordValidation( HWND hWnd, int Msg, int Type, char* Password, char* 
                         NewPass )
                  6615   ; me_wnd.c 1018 {
                  6616           ?LINE   1018
                  6617           PUBLIC  _ME_PasswordValidation
               R  6618           ?SYMB   'ME_PasswordValidation',_ME_PasswordValidation,37,16
                  6619           ?SYMB   '',1018,8,34
                  6620   _ME_PasswordValidation  PROC    FAR
                  6621           ?SYMB   '',03c0H,95,0
04BC 8890         6622           MOV     [-R0],R9
               R  6623           ?SYMB   '',$,96,2
04BE 8880         6624           MOV     [-R0],R8
               R  6625           ?SYMB   '',$,96,4
04C0 8870         6626           MOV     [-R0],R7
               R  6627           ?SYMB   '',$,96,6
04C2 8860         6628           MOV     [-R0],R6
               R  6629           ?SYMB   '',$,96,8
04C4 F07F         6630           MOV     R7,R15
                  6631   ; Locals:
                  6632   ; 
                  6633   ; Statics:
                  6634   ; 
                  6635   ; CSEs:
                  6636   ;     request = R8R9
                  6637   ;     len = R6
                  6638   ;     NewPass = offset 12
                  6639   ;     retval = R12
                  6640   ;     Password = offset 8
                  6641   ;     Msg = R14
                  6642   ;     hWnd = R12R13
                  6643   ;     Type = R7
                  6644   ; 
                  6645           ?SYMB   'hWnd',6,99,394
                  6646           ?SYMB   'Msg',5,99,16
                  6647           ?SYMB   'Type',2,99,16
                  6648           ?SYMB   'Password',8,99,266
                  6649           ?SYMB   'NewPass',3,99,266
                  6650           ?SYMB   'retval',1,98,16
                  6651           ?SYMB   'len',4,98,16
                  6652           ?SYMB   'request',7,98,547
               R  6653           ?SYMB   '0',$,101,8
               R  6654           ?SYMB   'R12R13',$,100,6
               R  6655           ?SYMB   'R14',$,100,5
               R  6656           ?SYMB   '4',$,101,3
               R  6657           ?SYMB   'R7',$,100,2
                  6658   ; me_wnd.c 1019         int retval = 0, len;
                  6659   ; me_wnd.c 1020         struct ME_REQUEST_WIN * request;
                  6660   ; me_wnd.c 1021 
                  6661   ; me_wnd.c 1022         if ( Password == NULL )
                  6662           ?LINE   1022
04C6 D4F00800     6663           MOV     R15,[R0+#08H]
04CA D4100A00     6664           MOV     R1,[R0+#0AH]
04CE 70F1         6665           OR      R15,R1
04D0 2D0F         6666           JMPR    cc_Z,_256
                  6667   ; me_wnd.c 1023                 return -1;
                  6668   ; me_wnd.c 1024 
                  6669   ; me_wnd.c 1025         request = FindRequestStruct( -1 );
                  6670           ?LINE   1025
04D2 F06C         6671           MOV     R6,R12
04D4 88D0         6672           MOV     [-R0],R13
               R  6673           ?SYMB   '',$,96,10
04D6 88E0         6674           MOV     [-R0],R14
               R  6675           ?SYMB   '',$,96,12
04D8 E6FCFFFF     6676           MOV     R12,#0FFFFh
               R  6677           ?SYMB   '',$,102,6
04DC DA000000  R  6678           CALLS   SEG _FindRequestStruct,_FindRequestStruct
               R  6679           ?SYMB   '',$,102,5
04E0 F084         6680           MOV     R8,R4
04E2 F095         6681           MOV     R9,R5
               R  6682           ?SYMB   'R8R9',$,100,7
04E4 98E0         6683           MOV     R14,[R0+]
               R  6684           ?SYMB   '',$,96,10
               R  6685           ?SYMB   'R14',$,100,5
04E6 98D0         6686           MOV     R13,[R0+]
               R  6687           ?SYMB   '',$,96,8
04E8 F0C6         6688           MOV     R12,R6
               R  6689           ?SYMB   'R12R13',$,100,6
                  6690   ; me_wnd.c 1026         if ( NULL == request )
                  6691           ?LINE   1026
04EA F069         6692           MOV     R6,R9
04EC 7068         6693           OR      R6,R8
04EE 3D04         6694           JMPR    cc_NZ,_257
               R  6695           ?SYMB   '',$,102,8
               R  6696           ?SYMB   '',$,102,3
                  6697   ; me_wnd.c 1027                 return -1;
                  6698           ?LINE   1027
04F0              6699   _256:
               R  6700           ?SYMB   '',$,102,2
               R  6701           ?SYMB   '',$,102,7
               R  6702           ?SYMB   '',$,102,5
               R  6703           ?SYMB   '',$,102,6
04F0 E6F4FFFF     6704           MOV     R4,#0FFFFh
04F4 EA00B805  R  6705           JMPA    cc_UC,_261
04F8              6706   _257:
               R  6707           ?SYMB   '0',$,101,8
               R  6708           ?SYMB   'R8R9',$,100,7
               R  6709           ?SYMB   'R12R13',$,100,6
               R  6710           ?SYMB   'R14',$,100,5
               R  6711           ?SYMB   '4',$,101,3
               R  6712           ?SYMB   'R7',$,100,2
                  6713   ; me_wnd.c 1028 
                  6714   ; me_wnd.c 1029     request->hWnd = hWnd;
                  6715           ?LINE   1029
04F8 DC59         6716           EXTP    R9,#02h
04FA C4C83C01 2   6717           MOV     [R8+#013CH],R12
04FE C4D83E01 1   6718           MOV     [R8+#013EH],R13
                  6719   ; me_wnd.c 1030     request->message = Msg;
                  6720           ?LINE   1030
0502 DC49         6721           EXTP    R9,#01h
0504 C4E84001 1   6722           MOV     [R8+#0140H],R14
                  6723   ; me_wnd.c 1031 
                  6724   ; me_wnd.c 1032         len = strlen( Password );
                  6725           ?LINE   1032
0508 D4C00800     6726           MOV     R12,[R0+#08H]
               R  6727           ?SYMB   '',$,102,6
050C D4D00A00     6728           MOV     R13,[R0+#0AH]
0510 DA000000  R  6729           CALLS   SEG _strlen,_strlen
               R  6730           ?SYMB   '',$,102,5
0514 F064         6731           MOV     R6,R4
               R  6732           ?SYMB   'R6',$,100,4
                  6733   ; me_wnd.c 1033         strcpy( request->cmddata, Password );
                  6734           ?LINE   1033
0516 F0C8         6735           MOV     R12,R8
0518 F0D9         6736           MOV     R13,R9
051A 06FC2200     6737           ADD     R12,#022h
051E D4E00800     6738           MOV     R14,[R0+#08H]
0522 D4F00A00     6739           MOV     R15,[R0+#0AH]
0526 DA000000  R  6740           CALLS   SEG _strcpy,_strcpy
                  6741   ; me_wnd.c 1034         if ( NewPass != NULL )
                  6742           ?LINE   1034
052A D4C00C00     6743           MOV     R12,[R0+#0CH]
052E D4D00E00     6744           MOV     R13,[R0+#0EH]
0532 70CD         6745           OR      R12,R13
0534 2D11         6746           JMPR    cc_Z,_258
                  6747   ; me_wnd.c 1035                 memcpy( &request->cmddata[len+1], NewPass, strlen(NewPass) );
                  6748           ?LINE   1035
0536 D4C00C00     6749           MOV     R12,[R0+#0CH]
053A DA000000  R  6750           CALLS   SEG _strlen,_strlen
053E 8840         6751           MOV     [-R0],R4
               R  6752           ?SYMB   '',$,96,10
0540 F0C8         6753           MOV     R12,R8
0542 F0D9         6754           MOV     R13,R9
0544 06FC2300     6755           ADD     R12,#023h
0548 00C6         6756           ADD     R12,R6
054A D4E00E00     6757           MOV     R14,[R0+#0EH]
054E D4F01000     6758           MOV     R15,[R0+#010H]
0552 DA000000  R  6759           CALLS   SEG _memcpy,_memcpy
0556 0802         6760           ADD     R0,#02h
               R  6761           ?SYMB   '',$,96,8
0558              6762   _258:
                  6763   ; me_wnd.c 1036 
                  6764   ; me_wnd.c 1037     /* Fill the request */
                  6765   ; me_wnd.c 1038         request->request.cmddata = request->cmddata;
                  6766           ?LINE   1038
0558 F0C8         6767           MOV     R12,R8
055A F0D9         6768           MOV     R13,R9
055C 06FC2200     6769           ADD     R12,#022h
0560 DC59         6770           EXTP    R9,#02h
0562 C4C80800 2   6771           MOV     [R8+#08H],R12
0566 C4D80A00 1   6772           MOV     [R8+#0AH],R13
                  6773   ; me_wnd.c 1039         if ( NewPass != NULL )
                  6774           ?LINE   1039
056A D4C00C00     6775           MOV     R12,[R0+#0CH]
056E D4D00E00     6776           MOV     R13,[R0+#0EH]
0572 70CD         6777           OR      R12,R13
0574 2D0A         6778           JMPR    cc_Z,_259
                  6779   ; me_wnd.c 1040                 request->request.cmddata_len = len + strlen(NewPass) + 1;
                  6780           ?LINE   1040
0576 D4C00C00     6781           MOV     R12,[R0+#0CH]
057A DA000000  R  6782           CALLS   SEG _strlen,_strlen
057E 0064         6783           ADD     R6,R4
               R  6784           ?SYMB   '',$,102,4
0580 0861         6785           ADD     R6,#01h
0582 DC49         6786           EXTP    R9,#01h
0584 C4680C00 1   6787           MOV     [R8+#0CH],R6
0588 0D03         6788           JMPR    cc_UC,_260
058A              6789   _259:
               R  6790           ?SYMB   'R6',$,100,4
                  6791   ; me_wnd.c 1041         else
                  6792   ; me_wnd.c 1042                 request->request.cmddata_len = len;
                  6793           ?LINE   1042
058A DC49         6794           EXTP    R9,#01h
058C C4680C00 1   6795           MOV     [R8+#0CH],R6
0590              6796   _260:
               R  6797           ?SYMB   '',$,102,4
                  6798   ; me_wnd.c 1043 
                  6799   ; me_wnd.c 1044         request->request.arg1 = Type;
                  6800   ; me_wnd.c 1045 
                  6801   ; me_wnd.c 1046         request->request.cmd = ME_PASS_VALID;
                  6802           ?LINE   1046
0590 E6F62600     6803           MOV     R6,#026h
                  6804           ?LINE   1044
0594 DC59         6805           EXTP    R9,#02h
0596 C4780200 2   6806           MOV     [R8+#02H],R7
                  6807           ?LINE   1046
059A B868     1   6808           MOV     [R8],R6
                  6809   ; me_wnd.c 1047     request->request.reply = ME_WndCallback;
                  6810           ?LINE   1047
059C E6F70000  R  6811           MOV     R7,#SOF _ME_WndCallback
               R  6812           ?SYMB   '',$,102,2
05A0 E6FC0000  R  6813           MOV     R12,#SEG _ME_WndCallback
05A4 DC59         6814           EXTP    R9,#02h
05A6 C4780E00 2   6815           MOV     [R8+#0EH],R7
05AA C4C81000 1   6816           MOV     [R8+#010H],R12
                  6817   ; me_wnd.c 1048 
                  6818   ; me_wnd.c 1049         retval = ME_Request( &(request->request) );
                  6819           ?LINE   1049
05AE F0C8         6820           MOV     R12,R8
05B0 F0D9         6821           MOV     R13,R9
05B2 DA000000  R  6822           CALLS   SEG _ME_Request,_ME_Request
               R  6823           ?SYMB   '',$,102,7
05B6 F0C4         6824           MOV     R12,R4
               R  6825           ?SYMB   'R12',$,100,1
                  6826   ; me_wnd.c 1050 
                  6827   ; me_wnd.c 1051         return retval;
                  6828   ; me_wnd.c 1052 }
                  6829           ?LINE   1052
05B8              6830   _261:
               R  6831           ?SYMB   '',$,102,1
05B8 9860         6832           MOV     R6,[R0+]
               R  6833           ?SYMB   '',$,96,6
05BA 9870         6834           MOV     R7,[R0+]
               R  6835           ?SYMB   '',$,96,4
05BC 9880         6836           MOV     R8,[R0+]
               R  6837           ?SYMB   '',$,96,2
05BE 9890         6838           MOV     R9,[R0+]
               R  6839           ?SYMB   '',$,96,0
05C0 DB00         6840           RETS
                  6841   _ME_PasswordValidation  ENDP
               R  6842           ?SYMB   '',$,17,1052
                  6843   ; me_wnd.c 1053 
                  6844   ; me_wnd.c 1054 int ME_GetCurWaitingPassword( HWND hWnd, int Msg )
                  6845   ; me_wnd.c 1055 {
                  6846           ?LINE   1055
                  6847           PUBLIC  _ME_GetCurWaitingPassword
               R  6848           ?SYMB   'ME_GetCurWaitingPassword',_ME_GetCurWaitingPassword,37,16
                  6849           ?SYMB   '',1055,8,34
                  6850   _ME_GetCurWaitingPassword       PROC    FAR
                  6851           ?SYMB   '',0300H,95,0
05C2 8890         6852           MOV     [-R0],R9
               R  6853           ?SYMB   '',$,96,2
05C4 8880         6854           MOV     [-R0],R8
               R  6855           ?SYMB   '',$,96,4
                  6856   ; Locals:
                  6857   ; 
                  6858   ; Statics:
                  6859   ; 
                  6860   ; CSEs:
                  6861   ;     request = R8R9
                  6862   ;     retval = R12
                  6863   ;     hWnd = R12R13
                  6864   ;     Msg = R14
                  6865   ; 
                  6866           ?SYMB   'hWnd',3,99,394
                  6867           ?SYMB   'Msg',2,99,16
                  6868           ?SYMB   'retval',1,98,16
                  6869           ?SYMB   'request',4,98,547
               R  6870           ?SYMB   'R12R13',$,100,3
               R  6871           ?SYMB   'R14',$,100,2
                  6872   ; me_wnd.c 1056         int retval = 0;
                  6873   ; me_wnd.c 1057         struct ME_REQUEST_WIN * request;
                  6874   ; me_wnd.c 1058 
                  6875   ; me_wnd.c 1059         request = FindRequestStruct( -1 );
                  6876           ?LINE   1059
05C6 88C0         6877           MOV     [-R0],R12
               R  6878           ?SYMB   '',$,96,6
05C8 88D0         6879           MOV     [-R0],R13
               R  6880           ?SYMB   '',$,96,8
05CA 88E0         6881           MOV     [-R0],R14
               R  6882           ?SYMB   '',$,96,10
05CC E6FCFFFF     6883           MOV     R12,#0FFFFh
               R  6884           ?SYMB   '',$,102,3
05D0 DA000000  R  6885           CALLS   SEG _FindRequestStruct,_FindRequestStruct
               R  6886           ?SYMB   '',$,102,2
05D4 F084         6887           MOV     R8,R4
05D6 F095         6888           MOV     R9,R5
               R  6889           ?SYMB   'R8R9',$,100,4
05D8 98E0         6890           MOV     R14,[R0+]
               R  6891           ?SYMB   '',$,96,8
               R  6892           ?SYMB   'R14',$,100,2
05DA 98D0         6893           MOV     R13,[R0+]
               R  6894           ?SYMB   '',$,96,6
05DC 98C0         6895           MOV     R12,[R0+]
               R  6896           ?SYMB   '',$,96,4
               R  6897           ?SYMB   'R12R13',$,100,3
                  6898   ; me_wnd.c 1060         if ( NULL == request )
                  6899           ?LINE   1060
05DE F0F9         6900           MOV     R15,R9
05E0 70F8         6901           OR      R15,R8
05E2 3D03         6902           JMPR    cc_NZ,_264
                  6903   ; me_wnd.c 1061                 return -1;
                  6904           ?LINE   1061
05E4 E6F4FFFF     6905           MOV     R4,#0FFFFh
05E8 0D19         6906           JMPR    cc_UC,_265
05EA              6907   _264:
               R  6908           ?SYMB   '',$,102,4
               R  6909           ?SYMB   '',$,102,2
               R  6910           ?SYMB   '',$,102,3
               R  6911           ?SYMB   'R8R9',$,100,4
               R  6912           ?SYMB   'R12R13',$,100,3
               R  6913           ?SYMB   'R14',$,100,2
                  6914   ; me_wnd.c 1062 
                  6915   ; me_wnd.c 1063     request->hWnd = hWnd;
                  6916           ?LINE   1063
05EA DC59         6917           EXTP    R9,#02h
05EC C4C83C01 2   6918           MOV     [R8+#013CH],R12
05F0 C4D83E01 1   6919           MOV     [R8+#013EH],R13
                  6920   ; me_wnd.c 1064     request->message = Msg;
                  6921   ; me_wnd.c 1065 
                  6922   ; me_wnd.c 1066     /* Fill the request */
                  6923   ; me_wnd.c 1067         request->request.cmd = ME_GET_PASS;
                  6924           ?LINE   1067
05F4 E6FC2700     6925           MOV     R12,#027h
                  6926           ?LINE   1064
05F8 DC59         6927           EXTP    R9,#02h
05FA C4E84001 2   6928           MOV     [R8+#0140H],R14
               R  6929           ?SYMB   '',$,102,3
                  6930           ?LINE   1067
05FE B8C8     1   6931           MOV     [R8],R12
                  6932   ; me_wnd.c 1068     request->request.reply = ME_WndCallback;
                  6933           ?LINE   1068
0600 E6FD0000  R  6934           MOV     R13,#SOF _ME_WndCallback
0604 E6FE0000  R  6935           MOV     R14,#SEG _ME_WndCallback
               R  6936           ?SYMB   '',$,102,2
0608 DC59         6937           EXTP    R9,#02h
060A C4D80E00 2   6938           MOV     [R8+#0EH],R13
060E C4E81000 1   6939           MOV     [R8+#010H],R14
                  6940   ; me_wnd.c 1069         retval = ME_Request( &(request->request) );
                  6941           ?LINE   1069
0612 F0C8         6942           MOV     R12,R8
0614 F0D9         6943           MOV     R13,R9
0616 DA000000  R  6944           CALLS   SEG _ME_Request,_ME_Request
               R  6945           ?SYMB   '',$,102,4
061A F0C4         6946           MOV     R12,R4
               R  6947           ?SYMB   'R12',$,100,1
                  6948   ; me_wnd.c 1070 
                  6949   ; me_wnd.c 1071         return retval;
                  6950   ; me_wnd.c 1072 }
                  6951           ?LINE   1072
061C              6952   _265:
               R  6953           ?SYMB   '',$,102,1
061C 9880         6954           MOV     R8,[R0+]
               R  6955           ?SYMB   '',$,96,2
061E 9890         6956           MOV     R9,[R0+]
               R  6957           ?SYMB   '',$,96,0
0620 DB00         6958           RETS
                  6959   _ME_GetCurWaitingPassword       ENDP
               R  6960           ?SYMB   '',$,17,1072
                  6961   ; me_wnd.c 1073 
                  6962   ; me_wnd.c 1074 int ME_GetPassInputLimit( HWND hWnd, int Msg, int Type )
                  6963   ; me_wnd.c 1075 {
                  6964           ?LINE   1075
                  6965           PUBLIC  _ME_GetPassInputLimit
               R  6966           ?SYMB   'ME_GetPassInputLimit',_ME_GetPassInputLimit,37,16
                  6967           ?SYMB   '',1075,8,34
                  6968   _ME_GetPassInputLimit   PROC    FAR
                  6969           ?SYMB   '',0300H,95,0
0622 8890         6970           MOV     [-R0],R9
               R  6971           ?SYMB   '',$,96,2
0624 8880         6972           MOV     [-R0],R8
               R  6973           ?SYMB   '',$,96,4
                  6974   ; Locals:
                  6975   ; 
                  6976   ; Statics:
                  6977   ; 
                  6978   ; CSEs:
                  6979   ;     request = R8R9
                  6980   ;     retval = R12
                  6981   ;     Msg = R14
                  6982   ;     Type = R15
                  6983   ;     hWnd = R12R13
                  6984   ; 
                  6985           ?SYMB   'hWnd',4,99,394
                  6986           ?SYMB   'Msg',3,99,16
                  6987           ?SYMB   'Type',2,99,16
                  6988           ?SYMB   'retval',1,98,16
                  6989           ?SYMB   'request',5,98,547
               R  6990           ?SYMB   'R12R13',$,100,4
               R  6991           ?SYMB   'R14',$,100,3
               R  6992           ?SYMB   'R15',$,100,2
                  6993   ; me_wnd.c 1076         int retval = 0;
                  6994   ; me_wnd.c 1077         struct ME_REQUEST_WIN * request;
                  6995   ; me_wnd.c 1078 
                  6996   ; me_wnd.c 1079         request = FindRequestStruct( -1 );
                  6997           ?LINE   1079
0626 88C0         6998           MOV     [-R0],R12
               R  6999           ?SYMB   '',$,96,6
0628 88D0         7000           MOV     [-R0],R13
               R  7001           ?SYMB   '',$,96,8
062A 88E0         7002           MOV     [-R0],R14
               R  7003           ?SYMB   '',$,96,10
062C 88F0         7004           MOV     [-R0],R15
               R  7005           ?SYMB   '',$,96,12
062E E6FCFFFF     7006           MOV     R12,#0FFFFh
               R  7007           ?SYMB   '',$,102,4
0632 DA000000  R  7008           CALLS   SEG _FindRequestStruct,_FindRequestStruct
               R  7009           ?SYMB   '',$,102,3
               R  7010           ?SYMB   '',$,102,2
0636 F084         7011           MOV     R8,R4
0638 F095         7012           MOV     R9,R5
               R  7013           ?SYMB   'R8R9',$,100,5
063A 98F0         7014           MOV     R15,[R0+]
               R  7015           ?SYMB   '',$,96,10
               R  7016           ?SYMB   'R15',$,100,2
063C 98E0         7017           MOV     R14,[R0+]
               R  7018           ?SYMB   '',$,96,8
               R  7019           ?SYMB   'R14',$,100,3
063E 98D0         7020           MOV     R13,[R0+]
               R  7021           ?SYMB   '',$,96,6
0640 98C0         7022           MOV     R12,[R0+]
               R  7023           ?SYMB   '',$,96,4
               R  7024           ?SYMB   'R12R13',$,100,4
                  7025   ; me_wnd.c 1080         if ( NULL == request )
                  7026           ?LINE   1080
0642 F019         7027           MOV     R1,R9
0644 7018         7028           OR      R1,R8
0646 3D03         7029           JMPR    cc_NZ,_268
                  7030   ; me_wnd.c 1081                 return -1;
                  7031           ?LINE   1081
0648 E6F4FFFF     7032           MOV     R4,#0FFFFh
064C 0D1C         7033           JMPR    cc_UC,_269
064E              7034   _268:
               R  7035           ?SYMB   '',$,102,5
               R  7036           ?SYMB   '',$,102,2
               R  7037           ?SYMB   '',$,102,3
               R  7038           ?SYMB   '',$,102,4
               R  7039           ?SYMB   'R8R9',$,100,5
               R  7040           ?SYMB   'R12R13',$,100,4
               R  7041           ?SYMB   'R14',$,100,3
               R  7042           ?SYMB   'R15',$,100,2
                  7043   ; me_wnd.c 1082 
                  7044   ; me_wnd.c 1083     request->hWnd = hWnd;
                  7045           ?LINE   1083
064E DC59         7046           EXTP    R9,#02h
0650 C4C83C01 2   7047           MOV     [R8+#013CH],R12
0654 C4D83E01 1   7048           MOV     [R8+#013EH],R13
                  7049   ; me_wnd.c 1084     request->message = Msg;
                  7050   ; me_wnd.c 1085 
                  7051   ; me_wnd.c 1086     /* Fill the request */
                  7052   ; me_wnd.c 1087         request->request.cmd = ME_PASS_REMAIN;
                  7053           ?LINE   1087
0658 E6FC2800     7054           MOV     R12,#028h
                  7055           ?LINE   1084
065C DC59         7056           EXTP    R9,#02h
065E C4E84001 2   7057           MOV     [R8+#0140H],R14
               R  7058           ?SYMB   '',$,102,4
                  7059           ?LINE   1087
0662 B8C8     1   7060           MOV     [R8],R12
                  7061   ; me_wnd.c 1088     request->request.reply = ME_WndCallback;
                  7062           ?LINE   1088
0664 E6FD0000  R  7063           MOV     R13,#SOF _ME_WndCallback
0668 E6FE0000  R  7064           MOV     R14,#SEG _ME_WndCallback
               R  7065           ?SYMB   '',$,102,3
066C DC59         7066           EXTP    R9,#02h
066E C4D80E00 2   7067           MOV     [R8+#0EH],R13
0672 C4E81000 1   7068           MOV     [R8+#010H],R14
                  7069   ; me_wnd.c 1089         request->request.arg1 = Type;
                  7070           ?LINE   1089
0676 DC49         7071           EXTP    R9,#01h
0678 C4F80200 1   7072           MOV     [R8+#02H],R15
                  7073   ; me_wnd.c 1090 
                  7074   ; me_wnd.c 1091         retval = ME_Request( &(request->request) );
                  7075           ?LINE   1091
067C F0C8         7076           MOV     R12,R8
067E F0D9         7077           MOV     R13,R9
0680 DA000000  R  7078           CALLS   SEG _ME_Request,_ME_Request
               R  7079           ?SYMB   '',$,102,5
               R  7080           ?SYMB   '',$,102,2
0684 F0C4         7081           MOV     R12,R4
               R  7082           ?SYMB   'R12',$,100,1
                  7083   ; me_wnd.c 1092 
                  7084   ; me_wnd.c 1093         return retval;
                  7085   ; me_wnd.c 1094 }
                  7086           ?LINE   1094
0686              7087   _269:
               R  7088           ?SYMB   '',$,102,1
0686 9880         7089           MOV     R8,[R0+]
               R  7090           ?SYMB   '',$,96,2
0688 9890         7091           MOV     R9,[R0+]
               R  7092           ?SYMB   '',$,96,0
068A DB00         7093           RETS
                  7094   _ME_GetPassInputLimit   ENDP
               R  7095           ?SYMB   '',$,17,1094
                  7096   ; me_wnd.c 1095 
                  7097   ; me_wnd.c 1096 int ME_SetOpratorMode( HWND hWnd, int Msg, int Mode, char* OperId )
                  7098   ; me_wnd.c 1097 {
                  7099           ?LINE   1097
                  7100           PUBLIC  _ME_SetOpratorMode
               R  7101           ?SYMB   'ME_SetOpratorMode',_ME_SetOpratorMode,37,16
                  7102           ?SYMB   '',1097,8,34
                  7103   _ME_SetOpratorMode      PROC    FAR
                  7104           ?SYMB   '',03c0H,95,0
068C 8890         7105           MOV     [-R0],R9
               R  7106           ?SYMB   '',$,96,2
068E 8880         7107           MOV     [-R0],R8
               R  7108           ?SYMB   '',$,96,4
0690 8870         7109           MOV     [-R0],R7
               R  7110           ?SYMB   '',$,96,6
0692 8860         7111           MOV     [-R0],R6
               R  7112           ?SYMB   '',$,96,8
0694 88F0         7113           MOV     [-R0],R15
               R  7114           ?SYMB   '',$,96,10
0696 D4700C00     7115           MOV     R7,[R0+#0CH]
069A D4600A00     7116           MOV     R6,[R0+#0AH]
                  7117   ; Locals:
                  7118   ; 
                  7119   ; Statics:
                  7120   ; 
                  7121   ; CSEs:
                  7122   ;     request = R8R9
                  7123   ;     OperId = R6R7
                  7124   ;     retval = R12
                  7125   ;     Msg = R14
                  7126   ;     Mode = offset 0
                  7127   ;     hWnd = R12R13
                  7128   ; 
                  7129           ?SYMB   'hWnd',5,99,394
                  7130           ?SYMB   'Msg',4,99,16
                  7131           ?SYMB   'Mode',2,99,16
                  7132           ?SYMB   'OperId',3,99,266
                  7133           ?SYMB   'retval',1,98,16
                  7134           ?SYMB   'request',6,98,547
               R  7135           ?SYMB   'R12R13',$,100,5
               R  7136           ?SYMB   'R14',$,100,4
               R  7137           ?SYMB   'R6R7',$,100,3
               R  7138           ?SYMB   '-a',$,101,2
                  7139   ; me_wnd.c 1098         int retval = 0;
                  7140   ; me_wnd.c 1099         struct ME_REQUEST_WIN * request;
                  7141   ; me_wnd.c 1100 
                  7142   ; me_wnd.c 1101         request = FindRequestStruct( -1 );
                  7143           ?LINE   1101
069E 88C0         7144           MOV     [-R0],R12
               R  7145           ?SYMB   '',$,96,12
06A0 88D0         7146           MOV     [-R0],R13
               R  7147           ?SYMB   '',$,96,14
06A2 88E0         7148           MOV     [-R0],R14
               R  7149           ?SYMB   '',$,96,16
06A4 E6FCFFFF     7150           MOV     R12,#0FFFFh
               R  7151           ?SYMB   '',$,102,5
06A8 DA000000  R  7152           CALLS   SEG _FindRequestStruct,_FindRequestStruct
               R  7153           ?SYMB   '',$,102,4
06AC F084         7154           MOV     R8,R4
06AE F095         7155           MOV     R9,R5
               R  7156           ?SYMB   'R8R9',$,100,6
06B0 98E0         7157           MOV     R14,[R0+]
               R  7158           ?SYMB   '',$,96,14
               R  7159           ?SYMB   'R14',$,100,4
06B2 98D0         7160           MOV     R13,[R0+]
               R  7161           ?SYMB   '',$,96,12
06B4 98C0         7162           MOV     R12,[R0+]
               R  7163           ?SYMB   '',$,96,10
               R  7164           ?SYMB   'R12R13',$,100,5
                  7165   ; me_wnd.c 1102         if ( NULL == request )
                  7166           ?LINE   1102
06B6 F0F9         7167           MOV     R15,R9
06B8 70F8         7168           OR      R15,R8
06BA 3D04         7169           JMPR    cc_NZ,_274
               R  7170           ?SYMB   '',$,102,2
                  7171   ; me_wnd.c 1103                 return -1;
                  7172           ?LINE   1103
06BC E6F4FFFF     7173           MOV     R4,#0FFFFh
06C0 EA004407  R  7174           JMPA    cc_UC,_277
06C4              7175   _274:
               R  7176           ?SYMB   '',$,102,3
               R  7177           ?SYMB   '',$,102,6
               R  7178           ?SYMB   '',$,102,4
               R  7179           ?SYMB   '',$,102,5
               R  7180           ?SYMB   'R8R9',$,100,6
               R  7181           ?SYMB   'R12R13',$,100,5
               R  7182           ?SYMB   'R14',$,100,4
               R  7183           ?SYMB   'R6R7',$,100,3
               R  7184           ?SYMB   '-a',$,101,2
                  7185   ; me_wnd.c 1104 
                  7186   ; me_wnd.c 1105     request->hWnd = hWnd;
                  7187           ?LINE   1105
06C4 DC59         7188           EXTP    R9,#02h
06C6 C4C83C01 2   7189           MOV     [R8+#013CH],R12
06CA C4D83E01 1   7190           MOV     [R8+#013EH],R13
                  7191   ; me_wnd.c 1106     request->message = Msg;
                  7192           ?LINE   1106
06CE DC49         7193           EXTP    R9,#01h
06D0 C4E84001 1   7194           MOV     [R8+#0140H],R14
                  7195   ; me_wnd.c 1107 
                  7196   ; me_wnd.c 1108         if ( OperId != NULL )
                  7197           ?LINE   1108
06D4 F0C7         7198           MOV     R12,R7
               R  7199           ?SYMB   '',$,102,5
06D6 70C6         7200           OR      R12,R6
06D8 2D19         7201           JMPR    cc_Z,_275
                  7202   ; me_wnd.c 1109         {
                  7203   ; me_wnd.c 1110                 strcpy( request->cmddata, OperId );
                  7204           ?LINE   1110
06DA F0C8         7205           MOV     R12,R8
06DC F0D9         7206           MOV     R13,R9
06DE 06FC2200     7207           ADD     R12,#022h
06E2 F0E6         7208           MOV     R14,R6
               R  7209           ?SYMB   '',$,102,4
06E4 F0F7         7210           MOV     R15,R7
06E6 DA000000  R  7211           CALLS   SEG _strcpy,_strcpy
                  7212   ; me_wnd.c 1111                 request->request.cmddata = request->cmddata;
                  7213           ?LINE   1111
06EA F0C8         7214           MOV     R12,R8
06EC F0D9         7215           MOV     R13,R9
06EE 06FC2200     7216           ADD     R12,#022h
06F2 DC59         7217           EXTP    R9,#02h
06F4 C4C80800 2   7218           MOV     [R8+#08H],R12
06F8 C4D80A00 1   7219           MOV     [R8+#0AH],R13
                  7220   ; me_wnd.c 1112                 request->request.cmddata_len = strlen( OperId);
                  7221           ?LINE   1112
06FC F0C6         7222           MOV     R12,R6
06FE F0D7         7223           MOV     R13,R7
0700 DA000000  R  7224           CALLS   SEG _strlen,_strlen
               R  7225           ?SYMB   '',$,102,3
0704 DC49         7226           EXTP    R9,#01h
0706 C4480C00 1   7227           MOV     [R8+#0CH],R4
                  7228   ; me_wnd.c 1113         }
                  7229           ?LINE   1113
070A 0D07         7230           JMPR    cc_UC,_276
070C              7231   _275:
                  7232   ; me_wnd.c 1114         else
                  7233   ; me_wnd.c 1115                 request->request.cmddata = NULL;
                  7234           ?LINE   1115
070C E006         7235           MOV     R6,#00h
070E E007         7236           MOV     R7,#00h
0710 DC59         7237           EXTP    R9,#02h
0712 C4680800 2   7238           MOV     [R8+#08H],R6
0716 C4780A00 1   7239           MOV     [R8+#0AH],R7
071A              7240   _276:
                  7241   ; me_wnd.c 1116 
                  7242   ; me_wnd.c 1117     /* Fill the request */
                  7243   ; me_wnd.c 1118         request->request.arg1 = Mode;
                  7244           ?LINE   1118
071A A860         7245           MOV     R6,[R0]
                  7246   ; me_wnd.c 1119 
                  7247   ; me_wnd.c 1120         request->request.cmd = ME_SET_OPRATOR;
                  7248           ?LINE   1120
071C E6F72900     7249           MOV     R7,#029h
                  7250           ?LINE   1118
0720 DC59         7251           EXTP    R9,#02h
0722 C4680200 2   7252           MOV     [R8+#02H],R6
                  7253           ?LINE   1120
0726 B878     1   7254           MOV     [R8],R7
                  7255   ; me_wnd.c 1121     request->request.reply = ME_WndCallback;
                  7256           ?LINE   1121
0728 E6FC0000  R  7257           MOV     R12,#SOF _ME_WndCallback
072C E6FD0000  R  7258           MOV     R13,#SEG _ME_WndCallback
0730 DC59         7259           EXTP    R9,#02h
0732 C4C80E00 2   7260           MOV     [R8+#0EH],R12
0736 C4D81000 1   7261           MOV     [R8+#010H],R13
                  7262   ; me_wnd.c 1122 
                  7263   ; me_wnd.c 1123         retval = ME_Request( &(request->request) );
                  7264           ?LINE   1123
073A F0C8         7265           MOV     R12,R8
073C F0D9         7266           MOV     R13,R9
073E DA000000  R  7267           CALLS   SEG _ME_Request,_ME_Request
               R  7268           ?SYMB   '',$,102,6
0742 F0C4         7269           MOV     R12,R4
               R  7270           ?SYMB   'R12',$,100,1
                  7271   ; me_wnd.c 1124 
                  7272   ; me_wnd.c 1125         return retval;
                  7273   ; me_wnd.c 1126 }
                  7274           ?LINE   1126
0744              7275   _277:
               R  7276           ?SYMB   '',$,102,1
0744 0802         7277           ADD     R0,#02h
               R  7278           ?SYMB   '',$,96,8
0746 9860         7279           MOV     R6,[R0+]
               R  7280           ?SYMB   '',$,96,6
0748 9870         7281           MOV     R7,[R0+]
               R  7282           ?SYMB   '',$,96,4
074A 9880         7283           MOV     R8,[R0+]
               R  7284           ?SYMB   '',$,96,2
074C 9890         7285           MOV     R9,[R0+]
               R  7286           ?SYMB   '',$,96,0
074E DB00         7287           RETS
                  7288   _ME_SetOpratorMode      ENDP
               R  7289           ?SYMB   '',$,17,1126
                  7290   ; me_wnd.c 1127 
                  7291   ; me_wnd.c 1128 int ME_GetCurOprator ( HWND hWnd, int Msg, int Format )
                  7292   ; me_wnd.c 1129 {
                  7293           ?LINE   1129
                  7294           PUBLIC  _ME_GetCurOprator
               R  7295           ?SYMB   'ME_GetCurOprator',_ME_GetCurOprator,37,16
                  7296           ?SYMB   '',1129,8,34
                  7297   _ME_GetCurOprator       PROC    FAR
                  7298           ?SYMB   '',0300H,95,0
0750 8890         7299           MOV     [-R0],R9
               R  7300           ?SYMB   '',$,96,2
0752 8880         7301           MOV     [-R0],R8
               R  7302           ?SYMB   '',$,96,4
                  7303   ; Locals:
                  7304   ; 
                  7305   ; Statics:
                  7306   ; 
                  7307   ; CSEs:
                  7308   ;     request = R8R9
                  7309   ;     retval = R12
                  7310   ;     Msg = R14
                  7311   ;     Format = R15
                  7312   ;     hWnd = R12R13
                  7313   ; 
                  7314           ?SYMB   'hWnd',4,99,394
                  7315           ?SYMB   'Msg',3,99,16
                  7316           ?SYMB   'Format',2,99,16
                  7317           ?SYMB   'retval',1,98,16
                  7318           ?SYMB   'request',5,98,547
               R  7319           ?SYMB   'R12R13',$,100,4
               R  7320           ?SYMB   'R14',$,100,3
               R  7321           ?SYMB   'R15',$,100,2
                  7322   ; me_wnd.c 1130         int retval = 0;
                  7323   ; me_wnd.c 1131         struct ME_REQUEST_WIN * request;
                  7324   ; me_wnd.c 1132 
                  7325   ; me_wnd.c 1133         request = FindRequestStruct( -1 );
                  7326           ?LINE   1133
0754 88C0         7327           MOV     [-R0],R12
               R  7328           ?SYMB   '',$,96,6
0756 88D0         7329           MOV     [-R0],R13
               R  7330           ?SYMB   '',$,96,8
0758 88E0         7331           MOV     [-R0],R14
               R  7332           ?SYMB   '',$,96,10
075A 88F0         7333           MOV     [-R0],R15
               R  7334           ?SYMB   '',$,96,12
075C E6FCFFFF     7335           MOV     R12,#0FFFFh
               R  7336           ?SYMB   '',$,102,4
0760 DA000000  R  7337           CALLS   SEG _FindRequestStruct,_FindRequestStruct
               R  7338           ?SYMB   '',$,102,3
               R  7339           ?SYMB   '',$,102,2
0764 F084         7340           MOV     R8,R4
0766 F095         7341           MOV     R9,R5
               R  7342           ?SYMB   'R8R9',$,100,5
0768 98F0         7343           MOV     R15,[R0+]
               R  7344           ?SYMB   '',$,96,10
               R  7345           ?SYMB   'R15',$,100,2
076A 98E0         7346           MOV     R14,[R0+]
               R  7347           ?SYMB   '',$,96,8
               R  7348           ?SYMB   'R14',$,100,3
076C 98D0         7349           MOV     R13,[R0+]
               R  7350           ?SYMB   '',$,96,6
076E 98C0         7351           MOV     R12,[R0+]
               R  7352           ?SYMB   '',$,96,4
               R  7353           ?SYMB   'R12R13',$,100,4
                  7354   ; me_wnd.c 1134         if ( NULL == request )
                  7355           ?LINE   1134
0770 F019         7356           MOV     R1,R9
0772 7018         7357           OR      R1,R8
0774 3D03         7358           JMPR    cc_NZ,_280
                  7359   ; me_wnd.c 1135                 return -1;
                  7360           ?LINE   1135
0776 E6F4FFFF     7361           MOV     R4,#0FFFFh
077A 0D1C         7362           JMPR    cc_UC,_281
077C              7363   _280:
               R  7364           ?SYMB   '',$,102,5
               R  7365           ?SYMB   '',$,102,2
               R  7366           ?SYMB   '',$,102,3
               R  7367           ?SYMB   '',$,102,4
               R  7368           ?SYMB   'R8R9',$,100,5
               R  7369           ?SYMB   'R12R13',$,100,4
               R  7370           ?SYMB   'R14',$,100,3
               R  7371           ?SYMB   'R15',$,100,2
                  7372   ; me_wnd.c 1136 
                  7373   ; me_wnd.c 1137     request->hWnd = hWnd;
                  7374           ?LINE   1137
077C DC59         7375           EXTP    R9,#02h
077E C4C83C01 2   7376           MOV     [R8+#013CH],R12
0782 C4D83E01 1   7377           MOV     [R8+#013EH],R13
                  7378   ; me_wnd.c 1138     request->message = Msg;
                  7379           ?LINE   1138
0786 DC59         7380           EXTP    R9,#02h
0788 C4E84001 2   7381           MOV     [R8+#0140H],R14
                  7382   ; me_wnd.c 1139 
                  7383   ; me_wnd.c 1140     /* Fill the request */
                  7384   ; me_wnd.c 1141         request->request.arg1 = Format;
                  7385           ?LINE   1141
078C C4F80200 1   7386           MOV     [R8+#02H],R15
                  7387   ; me_wnd.c 1142 
                  7388   ; me_wnd.c 1143         request->request.cmd = ME_GET_OPRATOR;
                  7389           ?LINE   1143
0790 E6FC2A00     7390           MOV     R12,#02Ah
               R  7391           ?SYMB   '',$,102,4
0794 DC49         7392           EXTP    R9,#01h
0796 B8C8     1   7393           MOV     [R8],R12
                  7394   ; me_wnd.c 1144     request->request.reply = ME_WndCallback;
                  7395           ?LINE   1144
0798 E6FD0000  R  7396           MOV     R13,#SOF _ME_WndCallback
079C E6FE0000  R  7397           MOV     R14,#SEG _ME_WndCallback
               R  7398           ?SYMB   '',$,102,3
07A0 DC59         7399           EXTP    R9,#02h
07A2 C4D80E00 2   7400           MOV     [R8+#0EH],R13
07A6 C4E81000 1   7401           MOV     [R8+#010H],R14
                  7402   ; me_wnd.c 1145 
                  7403   ; me_wnd.c 1146         retval = ME_Request( &(request->request) );
                  7404           ?LINE   1146
07AA F0C8         7405           MOV     R12,R8
07AC F0D9         7406           MOV     R13,R9
07AE DA000000  R  7407           CALLS   SEG _ME_Request,_ME_Request
               R  7408           ?SYMB   '',$,102,5
               R  7409           ?SYMB   '',$,102,2
07B2 F0C4         7410           MOV     R12,R4
               R  7411           ?SYMB   'R12',$,100,1
                  7412   ; me_wnd.c 1147 
                  7413   ; me_wnd.c 1148         return retval;
                  7414   ; me_wnd.c 1149 }
                  7415           ?LINE   1149
07B4              7416   _281:
               R  7417           ?SYMB   '',$,102,1
07B4 9880         7418           MOV     R8,[R0+]
               R  7419           ?SYMB   '',$,96,2
07B6 9890         7420           MOV     R9,[R0+]
               R  7421           ?SYMB   '',$,96,0
07B8 DB00         7422           RETS
                  7423   _ME_GetCurOprator       ENDP
               R  7424           ?SYMB   '',$,17,1149
                  7425   ; me_wnd.c 1150 
                  7426   ; me_wnd.c 1151 int ME_SearchNetOprator ( HWND hWnd, int Msg )
                  7427   ; me_wnd.c 1152 {
                  7428           ?LINE   1152
                  7429           PUBLIC  _ME_SearchNetOprator
               R  7430           ?SYMB   'ME_SearchNetOprator',_ME_SearchNetOprator,37,16
                  7431           ?SYMB   '',1152,8,34
                  7432   _ME_SearchNetOprator    PROC    FAR
                  7433           ?SYMB   '',0300H,95,0
07BA 8890         7434           MOV     [-R0],R9
               R  7435           ?SYMB   '',$,96,2
07BC 8880         7436           MOV     [-R0],R8
               R  7437           ?SYMB   '',$,96,4
                  7438   ; Locals:
                  7439   ; 
                  7440   ; Statics:
                  7441   ; 
                  7442   ; CSEs:
                  7443   ;     request = R8R9
                  7444   ;     retval = R12
                  7445   ;     hWnd = R12R13
                  7446   ;     Msg = R14
                  7447   ; 
                  7448           ?SYMB   'hWnd',3,99,394
                  7449           ?SYMB   'Msg',2,99,16
                  7450           ?SYMB   'retval',1,98,16
                  7451           ?SYMB   'request',4,98,547
               R  7452           ?SYMB   'R12R13',$,100,3
               R  7453           ?SYMB   'R14',$,100,2
                  7454   ; me_wnd.c 1153         int retval = 0;
                  7455   ; me_wnd.c 1154         struct ME_REQUEST_WIN * request;
                  7456   ; me_wnd.c 1155 
                  7457   ; me_wnd.c 1156         request = FindRequestStruct( -1 );
                  7458           ?LINE   1156
07BE 88C0         7459           MOV     [-R0],R12
               R  7460           ?SYMB   '',$,96,6
07C0 88D0         7461           MOV     [-R0],R13
               R  7462           ?SYMB   '',$,96,8
07C2 88E0         7463           MOV     [-R0],R14
               R  7464           ?SYMB   '',$,96,10
07C4 E6FCFFFF     7465           MOV     R12,#0FFFFh
               R  7466           ?SYMB   '',$,102,3
07C8 DA000000  R  7467           CALLS   SEG _FindRequestStruct,_FindRequestStruct
               R  7468           ?SYMB   '',$,102,2
07CC F084         7469           MOV     R8,R4
07CE F095         7470           MOV     R9,R5
               R  7471           ?SYMB   'R8R9',$,100,4
07D0 98E0         7472           MOV     R14,[R0+]
               R  7473           ?SYMB   '',$,96,8
               R  7474           ?SYMB   'R14',$,100,2
07D2 98D0         7475           MOV     R13,[R0+]
               R  7476           ?SYMB   '',$,96,6
07D4 98C0         7477           MOV     R12,[R0+]
               R  7478           ?SYMB   '',$,96,4
               R  7479           ?SYMB   'R12R13',$,100,3
                  7480   ; me_wnd.c 1157         if ( NULL == request )
                  7481           ?LINE   1157
07D6 F0F9         7482           MOV     R15,R9
07D8 70F8         7483           OR      R15,R8
07DA 3D03         7484           JMPR    cc_NZ,_284
                  7485   ; me_wnd.c 1158                 return -1;
                  7486           ?LINE   1158
07DC E6F4FFFF     7487           MOV     R4,#0FFFFh
07E0 0D19         7488           JMPR    cc_UC,_285
07E2              7489   _284:
               R  7490           ?SYMB   '',$,102,4
               R  7491           ?SYMB   '',$,102,2
               R  7492           ?SYMB   '',$,102,3
               R  7493           ?SYMB   'R8R9',$,100,4
               R  7494           ?SYMB   'R12R13',$,100,3
               R  7495           ?SYMB   'R14',$,100,2
                  7496   ; me_wnd.c 1159 
                  7497   ; me_wnd.c 1160     request->hWnd = hWnd;
                  7498           ?LINE   1160
07E2 DC59         7499           EXTP    R9,#02h
07E4 C4C83C01 2   7500           MOV     [R8+#013CH],R12
07E8 C4D83E01 1   7501           MOV     [R8+#013EH],R13
                  7502   ; me_wnd.c 1161     request->message = Msg;
                  7503   ; me_wnd.c 1162 
                  7504   ; me_wnd.c 1163     /* Fill the request */
                  7505   ; me_wnd.c 1164         request->request.cmd = ME_SRCH_OPRATOR;
                  7506           ?LINE   1164
07EC E6FC2B00     7507           MOV     R12,#02Bh
                  7508           ?LINE   1161
07F0 DC59         7509           EXTP    R9,#02h
07F2 C4E84001 2   7510           MOV     [R8+#0140H],R14
               R  7511           ?SYMB   '',$,102,3
                  7512           ?LINE   1164
07F6 B8C8     1   7513           MOV     [R8],R12
                  7514   ; me_wnd.c 1165     request->request.reply = ME_WndCallback;
                  7515           ?LINE   1165
07F8 E6FD0000  R  7516           MOV     R13,#SOF _ME_WndCallback
07FC E6FE0000  R  7517           MOV     R14,#SEG _ME_WndCallback
               R  7518           ?SYMB   '',$,102,2
0800 DC59         7519           EXTP    R9,#02h
0802 C4D80E00 2   7520           MOV     [R8+#0EH],R13
0806 C4E81000 1   7521           MOV     [R8+#010H],R14
                  7522   ; me_wnd.c 1166 
                  7523   ; me_wnd.c 1167         retval = ME_Request( &(request->request) );
                  7524           ?LINE   1167
080A F0C8         7525           MOV     R12,R8
080C F0D9         7526           MOV     R13,R9
080E DA000000  R  7527           CALLS   SEG _ME_Request,_ME_Request
               R  7528           ?SYMB   '',$,102,4
0812 F0C4         7529           MOV     R12,R4
               R  7530           ?SYMB   'R12',$,100,1
                  7531   ; me_wnd.c 1168 
                  7532   ; me_wnd.c 1169         return retval;
                  7533   ; me_wnd.c 1170 }
                  7534           ?LINE   1170
0814              7535   _285:
               R  7536           ?SYMB   '',$,102,1
0814 9880         7537           MOV     R8,[R0+]
               R  7538           ?SYMB   '',$,96,2
0816 9890         7539           MOV     R9,[R0+]
               R  7540           ?SYMB   '',$,96,0
0818 DB00         7541           RETS
                  7542   _ME_SearchNetOprator    ENDP
               R  7543           ?SYMB   '',$,17,1170
                  7544   ; me_wnd.c 1171 
                  7545   ; me_wnd.c 1172 int ME_ReadPrefOperList( HWND hWnd, int Msg, int BeginIndex, int EndIndex )
                  7546   ; me_wnd.c 1173 {
                  7547           ?LINE   1173
                  7548           PUBLIC  _ME_ReadPrefOperList
               R  7549           ?SYMB   'ME_ReadPrefOperList',_ME_ReadPrefOperList,37,16
                  7550           ?SYMB   '',1173,8,34
                  7551   _ME_ReadPrefOperList    PROC    FAR
                  7552           ?SYMB   '',0300H,95,0
081A 8890         7553           MOV     [-R0],R9
               R  7554           ?SYMB   '',$,96,2
081C 8880         7555           MOV     [-R0],R8
               R  7556           ?SYMB   '',$,96,4
                  7557   ; Locals:
                  7558   ; 
                  7559   ; Statics:
                  7560   ; 
                  7561   ; CSEs:
                  7562   ;     request = R8R9
                  7563   ;     retval = R12
                  7564   ;     Msg = R14
                  7565   ;     hWnd = R12R13
                  7566   ;     BeginIndex = R15
                  7567   ;     EndIndex = offset 4
                  7568   ; 
                  7569           ?SYMB   'hWnd',5,99,394
                  7570           ?SYMB   'Msg',4,99,16
                  7571           ?SYMB   'BeginIndex',3,99,16
                  7572           ?SYMB   'EndIndex',2,99,16
                  7573           ?SYMB   'retval',1,98,16
                  7574           ?SYMB   'request',6,98,547
               R  7575           ?SYMB   'R12R13',$,100,5
               R  7576           ?SYMB   'R14',$,100,4
               R  7577           ?SYMB   'R15',$,100,3
               R  7578           ?SYMB   '0',$,101,2
                  7579   ; me_wnd.c 1174         int retval = 0;
                  7580   ; me_wnd.c 1175         struct ME_REQUEST_WIN * request;
                  7581   ; me_wnd.c 1176 
                  7582   ; me_wnd.c 1177         request = FindRequestStruct( -1 );
                  7583           ?LINE   1177
081E 88C0         7584           MOV     [-R0],R12
               R  7585           ?SYMB   '',$,96,6
0820 88D0         7586           MOV     [-R0],R13
               R  7587           ?SYMB   '',$,96,8
0822 88E0         7588           MOV     [-R0],R14
               R  7589           ?SYMB   '',$,96,10
0824 88F0         7590           MOV     [-R0],R15
               R  7591           ?SYMB   '',$,96,12
0826 E6FCFFFF     7592           MOV     R12,#0FFFFh
               R  7593           ?SYMB   '',$,102,5
082A DA000000  R  7594           CALLS   SEG _FindRequestStruct,_FindRequestStruct
               R  7595           ?SYMB   '',$,102,4
               R  7596           ?SYMB   '',$,102,3
082E F084         7597           MOV     R8,R4
0830 F095         7598           MOV     R9,R5
               R  7599           ?SYMB   'R8R9',$,100,6
0832 98F0         7600           MOV     R15,[R0+]
               R  7601           ?SYMB   '',$,96,10
               R  7602           ?SYMB   'R15',$,100,3
0834 98E0         7603           MOV     R14,[R0+]
               R  7604           ?SYMB   '',$,96,8
               R  7605           ?SYMB   'R14',$,100,4
0836 98D0         7606           MOV     R13,[R0+]
               R  7607           ?SYMB   '',$,96,6
0838 98C0         7608           MOV     R12,[R0+]
               R  7609           ?SYMB   '',$,96,4
               R  7610           ?SYMB   'R12R13',$,100,5
                  7611   ; me_wnd.c 1178         if ( NULL == request )
                  7612           ?LINE   1178
083A F019         7613           MOV     R1,R9
083C 7018         7614           OR      R1,R8
083E 3D03         7615           JMPR    cc_NZ,_288
               R  7616           ?SYMB   '',$,102,2
                  7617   ; me_wnd.c 1179                 return -1;
                  7618           ?LINE   1179
0840 E6F4FFFF     7619           MOV     R4,#0FFFFh
0844 0D20         7620           JMPR    cc_UC,_289
0846              7621   _288:
               R  7622           ?SYMB   '',$,102,6
               R  7623           ?SYMB   '',$,102,3
               R  7624           ?SYMB   '',$,102,4
               R  7625           ?SYMB   '',$,102,5
               R  7626           ?SYMB   'R8R9',$,100,6
               R  7627           ?SYMB   'R12R13',$,100,5
               R  7628           ?SYMB   'R14',$,100,4
               R  7629           ?SYMB   'R15',$,100,3
               R  7630           ?SYMB   '0',$,101,2
                  7631   ; me_wnd.c 1180 
                  7632   ; me_wnd.c 1181     request->hWnd = hWnd;
                  7633           ?LINE   1181
0846 DC59         7634           EXTP    R9,#02h
0848 C4C83C01 2   7635           MOV     [R8+#013CH],R12
084C C4D83E01 1   7636           MOV     [R8+#013EH],R13
                  7637   ; me_wnd.c 1182     request->message = Msg;
                  7638           ?LINE   1182
0850 DC59         7639           EXTP    R9,#02h
0852 C4E84001 2   7640           MOV     [R8+#0140H],R14
                  7641   ; me_wnd.c 1183 
                  7642   ; me_wnd.c 1184     /* Fill the request */
                  7643   ; me_wnd.c 1185         request->request.arg1 = BeginIndex;
                  7644           ?LINE   1185
0856 C4F80200 1   7645           MOV     [R8+#02H],R15
                  7646   ; me_wnd.c 1186         request->request.arg2 = EndIndex;
                  7647           ?LINE   1186
085A D4C00400     7648           MOV     R12,[R0+#04H]
               R  7649           ?SYMB   '',$,102,5
                  7650   ; me_wnd.c 1187         request->request.cmd = ME_GET_POPRATOR;
                  7651           ?LINE   1187
085E E6FD2C00     7652           MOV     R13,#02Ch
                  7653           ?LINE   1186
0862 DC59         7654           EXTP    R9,#02h
0864 C4C80400 2   7655           MOV     [R8+#04H],R12
                  7656           ?LINE   1187
0868 B8D8     1   7657           MOV     [R8],R13
                  7658   ; me_wnd.c 1188     request->request.reply = ME_WndCallback;
                  7659           ?LINE   1188
086A E6FE0000  R  7660           MOV     R14,#SOF _ME_WndCallback
               R  7661           ?SYMB   '',$,102,4
086E E6FF0000  R  7662           MOV     R15,#SEG _ME_WndCallback
               R  7663           ?SYMB   '',$,102,3
0872 DC59         7664           EXTP    R9,#02h
0874 C4E80E00 2   7665           MOV     [R8+#0EH],R14
0878 C4F81000 1   7666           MOV     [R8+#010H],R15
                  7667   ; me_wnd.c 1189 
                  7668   ; me_wnd.c 1190         retval = ME_Request( &(request->request) );
                  7669           ?LINE   1190
087C F0C8         7670           MOV     R12,R8
087E F0D9         7671           MOV     R13,R9
0880 DA000000  R  7672           CALLS   SEG _ME_Request,_ME_Request
               R  7673           ?SYMB   '',$,102,6
0884 F0C4         7674           MOV     R12,R4
               R  7675           ?SYMB   'R12',$,100,1
                  7676   ; me_wnd.c 1191 
                  7677   ; me_wnd.c 1192         return retval;
                  7678   ; me_wnd.c 1193 }
                  7679           ?LINE   1193
0886              7680   _289:
               R  7681           ?SYMB   '',$,102,1
0886 9880         7682           MOV     R8,[R0+]
               R  7683           ?SYMB   '',$,96,2
0888 9890         7684           MOV     R9,[R0+]
               R  7685           ?SYMB   '',$,96,0
088A DB00         7686           RETS
                  7687   _ME_ReadPrefOperList    ENDP
               R  7688           ?SYMB   '',$,17,1193
                  7689   ; me_wnd.c 1194 
                  7690   ; me_wnd.c 1195 int ME_WritePrefOperList( HWND hWnd, int Msg, int index, char* oper_id )
                  7691   ; me_wnd.c 1196 {
                  7692           ?LINE   1196
                  7693           PUBLIC  _ME_WritePrefOperList
               R  7694           ?SYMB   'ME_WritePrefOperList',_ME_WritePrefOperList,37,16
                  7695           ?SYMB   '',1196,8,34
                  7696   _ME_WritePrefOperList   PROC    FAR
                  7697           ?SYMB   '',03c0H,95,0
088C 8890         7698           MOV     [-R0],R9
               R  7699           ?SYMB   '',$,96,2
088E 8880         7700           MOV     [-R0],R8
               R  7701           ?SYMB   '',$,96,4
0890 8870         7702           MOV     [-R0],R7
               R  7703           ?SYMB   '',$,96,6
0892 8860         7704           MOV     [-R0],R6
               R  7705           ?SYMB   '',$,96,8
0894 88F0         7706           MOV     [-R0],R15
               R  7707           ?SYMB   '',$,96,10
0896 D4700C00     7708           MOV     R7,[R0+#0CH]
089A D4600A00     7709           MOV     R6,[R0+#0AH]
                  7710   ; Locals:
                  7711   ; 
                  7712   ; Statics:
                  7713   ; 
                  7714   ; CSEs:
                  7715   ;     request = R8R9
                  7716   ;     oper_id = R6R7
                  7717   ;     retval = R12
                  7718   ;     Msg = R14
                  7719   ;     index = offset 0
                  7720   ;     hWnd = R12R13
                  7721   ; 
                  7722           ?SYMB   'hWnd',5,99,394
                  7723           ?SYMB   'Msg',4,99,16
                  7724           ?SYMB   'index',2,99,16
                  7725           ?SYMB   'oper_id',3,99,266
                  7726           ?SYMB   'retval',1,98,16
                  7727           ?SYMB   'request',6,98,547
               R  7728           ?SYMB   'R12R13',$,100,5
               R  7729           ?SYMB   'R14',$,100,4
               R  7730           ?SYMB   'R6R7',$,100,3
               R  7731           ?SYMB   '-a',$,101,2
                  7732   ; me_wnd.c 1197         int retval = 0;
                  7733   ; me_wnd.c 1198         struct ME_REQUEST_WIN * request;
                  7734   ; me_wnd.c 1199 
                  7735   ; me_wnd.c 1200         request = FindRequestStruct( -1 );
                  7736           ?LINE   1200
089E 88C0         7737           MOV     [-R0],R12
               R  7738           ?SYMB   '',$,96,12
08A0 88D0         7739           MOV     [-R0],R13
               R  7740           ?SYMB   '',$,96,14
08A2 88E0         7741           MOV     [-R0],R14
               R  7742           ?SYMB   '',$,96,16
08A4 E6FCFFFF     7743           MOV     R12,#0FFFFh
               R  7744           ?SYMB   '',$,102,5
08A8 DA000000  R  7745           CALLS   SEG _FindRequestStruct,_FindRequestStruct
               R  7746           ?SYMB   '',$,102,4
08AC F084         7747           MOV     R8,R4
08AE F095         7748           MOV     R9,R5
               R  7749           ?SYMB   'R8R9',$,100,6
08B0 98E0         7750           MOV     R14,[R0+]
               R  7751           ?SYMB   '',$,96,14
               R  7752           ?SYMB   'R14',$,100,4
08B2 98D0         7753           MOV     R13,[R0+]
               R  7754           ?SYMB   '',$,96,12
08B4 98C0         7755           MOV     R12,[R0+]
               R  7756           ?SYMB   '',$,96,10
               R  7757           ?SYMB   'R12R13',$,100,5
                  7758   ; me_wnd.c 1201         if ( NULL == request )
                  7759           ?LINE   1201
08B6 F0F9         7760           MOV     R15,R9
08B8 70F8         7761           OR      R15,R8
08BA 3D04         7762           JMPR    cc_NZ,_294
               R  7763           ?SYMB   '',$,102,2
                  7764   ; me_wnd.c 1202                 return -1;
                  7765           ?LINE   1202
08BC E6F4FFFF     7766           MOV     R4,#0FFFFh
08C0 EA004409  R  7767           JMPA    cc_UC,_297
08C4              7768   _294:
               R  7769           ?SYMB   '',$,102,3
               R  7770           ?SYMB   '',$,102,6
               R  7771           ?SYMB   '',$,102,4
               R  7772           ?SYMB   '',$,102,5
               R  7773           ?SYMB   'R8R9',$,100,6
               R  7774           ?SYMB   'R12R13',$,100,5
               R  7775           ?SYMB   'R14',$,100,4
               R  7776           ?SYMB   'R6R7',$,100,3
               R  7777           ?SYMB   '-a',$,101,2
                  7778   ; me_wnd.c 1203 
                  7779   ; me_wnd.c 1204     request->hWnd = hWnd;
                  7780           ?LINE   1204
08C4 DC59         7781           EXTP    R9,#02h
08C6 C4C83C01 2   7782           MOV     [R8+#013CH],R12
08CA C4D83E01 1   7783           MOV     [R8+#013EH],R13
                  7784   ; me_wnd.c 1205     request->message = Msg;
                  7785           ?LINE   1205
08CE DC49         7786           EXTP    R9,#01h
08D0 C4E84001 1   7787           MOV     [R8+#0140H],R14
                  7788   ; me_wnd.c 1206 
                  7789   ; me_wnd.c 1207 
                  7790   ; me_wnd.c 1208     /* Fill the request */
                  7791   ; me_wnd.c 1209         if ( oper_id != NULL )
                  7792           ?LINE   1209
08D4 F0C7         7793           MOV     R12,R7
               R  7794           ?SYMB   '',$,102,5
08D6 70C6         7795           OR      R12,R6
08D8 2D19         7796           JMPR    cc_Z,_295
                  7797   ; me_wnd.c 1210         {
                  7798   ; me_wnd.c 1211                 strcpy( request->cmddata, oper_id );
                  7799           ?LINE   1211
08DA F0C8         7800           MOV     R12,R8
08DC F0D9         7801           MOV     R13,R9
08DE 06FC2200     7802           ADD     R12,#022h
08E2 F0E6         7803           MOV     R14,R6
               R  7804           ?SYMB   '',$,102,4
08E4 F0F7         7805           MOV     R15,R7
08E6 DA000000  R  7806           CALLS   SEG _strcpy,_strcpy
                  7807   ; me_wnd.c 1212                 request->request.cmddata = request->cmddata;
                  7808           ?LINE   1212
08EA F0C8         7809           MOV     R12,R8
08EC F0D9         7810           MOV     R13,R9
08EE 06FC2200     7811           ADD     R12,#022h
08F2 DC59         7812           EXTP    R9,#02h
08F4 C4C80800 2   7813           MOV     [R8+#08H],R12
08F8 C4D80A00 1   7814           MOV     [R8+#0AH],R13
                  7815   ; me_wnd.c 1213                 request->request.cmddata_len = strlen(oper_id);
                  7816           ?LINE   1213
08FC F0C6         7817           MOV     R12,R6
08FE F0D7         7818           MOV     R13,R7
0900 DA000000  R  7819           CALLS   SEG _strlen,_strlen
               R  7820           ?SYMB   '',$,102,3
0904 DC49         7821           EXTP    R9,#01h
0906 C4480C00 1   7822           MOV     [R8+#0CH],R4
                  7823   ; me_wnd.c 1214         }
                  7824           ?LINE   1214
090A 0D07         7825           JMPR    cc_UC,_296
090C              7826   _295:
                  7827   ; me_wnd.c 1215         else
                  7828   ; me_wnd.c 1216                 request->request.cmddata = NULL;
                  7829           ?LINE   1216
090C E006         7830           MOV     R6,#00h
090E E007         7831           MOV     R7,#00h
0910 DC59         7832           EXTP    R9,#02h
0912 C4680800 2   7833           MOV     [R8+#08H],R6
0916 C4780A00 1   7834           MOV     [R8+#0AH],R7
091A              7835   _296:
                  7836   ; me_wnd.c 1217 
                  7837   ; me_wnd.c 1218         request->request.arg1 = index;
                  7838           ?LINE   1218
091A A860         7839           MOV     R6,[R0]
                  7840   ; me_wnd.c 1219 
                  7841   ; me_wnd.c 1220         request->request.cmd = ME_SET_OPRATOR;
                  7842           ?LINE   1220
091C E6F72900     7843           MOV     R7,#029h
                  7844           ?LINE   1218
0920 DC59         7845           EXTP    R9,#02h
0922 C4680200 2   7846           MOV     [R8+#02H],R6
                  7847           ?LINE   1220
0926 B878     1   7848           MOV     [R8],R7
                  7849   ; me_wnd.c 1221     request->request.reply = ME_WndCallback;
                  7850           ?LINE   1221
0928 E6FC0000  R  7851           MOV     R12,#SOF _ME_WndCallback
092C E6FD0000  R  7852           MOV     R13,#SEG _ME_WndCallback
0930 DC59         7853           EXTP    R9,#02h
0932 C4C80E00 2   7854           MOV     [R8+#0EH],R12
0936 C4D81000 1   7855           MOV     [R8+#010H],R13
                  7856   ; me_wnd.c 1222 
                  7857   ; me_wnd.c 1223         retval = ME_Request( &(request->request) );
                  7858           ?LINE   1223
093A F0C8         7859           MOV     R12,R8
093C F0D9         7860           MOV     R13,R9
093E DA000000  R  7861           CALLS   SEG _ME_Request,_ME_Request
               R  7862           ?SYMB   '',$,102,6
0942 F0C4         7863           MOV     R12,R4
               R  7864           ?SYMB   'R12',$,100,1
                  7865   ; me_wnd.c 1224 
                  7866   ; me_wnd.c 1225         return retval;
                  7867   ; me_wnd.c 1226 }
                  7868           ?LINE   1226
0944              7869   _297:
               R  7870           ?SYMB   '',$,102,1
0944 0802         7871           ADD     R0,#02h
               R  7872           ?SYMB   '',$,96,8
0946 9860         7873           MOV     R6,[R0+]
               R  7874           ?SYMB   '',$,96,6
0948 9870         7875           MOV     R7,[R0+]
               R  7876           ?SYMB   '',$,96,4
094A 9880         7877           MOV     R8,[R0+]
               R  7878           ?SYMB   '',$,96,2
094C 9890         7879           MOV     R9,[R0+]
               R  7880           ?SYMB   '',$,96,0
094E DB00         7881           RETS
                  7882   _ME_WritePrefOperList   ENDP
               R  7883           ?SYMB   '',$,17,1226
                  7884   ; me_wnd.c 1227 
                  7885   ; me_wnd.c 1228 int ME_GetEquipmentId ( HWND hWnd, int Msg )
                  7886   ; me_wnd.c 1229 {
                  7887           ?LINE   1229
                  7888           PUBLIC  _ME_GetEquipmentId
               R  7889           ?SYMB   'ME_GetEquipmentId',_ME_GetEquipmentId,37,16
                  7890           ?SYMB   '',1229,8,34
                  7891   _ME_GetEquipmentId      PROC    FAR
                  7892           ?SYMB   '',0300H,95,0
0950 8890         7893           MOV     [-R0],R9
               R  7894           ?SYMB   '',$,96,2
0952 8880         7895           MOV     [-R0],R8
               R  7896           ?SYMB   '',$,96,4
                  7897   ; Locals:
                  7898   ; 
                  7899   ; Statics:
                  7900   ; 
                  7901   ; CSEs:
                  7902   ;     request = R8R9
                  7903   ;     retval = R12
                  7904   ;     hWnd = R12R13
                  7905   ;     Msg = R14
                  7906   ; 
                  7907           ?SYMB   'hWnd',3,99,394
                  7908           ?SYMB   'Msg',2,99,16
                  7909           ?SYMB   'retval',1,98,16
                  7910           ?SYMB   'request',4,98,547
               R  7911           ?SYMB   'R12R13',$,100,3
               R  7912           ?SYMB   'R14',$,100,2
                  7913   ; me_wnd.c 1230         int retval = 0;
                  7914   ; me_wnd.c 1231         struct ME_REQUEST_WIN * request;
                  7915   ; me_wnd.c 1232 
                  7916   ; me_wnd.c 1233         request = FindRequestStruct( -1 );
                  7917           ?LINE   1233
0954 88C0         7918           MOV     [-R0],R12
               R  7919           ?SYMB   '',$,96,6
0956 88D0         7920           MOV     [-R0],R13
               R  7921           ?SYMB   '',$,96,8
0958 88E0         7922           MOV     [-R0],R14
               R  7923           ?SYMB   '',$,96,10
095A E6FCFFFF     7924           MOV     R12,#0FFFFh
               R  7925           ?SYMB   '',$,102,3
095E DA000000  R  7926           CALLS   SEG _FindRequestStruct,_FindRequestStruct
               R  7927           ?SYMB   '',$,102,2
0962 F084         7928           MOV     R8,R4
0964 F095         7929           MOV     R9,R5
               R  7930           ?SYMB   'R8R9',$,100,4
0966 98E0         7931           MOV     R14,[R0+]
               R  7932           ?SYMB   '',$,96,8
               R  7933           ?SYMB   'R14',$,100,2
0968 98D0         7934           MOV     R13,[R0+]
               R  7935           ?SYMB   '',$,96,6
096A 98C0         7936           MOV     R12,[R0+]
               R  7937           ?SYMB   '',$,96,4
               R  7938           ?SYMB   'R12R13',$,100,3
                  7939   ; me_wnd.c 1234         if ( NULL == request )
                  7940           ?LINE   1234
096C F0F9         7941           MOV     R15,R9
096E 70F8         7942           OR      R15,R8
0970 3D03         7943           JMPR    cc_NZ,_300
                  7944   ; me_wnd.c 1235                 return -1;
                  7945           ?LINE   1235
0972 E6F4FFFF     7946           MOV     R4,#0FFFFh
0976 0D19         7947           JMPR    cc_UC,_301
0978              7948   _300:
               R  7949           ?SYMB   '',$,102,4
               R  7950           ?SYMB   '',$,102,2
               R  7951           ?SYMB   '',$,102,3
               R  7952           ?SYMB   'R8R9',$,100,4
               R  7953           ?SYMB   'R12R13',$,100,3
               R  7954           ?SYMB   'R14',$,100,2
                  7955   ; me_wnd.c 1236 
                  7956   ; me_wnd.c 1237     request->hWnd = hWnd;
                  7957           ?LINE   1237
0978 DC59         7958           EXTP    R9,#02h
097A C4C83C01 2   7959           MOV     [R8+#013CH],R12
097E C4D83E01 1   7960           MOV     [R8+#013EH],R13
                  7961   ; me_wnd.c 1238     request->message = Msg;
                  7962   ; me_wnd.c 1239 
                  7963   ; me_wnd.c 1240     /* Fill the request */
                  7964   ; me_wnd.c 1241         request->request.cmd = ME_GET_IMEI;
                  7965           ?LINE   1241
0982 E6FC2E00     7966           MOV     R12,#02Eh
                  7967           ?LINE   1238
0986 DC59         7968           EXTP    R9,#02h
0988 C4E84001 2   7969           MOV     [R8+#0140H],R14
               R  7970           ?SYMB   '',$,102,3
                  7971           ?LINE   1241
098C B8C8     1   7972           MOV     [R8],R12
                  7973   ; me_wnd.c 1242     request->request.reply = ME_WndCallback;
                  7974           ?LINE   1242
098E E6FD0000  R  7975           MOV     R13,#SOF _ME_WndCallback
0992 E6FE0000  R  7976           MOV     R14,#SEG _ME_WndCallback
               R  7977           ?SYMB   '',$,102,2
0996 DC59         7978           EXTP    R9,#02h
0998 C4D80E00 2   7979           MOV     [R8+#0EH],R13
099C C4E81000 1   7980           MOV     [R8+#010H],R14
                  7981   ; me_wnd.c 1243 
                  7982   ; me_wnd.c 1244         retval = ME_Request( &(request->request) );
                  7983           ?LINE   1244
09A0 F0C8         7984           MOV     R12,R8
09A2 F0D9         7985           MOV     R13,R9
09A4 DA000000  R  7986           CALLS   SEG _ME_Request,_ME_Request
               R  7987           ?SYMB   '',$,102,4
09A8 F0C4         7988           MOV     R12,R4
               R  7989           ?SYMB   'R12',$,100,1
                  7990   ; me_wnd.c 1245 
                  7991   ; me_wnd.c 1246         return retval;
                  7992   ; me_wnd.c 1247 }
                  7993           ?LINE   1247
09AA              7994   _301:
               R  7995           ?SYMB   '',$,102,1
09AA 9880         7996           MOV     R8,[R0+]
               R  7997           ?SYMB   '',$,96,2
09AC 9890         7998           MOV     R9,[R0+]
               R  7999           ?SYMB   '',$,96,0
09AE DB00         8000           RETS
                  8001   _ME_GetEquipmentId      ENDP
               R  8002           ?SYMB   '',$,17,1247
                  8003   ; me_wnd.c 1248 
                  8004   ; me_wnd.c 1249 int ME_GetSubscriberId ( HWND hWnd, int Msg )
                  8005   ; me_wnd.c 1250 {
                  8006           ?LINE   1250
                  8007           PUBLIC  _ME_GetSubscriberId
               R  8008           ?SYMB   'ME_GetSubscriberId',_ME_GetSubscriberId,37,16
                  8009           ?SYMB   '',1250,8,34
                  8010   _ME_GetSubscriberId     PROC    FAR
                  8011           ?SYMB   '',0300H,95,0
09B0 8890         8012           MOV     [-R0],R9
               R  8013           ?SYMB   '',$,96,2
09B2 8880         8014           MOV     [-R0],R8
               R  8015           ?SYMB   '',$,96,4
                  8016   ; Locals:
                  8017   ; 
                  8018   ; Statics:
                  8019   ; 
                  8020   ; CSEs:
                  8021   ;     request = R8R9
                  8022   ;     retval = R12
                  8023   ;     hWnd = R12R13
                  8024   ;     Msg = R14
                  8025   ; 
                  8026           ?SYMB   'hWnd',3,99,394
                  8027           ?SYMB   'Msg',2,99,16
                  8028           ?SYMB   'retval',1,98,16
                  8029           ?SYMB   'request',4,98,547
               R  8030           ?SYMB   'R12R13',$,100,3
               R  8031           ?SYMB   'R14',$,100,2
                  8032   ; me_wnd.c 1251         int retval = 0;
                  8033   ; me_wnd.c 1252         struct ME_REQUEST_WIN * request;
                  8034   ; me_wnd.c 1253 
                  8035   ; me_wnd.c 1254         request = FindRequestStruct( -1 );
                  8036           ?LINE   1254
09B4 88C0         8037           MOV     [-R0],R12
               R  8038           ?SYMB   '',$,96,6
09B6 88D0         8039           MOV     [-R0],R13
               R  8040           ?SYMB   '',$,96,8
09B8 88E0         8041           MOV     [-R0],R14
               R  8042           ?SYMB   '',$,96,10
09BA E6FCFFFF     8043           MOV     R12,#0FFFFh
               R  8044           ?SYMB   '',$,102,3
09BE DA000000  R  8045           CALLS   SEG _FindRequestStruct,_FindRequestStruct
               R  8046           ?SYMB   '',$,102,2
09C2 F084         8047           MOV     R8,R4
09C4 F095         8048           MOV     R9,R5
               R  8049           ?SYMB   'R8R9',$,100,4
09C6 98E0         8050           MOV     R14,[R0+]
               R  8051           ?SYMB   '',$,96,8
               R  8052           ?SYMB   'R14',$,100,2
09C8 98D0         8053           MOV     R13,[R0+]
               R  8054           ?SYMB   '',$,96,6
09CA 98C0         8055           MOV     R12,[R0+]
               R  8056           ?SYMB   '',$,96,4
               R  8057           ?SYMB   'R12R13',$,100,3
                  8058   ; me_wnd.c 1255         if ( NULL == request )
                  8059           ?LINE   1255
09CC F0F9         8060           MOV     R15,R9
09CE 70F8         8061           OR      R15,R8
09D0 3D03         8062           JMPR    cc_NZ,_304
                  8063   ; me_wnd.c 1256                 return -1;
                  8064           ?LINE   1256
09D2 E6F4FFFF     8065           MOV     R4,#0FFFFh
09D6 0D19         8066           JMPR    cc_UC,_305
09D8              8067   _304:
               R  8068           ?SYMB   '',$,102,4
               R  8069           ?SYMB   '',$,102,2
               R  8070           ?SYMB   '',$,102,3
               R  8071           ?SYMB   'R8R9',$,100,4
               R  8072           ?SYMB   'R12R13',$,100,3
               R  8073           ?SYMB   'R14',$,100,2
                  8074   ; me_wnd.c 1257 
                  8075   ; me_wnd.c 1258     request->hWnd = hWnd;
                  8076           ?LINE   1258
09D8 DC59         8077           EXTP    R9,#02h
09DA C4C83C01 2   8078           MOV     [R8+#013CH],R12
09DE C4D83E01 1   8079           MOV     [R8+#013EH],R13
                  8080   ; me_wnd.c 1259     request->message = Msg;
                  8081   ; me_wnd.c 1260 
                  8082   ; me_wnd.c 1261     /* Fill the request */
                  8083   ; me_wnd.c 1262         request->request.cmd = ME_GET_IMSI;
                  8084           ?LINE   1262
09E2 E6FC2F00     8085           MOV     R12,#02Fh
                  8086           ?LINE   1259
09E6 DC59         8087           EXTP    R9,#02h
09E8 C4E84001 2   8088           MOV     [R8+#0140H],R14
               R  8089           ?SYMB   '',$,102,3
                  8090           ?LINE   1262
09EC B8C8     1   8091           MOV     [R8],R12
                  8092   ; me_wnd.c 1263     request->request.reply = ME_WndCallback;
                  8093           ?LINE   1263
09EE E6FD0000  R  8094           MOV     R13,#SOF _ME_WndCallback
09F2 E6FE0000  R  8095           MOV     R14,#SEG _ME_WndCallback
               R  8096           ?SYMB   '',$,102,2
09F6 DC59         8097           EXTP    R9,#02h
09F8 C4D80E00 2   8098           MOV     [R8+#0EH],R13
09FC C4E81000 1   8099           MOV     [R8+#010H],R14
                  8100   ; me_wnd.c 1264 
                  8101   ; me_wnd.c 1265         retval = ME_Request( &(request->request) );
                  8102           ?LINE   1265
0A00 F0C8         8103           MOV     R12,R8
0A02 F0D9         8104           MOV     R13,R9
0A04 DA000000  R  8105           CALLS   SEG _ME_Request,_ME_Request
               R  8106           ?SYMB   '',$,102,4
0A08 F0C4         8107           MOV     R12,R4
               R  8108           ?SYMB   'R12',$,100,1
                  8109   ; me_wnd.c 1266 
                  8110   ; me_wnd.c 1267         return retval;
                  8111   ; me_wnd.c 1268 }
                  8112           ?LINE   1268
0A0A              8113   _305:
               R  8114           ?SYMB   '',$,102,1
0A0A 9880         8115           MOV     R8,[R0+]
               R  8116           ?SYMB   '',$,96,2
0A0C 9890         8117           MOV     R9,[R0+]
               R  8118           ?SYMB   '',$,96,0
0A0E DB00         8119           RETS
                  8120   _ME_GetSubscriberId     ENDP
               R  8121           ?SYMB   '',$,17,1268
                  8122   ; me_wnd.c 1269 
                  8123   ; me_wnd.c 1270 int ME_SetClockTime ( HWND hWnd, int Msg, char* DateTime )
                  8124   ; me_wnd.c 1271 {
                  8125           ?LINE   1271
                  8126           PUBLIC  _ME_SetClockTime
               R  8127           ?SYMB   'ME_SetClockTime',_ME_SetClockTime,37,16
                  8128           ?SYMB   '',1271,8,34
                  8129   _ME_SetClockTime        PROC    FAR
                  8130           ?SYMB   '',03c0H,95,0
0A10 8890         8131           MOV     [-R0],R9
               R  8132           ?SYMB   '',$,96,2
0A12 8880         8133           MOV     [-R0],R8
               R  8134           ?SYMB   '',$,96,4
0A14 8870         8135           MOV     [-R0],R7
               R  8136           ?SYMB   '',$,96,6
0A16 8860         8137           MOV     [-R0],R6
               R  8138           ?SYMB   '',$,96,8
0A18 D4700A00     8139           MOV     R7,[R0+#0AH]
0A1C D4600800     8140           MOV     R6,[R0+#08H]
                  8141   ; Locals:
                  8142   ; 
                  8143   ; Statics:
                  8144   ; 
                  8145   ; CSEs:
                  8146   ;     request = R8R9
                  8147   ;     retval = R12
                  8148   ;     DateTime = R6R7
                  8149   ;     hWnd = R12R13
                  8150   ;     Msg = R14
                  8151   ; 
                  8152           ?SYMB   'hWnd',3,99,394
                  8153           ?SYMB   'Msg',2,99,16
                  8154           ?SYMB   'DateTime',5,99,266
                  8155           ?SYMB   'retval',1,98,16
                  8156           ?SYMB   'request',4,98,547
               R  8157           ?SYMB   'R6R7',$,100,5
               R  8158           ?SYMB   'R12R13',$,100,3
               R  8159           ?SYMB   'R14',$,100,2
                  8160   ; me_wnd.c 1272         int retval = 0;
                  8161   ; me_wnd.c 1273         struct ME_REQUEST_WIN * request;
                  8162   ; me_wnd.c 1274 
                  8163   ; me_wnd.c 1275         if ( DateTime == NULL )
                  8164           ?LINE   1275
0A20 F0F7         8165           MOV     R15,R7
0A22 70F6         8166           OR      R15,R6
0A24 2D0F         8167           JMPR    cc_Z,_314
                  8168   ; me_wnd.c 1276                 return -1;
                  8169   ; me_wnd.c 1277 
                  8170   ; me_wnd.c 1278         request = FindRequestStruct( -1 );
                  8171           ?LINE   1278
0A26 88C0         8172           MOV     [-R0],R12
               R  8173           ?SYMB   '',$,96,10
0A28 88D0         8174           MOV     [-R0],R13
               R  8175           ?SYMB   '',$,96,12
0A2A 88E0         8176           MOV     [-R0],R14
               R  8177           ?SYMB   '',$,96,14
0A2C E6FCFFFF     8178           MOV     R12,#0FFFFh
               R  8179           ?SYMB   '',$,102,3
0A30 DA000000  R  8180           CALLS   SEG _FindRequestStruct,_FindRequestStruct
               R  8181           ?SYMB   '',$,102,2
0A34 F084         8182           MOV     R8,R4
0A36 F095         8183           MOV     R9,R5
               R  8184           ?SYMB   'R8R9',$,100,4
0A38 98E0         8185           MOV     R14,[R0+]
               R  8186           ?SYMB   '',$,96,12
               R  8187           ?SYMB   'R14',$,100,2
0A3A 98D0         8188           MOV     R13,[R0+]
               R  8189           ?SYMB   '',$,96,10
0A3C 98C0         8190           MOV     R12,[R0+]
               R  8191           ?SYMB   '',$,96,8
               R  8192           ?SYMB   'R12R13',$,100,3
                  8193   ; me_wnd.c 1279         if ( NULL == request )
                  8194           ?LINE   1279
0A3E F0F9         8195           MOV     R15,R9
0A40 70F8         8196           OR      R15,R8
0A42 3D03         8197           JMPR    cc_NZ,_315
                  8198   ; me_wnd.c 1280                 return -1;
                  8199           ?LINE   1280
0A44              8200   _314:
               R  8201           ?SYMB   '',$,102,5
               R  8202           ?SYMB   '',$,102,4
               R  8203           ?SYMB   '',$,102,2
               R  8204           ?SYMB   '',$,102,3
0A44 E6F4FFFF     8205           MOV     R4,#0FFFFh
0A48 0D31         8206           JMPR    cc_UC,_316
0A4A              8207   _315:
               R  8208           ?SYMB   'R6R7',$,100,5
               R  8209           ?SYMB   'R8R9',$,100,4
               R  8210           ?SYMB   'R12R13',$,100,3
               R  8211           ?SYMB   'R14',$,100,2
                  8212   ; me_wnd.c 1281 
                  8213   ; me_wnd.c 1282     request->hWnd = hWnd;
                  8214           ?LINE   1282
0A4A DC59         8215           EXTP    R9,#02h
0A4C C4C83C01 2   8216           MOV     [R8+#013CH],R12
0A50 C4D83E01 1   8217           MOV     [R8+#013EH],R13
                  8218   ; me_wnd.c 1283     request->message = Msg;
                  8219           ?LINE   1283
0A54 DC49         8220           EXTP    R9,#01h
0A56 C4E84001 1   8221           MOV     [R8+#0140H],R14
                  8222   ; me_wnd.c 1284         strcpy( request->cmddata, DateTime );
                  8223           ?LINE   1284
0A5A F0C8         8224           MOV     R12,R8
               R  8225           ?SYMB   '',$,102,3
0A5C F0D9         8226           MOV     R13,R9
0A5E 06FC2200     8227           ADD     R12,#022h
0A62 F0E6         8228           MOV     R14,R6
               R  8229           ?SYMB   '',$,102,2
0A64 F0F7         8230           MOV     R15,R7
0A66 DA000000  R  8231           CALLS   SEG _strcpy,_strcpy
                  8232   ; me_wnd.c 1285 
                  8233   ; me_wnd.c 1286     /* Fill the request */
                  8234   ; me_wnd.c 1287         request->request.cmddata = request->cmddata;
                  8235           ?LINE   1287
0A6A F0C8         8236           MOV     R12,R8
0A6C F0D9         8237           MOV     R13,R9
0A6E 06FC2200     8238           ADD     R12,#022h
0A72 DC59         8239           EXTP    R9,#02h
0A74 C4C80800 2   8240           MOV     [R8+#08H],R12
0A78 C4D80A00 1   8241           MOV     [R8+#0AH],R13
                  8242   ; me_wnd.c 1288         request->request.cmddata_len = strlen( DateTime );
                  8243           ?LINE   1288
0A7C F0C6         8244           MOV     R12,R6
0A7E F0D7         8245           MOV     R13,R7
0A80 DA000000  R  8246           CALLS   SEG _strlen,_strlen
               R  8247           ?SYMB   '',$,102,5
                  8248   ; me_wnd.c 1289 
                  8249   ; me_wnd.c 1290         request->request.cmd = ME_SET_CLOCK;
                  8250           ?LINE   1290
0A84 E6F63000     8251           MOV     R6,#030h
                  8252           ?LINE   1288
0A88 DC59         8253           EXTP    R9,#02h
0A8A C4480C00 2   8254           MOV     [R8+#0CH],R4
                  8255           ?LINE   1290
0A8E B868     1   8256           MOV     [R8],R6
                  8257   ; me_wnd.c 1291     request->request.reply = ME_WndCallback;
                  8258           ?LINE   1291
0A90 E6F70000  R  8259           MOV     R7,#SOF _ME_WndCallback
0A94 E6FC0000  R  8260           MOV     R12,#SEG _ME_WndCallback
0A98 DC59         8261           EXTP    R9,#02h
0A9A C4780E00 2   8262           MOV     [R8+#0EH],R7
0A9E C4C81000 1   8263           MOV     [R8+#010H],R12
                  8264   ; me_wnd.c 1292 
                  8265   ; me_wnd.c 1293         retval = ME_Request( &(request->request) );
                  8266           ?LINE   1293
0AA2 F0C8         8267           MOV     R12,R8
0AA4 F0D9         8268           MOV     R13,R9
0AA6 DA000000  R  8269           CALLS   SEG _ME_Request,_ME_Request
               R  8270           ?SYMB   '',$,102,4
0AAA F0C4         8271           MOV     R12,R4
               R  8272           ?SYMB   'R12',$,100,1
                  8273   ; me_wnd.c 1294 
                  8274   ; me_wnd.c 1295         return retval;
                  8275   ; me_wnd.c 1296 }
                  8276           ?LINE   1296
0AAC              8277   _316:
               R  8278           ?SYMB   '',$,102,1
0AAC 9860         8279           MOV     R6,[R0+]
               R  8280           ?SYMB   '',$,96,6
0AAE 9870         8281           MOV     R7,[R0+]
               R  8282           ?SYMB   '',$,96,4
0AB0 9880         8283           MOV     R8,[R0+]
               R  8284           ?SYMB   '',$,96,2
0AB2 9890         8285           MOV     R9,[R0+]
               R  8286           ?SYMB   '',$,96,0
0AB4 DB00         8287           RETS
                  8288   _ME_SetClockTime        ENDP
               R  8289           ?SYMB   '',$,17,1296
                  8290   ; me_wnd.c 1297 
                  8291   ; me_wnd.c 1298 int ME_GetClockTime ( HWND hWnd, int Msg )
                  8292   ; me_wnd.c 1299 {
                  8293           ?LINE   1299
                  8294           PUBLIC  _ME_GetClockTime
               R  8295           ?SYMB   'ME_GetClockTime',_ME_GetClockTime,37,16
                  8296           ?SYMB   '',1299,8,34
                  8297   _ME_GetClockTime        PROC    FAR
                  8298           ?SYMB   '',0300H,95,0
0AB6 8890         8299           MOV     [-R0],R9
               R  8300           ?SYMB   '',$,96,2
0AB8 8880         8301           MOV     [-R0],R8
               R  8302           ?SYMB   '',$,96,4
                  8303   ; Locals:
                  8304   ; 
                  8305   ; Statics:
                  8306   ; 
                  8307   ; CSEs:
                  8308   ;     request = R8R9
                  8309   ;     retval = R12
                  8310   ;     hWnd = R12R13
                  8311   ;     Msg = R14
                  8312   ; 
                  8313           ?SYMB   'hWnd',3,99,394
                  8314           ?SYMB   'Msg',2,99,16
                  8315           ?SYMB   'retval',1,98,16
                  8316           ?SYMB   'request',4,98,547
               R  8317           ?SYMB   'R12R13',$,100,3
               R  8318           ?SYMB   'R14',$,100,2
                  8319   ; me_wnd.c 1300         int retval = 0;
                  8320   ; me_wnd.c 1301         struct ME_REQUEST_WIN * request;
                  8321   ; me_wnd.c 1302 
                  8322   ; me_wnd.c 1303         request = FindRequestStruct( -1 );
                  8323           ?LINE   1303
0ABA 88C0         8324           MOV     [-R0],R12
               R  8325           ?SYMB   '',$,96,6
0ABC 88D0         8326           MOV     [-R0],R13
               R  8327           ?SYMB   '',$,96,8
0ABE 88E0         8328           MOV     [-R0],R14
               R  8329           ?SYMB   '',$,96,10
0AC0 E6FCFFFF     8330           MOV     R12,#0FFFFh
               R  8331           ?SYMB   '',$,102,3
0AC4 DA000000  R  8332           CALLS   SEG _FindRequestStruct,_FindRequestStruct
               R  8333           ?SYMB   '',$,102,2
0AC8 F084         8334           MOV     R8,R4
0ACA F095         8335           MOV     R9,R5
               R  8336           ?SYMB   'R8R9',$,100,4
0ACC 98E0         8337           MOV     R14,[R0+]
               R  8338           ?SYMB   '',$,96,8
               R  8339           ?SYMB   'R14',$,100,2
0ACE 98D0         8340           MOV     R13,[R0+]
               R  8341           ?SYMB   '',$,96,6
0AD0 98C0         8342           MOV     R12,[R0+]
               R  8343           ?SYMB   '',$,96,4
               R  8344           ?SYMB   'R12R13',$,100,3
                  8345   ; me_wnd.c 1304         if ( NULL == request )
                  8346           ?LINE   1304
0AD2 F0F9         8347           MOV     R15,R9
0AD4 70F8         8348           OR      R15,R8
0AD6 3D03         8349           JMPR    cc_NZ,_319
                  8350   ; me_wnd.c 1305                 return -1;
                  8351           ?LINE   1305
0AD8 E6F4FFFF     8352           MOV     R4,#0FFFFh
0ADC 0D19         8353           JMPR    cc_UC,_320
0ADE              8354   _319:
               R  8355           ?SYMB   '',$,102,4
               R  8356           ?SYMB   '',$,102,2
               R  8357           ?SYMB   '',$,102,3
               R  8358           ?SYMB   'R8R9',$,100,4
               R  8359           ?SYMB   'R12R13',$,100,3
               R  8360           ?SYMB   'R14',$,100,2
                  8361   ; me_wnd.c 1306 
                  8362   ; me_wnd.c 1307     request->hWnd = hWnd;
                  8363           ?LINE   1307
0ADE DC59         8364           EXTP    R9,#02h
0AE0 C4C83C01 2   8365           MOV     [R8+#013CH],R12
0AE4 C4D83E01 1   8366           MOV     [R8+#013EH],R13
                  8367   ; me_wnd.c 1308     request->message = Msg;
                  8368   ; me_wnd.c 1309 
                  8369   ; me_wnd.c 1310     /* Fill the request */
                  8370   ; me_wnd.c 1311         request->request.cmd = ME_GET_CLOCK;
                  8371           ?LINE   1311
0AE8 E6FC3100     8372           MOV     R12,#031h
                  8373           ?LINE   1308
0AEC DC59         8374           EXTP    R9,#02h
0AEE C4E84001 2   8375           MOV     [R8+#0140H],R14
               R  8376           ?SYMB   '',$,102,3
                  8377           ?LINE   1311
0AF2 B8C8     1   8378           MOV     [R8],R12
                  8379   ; me_wnd.c 1312     request->request.reply = ME_WndCallback;
                  8380           ?LINE   1312
0AF4 E6FD0000  R  8381           MOV     R13,#SOF _ME_WndCallback
0AF8 E6FE0000  R  8382           MOV     R14,#SEG _ME_WndCallback
               R  8383           ?SYMB   '',$,102,2
0AFC DC59         8384           EXTP    R9,#02h
0AFE C4D80E00 2   8385           MOV     [R8+#0EH],R13
0B02 C4E81000 1   8386           MOV     [R8+#010H],R14
                  8387   ; me_wnd.c 1313 
                  8388   ; me_wnd.c 1314         retval = ME_Request( &(request->request) );
                  8389           ?LINE   1314
0B06 F0C8         8390           MOV     R12,R8
0B08 F0D9         8391           MOV     R13,R9
0B0A DA000000  R  8392           CALLS   SEG _ME_Request,_ME_Request
               R  8393           ?SYMB   '',$,102,4
0B0E F0C4         8394           MOV     R12,R4
               R  8395           ?SYMB   'R12',$,100,1
                  8396   ; me_wnd.c 1315 
                  8397   ; me_wnd.c 1316         return retval;
                  8398   ; me_wnd.c 1317 }
                  8399           ?LINE   1317
0B10              8400   _320:
               R  8401           ?SYMB   '',$,102,1
0B10 9880         8402           MOV     R8,[R0+]
               R  8403           ?SYMB   '',$,96,2
0B12 9890         8404           MOV     R9,[R0+]
               R  8405           ?SYMB   '',$,96,0
0B14 DB00         8406           RETS
                  8407   _ME_GetClockTime        ENDP
               R  8408           ?SYMB   '',$,17,1317
                  8409   ; me_wnd.c 1318 
                  8410   ; me_wnd.c 1319 int ME_MuteControl( HWND hWnd, int Msg, BOOL bEnable )
                  8411   ; me_wnd.c 1320 {
                  8412           ?LINE   1320
                  8413           PUBLIC  _ME_MuteControl
               R  8414           ?SYMB   'ME_MuteControl',_ME_MuteControl,37,16
                  8415           ?SYMB   '',1320,8,34
                  8416   _ME_MuteControl PROC    FAR
                  8417           ?SYMB   '',0300H,95,0
0B16 8890         8418           MOV     [-R0],R9
               R  8419           ?SYMB   '',$,96,2
0B18 8880         8420           MOV     [-R0],R8
               R  8421           ?SYMB   '',$,96,4
                  8422   ; Locals:
                  8423   ; 
                  8424   ; Statics:
                  8425   ; 
                  8426   ; CSEs:
                  8427   ;     request = R8R9
                  8428   ;     retval = R12
                  8429   ;     Msg = R14
                  8430   ;     bEnable = R15
                  8431   ;     hWnd = R12R13
                  8432   ; 
                  8433           ?SYMB   'hWnd',4,99,394
                  8434           ?SYMB   'Msg',3,99,16
                  8435           ?SYMB   'bEnable',2,99,258
                  8436           ?SYMB   'retval',1,98,16
                  8437           ?SYMB   'request',5,98,547
               R  8438           ?SYMB   'R12R13',$,100,4
               R  8439           ?SYMB   'R14',$,100,3
               R  8440           ?SYMB   'R15',$,100,2
                  8441   ; me_wnd.c 1321         int retval = 0;
                  8442   ; me_wnd.c 1322         struct ME_REQUEST_WIN * request;
                  8443   ; me_wnd.c 1323 
                  8444   ; me_wnd.c 1324         request = FindRequestStruct( -1 );
                  8445           ?LINE   1324
0B1A 88C0         8446           MOV     [-R0],R12
               R  8447           ?SYMB   '',$,96,6
0B1C 88D0         8448           MOV     [-R0],R13
               R  8449           ?SYMB   '',$,96,8
0B1E 88E0         8450           MOV     [-R0],R14
               R  8451           ?SYMB   '',$,96,10
0B20 88F0         8452           MOV     [-R0],R15
               R  8453           ?SYMB   '',$,96,12
0B22 E6FCFFFF     8454           MOV     R12,#0FFFFh
               R  8455           ?SYMB   '',$,102,4
0B26 DA000000  R  8456           CALLS   SEG _FindRequestStruct,_FindRequestStruct
               R  8457           ?SYMB   '',$,102,3
               R  8458           ?SYMB   '',$,102,2
0B2A F084         8459           MOV     R8,R4
0B2C F095         8460           MOV     R9,R5
               R  8461           ?SYMB   'R8R9',$,100,5
0B2E 98F0         8462           MOV     R15,[R0+]
               R  8463           ?SYMB   '',$,96,10
               R  8464           ?SYMB   'R15',$,100,2
0B30 98E0         8465           MOV     R14,[R0+]
               R  8466           ?SYMB   '',$,96,8
               R  8467           ?SYMB   'R14',$,100,3
0B32 98D0         8468           MOV     R13,[R0+]
               R  8469           ?SYMB   '',$,96,6
0B34 98C0         8470           MOV     R12,[R0+]
               R  8471           ?SYMB   '',$,96,4
               R  8472           ?SYMB   'R12R13',$,100,4
                  8473   ; me_wnd.c 1325         if ( NULL == request )
                  8474           ?LINE   1325
0B36 F019         8475           MOV     R1,R9
0B38 7018         8476           OR      R1,R8
0B3A 3D03         8477           JMPR    cc_NZ,_323
                  8478   ; me_wnd.c 1326                 return -1;
                  8479           ?LINE   1326
0B3C E6F4FFFF     8480           MOV     R4,#0FFFFh
0B40 0D1C         8481           JMPR    cc_UC,_324
0B42              8482   _323:
               R  8483           ?SYMB   '',$,102,5
               R  8484           ?SYMB   '',$,102,2
               R  8485           ?SYMB   '',$,102,3
               R  8486           ?SYMB   '',$,102,4
               R  8487           ?SYMB   'R8R9',$,100,5
               R  8488           ?SYMB   'R12R13',$,100,4
               R  8489           ?SYMB   'R14',$,100,3
               R  8490           ?SYMB   'R15',$,100,2
                  8491   ; me_wnd.c 1327 
                  8492   ; me_wnd.c 1328     request->hWnd = hWnd;
                  8493           ?LINE   1328
0B42 DC59         8494           EXTP    R9,#02h
0B44 C4C83C01 2   8495           MOV     [R8+#013CH],R12
0B48 C4D83E01 1   8496           MOV     [R8+#013EH],R13
                  8497   ; me_wnd.c 1329     request->message = Msg;
                  8498           ?LINE   1329
0B4C DC59         8499           EXTP    R9,#02h
0B4E C4E84001 2   8500           MOV     [R8+#0140H],R14
                  8501   ; me_wnd.c 1330 
                  8502   ; me_wnd.c 1331     /* Fill the request */
                  8503   ; me_wnd.c 1332         request->request.arg1 = bEnable;
                  8504           ?LINE   1332
0B52 C4F80200 1   8505           MOV     [R8+#02H],R15
                  8506   ; me_wnd.c 1333         request->request.cmd = ME_MUTE_CONTROL;
                  8507           ?LINE   1333
0B56 E6FC3200     8508           MOV     R12,#032h
               R  8509           ?SYMB   '',$,102,4
0B5A DC49         8510           EXTP    R9,#01h
0B5C B8C8     1   8511           MOV     [R8],R12
                  8512   ; me_wnd.c 1334     request->request.reply = ME_WndCallback;
                  8513           ?LINE   1334
0B5E E6FD0000  R  8514           MOV     R13,#SOF _ME_WndCallback
0B62 E6FE0000  R  8515           MOV     R14,#SEG _ME_WndCallback
               R  8516           ?SYMB   '',$,102,3
0B66 DC59         8517           EXTP    R9,#02h
0B68 C4D80E00 2   8518           MOV     [R8+#0EH],R13
0B6C C4E81000 1   8519           MOV     [R8+#010H],R14
                  8520   ; me_wnd.c 1335 
                  8521   ; me_wnd.c 1336         retval = ME_Request( &(request->request) );
                  8522           ?LINE   1336
0B70 F0C8         8523           MOV     R12,R8
0B72 F0D9         8524           MOV     R13,R9
0B74 DA000000  R  8525           CALLS   SEG _ME_Request,_ME_Request
               R  8526           ?SYMB   '',$,102,5
               R  8527           ?SYMB   '',$,102,2
0B78 F0C4         8528           MOV     R12,R4
               R  8529           ?SYMB   'R12',$,100,1
                  8530   ; me_wnd.c 1337 
                  8531   ; me_wnd.c 1338         return retval;
                  8532   ; me_wnd.c 1339 }
                  8533           ?LINE   1339
0B7A              8534   _324:
               R  8535           ?SYMB   '',$,102,1
0B7A 9880         8536           MOV     R8,[R0+]
               R  8537           ?SYMB   '',$,96,2
0B7C 9890         8538           MOV     R9,[R0+]
               R  8539           ?SYMB   '',$,96,0
0B7E DB00         8540           RETS
                  8541   _ME_MuteControl ENDP
               R  8542           ?SYMB   '',$,17,1339
                  8543   ; me_wnd.c 1340 
                  8544   ; me_wnd.c 1341 int ME_SendDTMF ( HWND hWnd, int Msg, char SendChar )
                  8545   ; me_wnd.c 1342 {
                  8546           ?LINE   1342
                  8547           PUBLIC  _ME_SendDTMF
               R  8548           ?SYMB   'ME_SendDTMF',_ME_SendDTMF,37,16
                  8549           ?SYMB   '',1342,8,34
                  8550   _ME_SendDTMF    PROC    FAR
                  8551           ?SYMB   '',0300H,95,0
0B80 8890         8552           MOV     [-R0],R9
               R  8553           ?SYMB   '',$,96,2
0B82 8880         8554           MOV     [-R0],R8
               R  8555           ?SYMB   '',$,96,4
                  8556   ; Locals:
                  8557   ; 
                  8558   ; Statics:
                  8559   ; 
                  8560   ; CSEs:
                  8561   ;     request = R8R9
                  8562   ;     retval = R12
                  8563   ;     Msg = R14
                  8564   ;     SendChar = R15
                  8565   ;     hWnd = R12R13
                  8566   ; 
                  8567           ?SYMB   'hWnd',4,99,394
                  8568           ?SYMB   'Msg',3,99,16
                  8569           ?SYMB   'SendChar',2,99,2
                  8570           ?SYMB   'retval',1,98,16
                  8571           ?SYMB   'request',5,98,547
               R  8572           ?SYMB   'R12R13',$,100,4
               R  8573           ?SYMB   'R14',$,100,3
               R  8574           ?SYMB   'R15',$,100,2
                  8575   ; me_wnd.c 1343         int retval = 0;
                  8576   ; me_wnd.c 1344         struct ME_REQUEST_WIN * request;
                  8577   ; me_wnd.c 1345 
                  8578   ; me_wnd.c 1346         request = FindRequestStruct( -1 );
                  8579           ?LINE   1346
0B84 88C0         8580           MOV     [-R0],R12
               R  8581           ?SYMB   '',$,96,6
0B86 88D0         8582           MOV     [-R0],R13
               R  8583           ?SYMB   '',$,96,8
0B88 88E0         8584           MOV     [-R0],R14
               R  8585           ?SYMB   '',$,96,10
0B8A 88F0         8586           MOV     [-R0],R15
               R  8587           ?SYMB   '',$,96,12
0B8C E6FCFFFF     8588           MOV     R12,#0FFFFh
               R  8589           ?SYMB   '',$,102,4
0B90 DA000000  R  8590           CALLS   SEG _FindRequestStruct,_FindRequestStruct
               R  8591           ?SYMB   '',$,102,3
               R  8592           ?SYMB   '',$,102,2
0B94 F084         8593           MOV     R8,R4
0B96 F095         8594           MOV     R9,R5
               R  8595           ?SYMB   'R8R9',$,100,5
0B98 98F0         8596           MOV     R15,[R0+]
               R  8597           ?SYMB   '',$,96,10
               R  8598           ?SYMB   'R15',$,100,2
0B9A 98E0         8599           MOV     R14,[R0+]
               R  8600           ?SYMB   '',$,96,8
               R  8601           ?SYMB   'R14',$,100,3
0B9C 98D0         8602           MOV     R13,[R0+]
               R  8603           ?SYMB   '',$,96,6
0B9E 98C0         8604           MOV     R12,[R0+]
               R  8605           ?SYMB   '',$,96,4
               R  8606           ?SYMB   'R12R13',$,100,4
                  8607   ; me_wnd.c 1347         if ( NULL == request )
                  8608           ?LINE   1347
0BA0 F019         8609           MOV     R1,R9
0BA2 7018         8610           OR      R1,R8
0BA4 3D03         8611           JMPR    cc_NZ,_327
                  8612   ; me_wnd.c 1348                 return -1;
                  8613           ?LINE   1348
0BA6 E6F4FFFF     8614           MOV     R4,#0FFFFh
0BAA 0D1F         8615           JMPR    cc_UC,_328
0BAC              8616   _327:
               R  8617           ?SYMB   '',$,102,5
               R  8618           ?SYMB   '',$,102,2
               R  8619           ?SYMB   '',$,102,3
               R  8620           ?SYMB   '',$,102,4
               R  8621           ?SYMB   'R8R9',$,100,5
               R  8622           ?SYMB   'R12R13',$,100,4
               R  8623           ?SYMB   'R14',$,100,3
               R  8624           ?SYMB   'R15',$,100,2
                  8625   ; me_wnd.c 1349 
                  8626   ; me_wnd.c 1350     request->hWnd = hWnd;
                  8627           ?LINE   1350
0BAC DC59         8628           EXTP    R9,#02h
0BAE C4C83C01 2   8629           MOV     [R8+#013CH],R12
0BB2 C4D83E01 1   8630           MOV     [R8+#013EH],R13
                  8631   ; me_wnd.c 1351     request->message = Msg;
                  8632           ?LINE   1351
0BB6 DC49         8633           EXTP    R9,#01h
0BB8 C4E84001 1   8634           MOV     [R8+#0140H],R14
                  8635   ; me_wnd.c 1352 
                  8636   ; me_wnd.c 1353     /* Fill the request */
                  8637   ; me_wnd.c 1354         request->request.arg1 = SendChar;
                  8638           ?LINE   1354
0BBC F01F         8639           MOV     R1,R15
0BBE D02C         8640           MOVBS   R12,RL1
               R  8641           ?SYMB   '',$,102,4
0BC0 DC49         8642           EXTP    R9,#01h
0BC2 C4C80200 1   8643           MOV     [R8+#02H],R12
                  8644   ; me_wnd.c 1355         request->request.cmd = ME_SEND_DTMF;
                  8645           ?LINE   1355
0BC6 E6FC3300     8646           MOV     R12,#033h
0BCA DC49         8647           EXTP    R9,#01h
0BCC B8C8     1   8648           MOV     [R8],R12
                  8649   ; me_wnd.c 1356     request->request.reply = ME_WndCallback;
                  8650           ?LINE   1356
0BCE E6FD0000  R  8651           MOV     R13,#SOF _ME_WndCallback
0BD2 E6FE0000  R  8652           MOV     R14,#SEG _ME_WndCallback
               R  8653           ?SYMB   '',$,102,3
0BD6 DC59         8654           EXTP    R9,#02h
0BD8 C4D80E00 2   8655           MOV     [R8+#0EH],R13
0BDC C4E81000 1   8656           MOV     [R8+#010H],R14
                  8657   ; me_wnd.c 1357 
                  8658   ; me_wnd.c 1358         retval = ME_Request( &(request->request) );
                  8659           ?LINE   1358
0BE0 F0C8         8660           MOV     R12,R8
0BE2 F0D9         8661           MOV     R13,R9
0BE4 DA000000  R  8662           CALLS   SEG _ME_Request,_ME_Request
               R  8663           ?SYMB   '',$,102,5
               R  8664           ?SYMB   '',$,102,2
0BE8 F0C4         8665           MOV     R12,R4
               R  8666           ?SYMB   'R12',$,100,1
                  8667   ; me_wnd.c 1359 
                  8668   ; me_wnd.c 1360         return retval;
                  8669   ; me_wnd.c 1361 }
                  8670           ?LINE   1361
0BEA              8671   _328:
               R  8672           ?SYMB   '',$,102,1
0BEA 9880         8673           MOV     R8,[R0+]
               R  8674           ?SYMB   '',$,96,2
0BEC 9890         8675           MOV     R9,[R0+]
               R  8676           ?SYMB   '',$,96,0
0BEE DB00         8677           RETS
                  8678   _ME_SendDTMF    ENDP
               R  8679           ?SYMB   '',$,17,1361
                  8680   ; me_wnd.c 1362 
                  8681   ; me_wnd.c 1363 int ME_FactoryDefaultSetting( HWND hWnd, int Msg )
                  8682   ; me_wnd.c 1364 {
                  8683           ?LINE   1364
                  8684           PUBLIC  _ME_FactoryDefaultSetting
               R  8685           ?SYMB   'ME_FactoryDefaultSetting',_ME_FactoryDefaultSetting,37,16
                  8686           ?SYMB   '',1364,8,34
                  8687   _ME_FactoryDefaultSetting       PROC    FAR
                  8688           ?SYMB   '',0300H,95,0
0BF0 8890         8689           MOV     [-R0],R9
               R  8690           ?SYMB   '',$,96,2
0BF2 8880         8691           MOV     [-R0],R8
               R  8692           ?SYMB   '',$,96,4
                  8693   ; Locals:
                  8694   ; 
                  8695   ; Statics:
                  8696   ; 
                  8697   ; CSEs:
                  8698   ;     request = R8R9
                  8699   ;     retval = R12
                  8700   ;     hWnd = R12R13
                  8701   ;     Msg = R14
                  8702   ; 
                  8703           ?SYMB   'hWnd',3,99,394
                  8704           ?SYMB   'Msg',2,99,16
                  8705           ?SYMB   'retval',1,98,16
                  8706           ?SYMB   'request',4,98,547
               R  8707           ?SYMB   'R12R13',$,100,3
               R  8708           ?SYMB   'R14',$,100,2
                  8709   ; me_wnd.c 1365         int retval = 0;
                  8710   ; me_wnd.c 1366         struct ME_REQUEST_WIN * request;
                  8711   ; me_wnd.c 1367 
                  8712   ; me_wnd.c 1368         request = FindRequestStruct( -1 );
                  8713           ?LINE   1368
0BF4 88C0         8714           MOV     [-R0],R12
               R  8715           ?SYMB   '',$,96,6
0BF6 88D0         8716           MOV     [-R0],R13
               R  8717           ?SYMB   '',$,96,8
0BF8 88E0         8718           MOV     [-R0],R14
               R  8719           ?SYMB   '',$,96,10
0BFA E6FCFFFF     8720           MOV     R12,#0FFFFh
               R  8721           ?SYMB   '',$,102,3
0BFE DA000000  R  8722           CALLS   SEG _FindRequestStruct,_FindRequestStruct
               R  8723           ?SYMB   '',$,102,2
0C02 F084         8724           MOV     R8,R4
0C04 F095         8725           MOV     R9,R5
               R  8726           ?SYMB   'R8R9',$,100,4
0C06 98E0         8727           MOV     R14,[R0+]
               R  8728           ?SYMB   '',$,96,8
               R  8729           ?SYMB   'R14',$,100,2
0C08 98D0         8730           MOV     R13,[R0+]
               R  8731           ?SYMB   '',$,96,6
0C0A 98C0         8732           MOV     R12,[R0+]
               R  8733           ?SYMB   '',$,96,4
               R  8734           ?SYMB   'R12R13',$,100,3
                  8735   ; me_wnd.c 1369         if ( NULL == request )
                  8736           ?LINE   1369
0C0C F0F9         8737           MOV     R15,R9
0C0E 70F8         8738           OR      R15,R8
0C10 3D03         8739           JMPR    cc_NZ,_331
                  8740   ; me_wnd.c 1370                 return -1;
                  8741           ?LINE   1370
0C12 E6F4FFFF     8742           MOV     R4,#0FFFFh
0C16 0D19         8743           JMPR    cc_UC,_332
0C18              8744   _331:
               R  8745           ?SYMB   '',$,102,4
               R  8746           ?SYMB   '',$,102,2
               R  8747           ?SYMB   '',$,102,3
               R  8748           ?SYMB   'R8R9',$,100,4
               R  8749           ?SYMB   'R12R13',$,100,3
               R  8750           ?SYMB   'R14',$,100,2
                  8751   ; me_wnd.c 1371 
                  8752   ; me_wnd.c 1372     request->hWnd = hWnd;
                  8753           ?LINE   1372
0C18 DC59         8754           EXTP    R9,#02h
0C1A C4C83C01 2   8755           MOV     [R8+#013CH],R12
0C1E C4D83E01 1   8756           MOV     [R8+#013EH],R13
                  8757   ; me_wnd.c 1373     request->message = Msg;
                  8758   ; me_wnd.c 1374 
                  8759   ; me_wnd.c 1375     /* Fill the request */
                  8760   ; me_wnd.c 1376         request->request.cmd = ME_FAC_SETTING;
                  8761           ?LINE   1376
0C22 E6FC3400     8762           MOV     R12,#034h
                  8763           ?LINE   1373
0C26 DC59         8764           EXTP    R9,#02h
0C28 C4E84001 2   8765           MOV     [R8+#0140H],R14
               R  8766           ?SYMB   '',$,102,3
                  8767           ?LINE   1376
0C2C B8C8     1   8768           MOV     [R8],R12
                  8769   ; me_wnd.c 1377     request->request.reply = ME_WndCallback;
                  8770           ?LINE   1377
0C2E E6FD0000  R  8771           MOV     R13,#SOF _ME_WndCallback
0C32 E6FE0000  R  8772           MOV     R14,#SEG _ME_WndCallback
               R  8773           ?SYMB   '',$,102,2
0C36 DC59         8774           EXTP    R9,#02h
0C38 C4D80E00 2   8775           MOV     [R8+#0EH],R13
0C3C C4E81000 1   8776           MOV     [R8+#010H],R14
                  8777   ; me_wnd.c 1378 
                  8778   ; me_wnd.c 1379         retval = ME_Request( &(request->request) );
                  8779           ?LINE   1379
0C40 F0C8         8780           MOV     R12,R8
0C42 F0D9         8781           MOV     R13,R9
0C44 DA000000  R  8782           CALLS   SEG _ME_Request,_ME_Request
               R  8783           ?SYMB   '',$,102,4
0C48 F0C4         8784           MOV     R12,R4
               R  8785           ?SYMB   'R12',$,100,1
                  8786   ; me_wnd.c 1380 
                  8787   ; me_wnd.c 1381         return retval;
                  8788   ; me_wnd.c 1382 }
                  8789           ?LINE   1382
0C4A              8790   _332:
               R  8791           ?SYMB   '',$,102,1
0C4A 9880         8792           MOV     R8,[R0+]
               R  8793           ?SYMB   '',$,96,2
0C4C 9890         8794           MOV     R9,[R0+]
               R  8795           ?SYMB   '',$,96,0
0C4E DB00         8796           RETS
                  8797   _ME_FactoryDefaultSetting       ENDP
               R  8798           ?SYMB   '',$,17,1382
                  8799   ; me_wnd.c 1383 
                  8800   ; me_wnd.c 1384 int ME_ResetModule( HWND hWnd, int Msg )
                  8801   ; me_wnd.c 1385 {
                  8802           ?LINE   1385
                  8803           PUBLIC  _ME_ResetModule
               R  8804           ?SYMB   'ME_ResetModule',_ME_ResetModule,37,16
                  8805           ?SYMB   '',1385,8,34
                  8806   _ME_ResetModule PROC    FAR
                  8807           ?SYMB   '',0300H,95,0
0C50 8890         8808           MOV     [-R0],R9
               R  8809           ?SYMB   '',$,96,2
0C52 8880         8810           MOV     [-R0],R8
               R  8811           ?SYMB   '',$,96,4
                  8812   ; Locals:
                  8813   ; 
                  8814   ; Statics:
                  8815   ; 
                  8816   ; CSEs:
                  8817   ;     request = R8R9
                  8818   ;     retval = R12
                  8819   ;     hWnd = R12R13
                  8820   ;     Msg = R14
                  8821   ; 
                  8822           ?SYMB   'hWnd',3,99,394
                  8823           ?SYMB   'Msg',2,99,16
                  8824           ?SYMB   'retval',1,98,16
                  8825           ?SYMB   'request',4,98,547
               R  8826           ?SYMB   'R12R13',$,100,3
               R  8827           ?SYMB   'R14',$,100,2
                  8828   ; me_wnd.c 1386         int retval = 0;
                  8829   ; me_wnd.c 1387         struct ME_REQUEST_WIN * request;
                  8830   ; me_wnd.c 1388 
                  8831   ; me_wnd.c 1389         request = FindRequestStruct( -1 );
                  8832           ?LINE   1389
0C54 88C0         8833           MOV     [-R0],R12
               R  8834           ?SYMB   '',$,96,6
0C56 88D0         8835           MOV     [-R0],R13
               R  8836           ?SYMB   '',$,96,8
0C58 88E0         8837           MOV     [-R0],R14
               R  8838           ?SYMB   '',$,96,10
0C5A E6FCFFFF     8839           MOV     R12,#0FFFFh
               R  8840           ?SYMB   '',$,102,3
0C5E DA000000  R  8841           CALLS   SEG _FindRequestStruct,_FindRequestStruct
               R  8842           ?SYMB   '',$,102,2
0C62 F084         8843           MOV     R8,R4
0C64 F095         8844           MOV     R9,R5
               R  8845           ?SYMB   'R8R9',$,100,4
0C66 98E0         8846           MOV     R14,[R0+]
               R  8847           ?SYMB   '',$,96,8
               R  8848           ?SYMB   'R14',$,100,2
0C68 98D0         8849           MOV     R13,[R0+]
               R  8850           ?SYMB   '',$,96,6
0C6A 98C0         8851           MOV     R12,[R0+]
               R  8852           ?SYMB   '',$,96,4
               R  8853           ?SYMB   'R12R13',$,100,3
                  8854   ; me_wnd.c 1390         if ( NULL == request )
                  8855           ?LINE   1390
0C6C F0F9         8856           MOV     R15,R9
0C6E 70F8         8857           OR      R15,R8
0C70 3D03         8858           JMPR    cc_NZ,_335
                  8859   ; me_wnd.c 1391                 return -1;
                  8860           ?LINE   1391
0C72 E6F4FFFF     8861           MOV     R4,#0FFFFh
0C76 0D19         8862           JMPR    cc_UC,_336
0C78              8863   _335:
               R  8864           ?SYMB   '',$,102,4
               R  8865           ?SYMB   '',$,102,2
               R  8866           ?SYMB   '',$,102,3
               R  8867           ?SYMB   'R8R9',$,100,4
               R  8868           ?SYMB   'R12R13',$,100,3
               R  8869           ?SYMB   'R14',$,100,2
                  8870   ; me_wnd.c 1392 
                  8871   ; me_wnd.c 1393     request->hWnd = hWnd;
                  8872           ?LINE   1393
0C78 DC59         8873           EXTP    R9,#02h
0C7A C4C83C01 2   8874           MOV     [R8+#013CH],R12
0C7E C4D83E01 1   8875           MOV     [R8+#013EH],R13
                  8876   ; me_wnd.c 1394     request->message = Msg;
                  8877   ; me_wnd.c 1395 
                  8878   ; me_wnd.c 1396     /* Fill the request */
                  8879   ; me_wnd.c 1397         request->request.cmd = ME_RESET;
                  8880           ?LINE   1397
0C82 E6FC3500     8881           MOV     R12,#035h
                  8882           ?LINE   1394
0C86 DC59         8883           EXTP    R9,#02h
0C88 C4E84001 2   8884           MOV     [R8+#0140H],R14
               R  8885           ?SYMB   '',$,102,3
                  8886           ?LINE   1397
0C8C B8C8     1   8887           MOV     [R8],R12
                  8888   ; me_wnd.c 1398     request->request.reply = ME_WndCallback;
                  8889           ?LINE   1398
0C8E E6FD0000  R  8890           MOV     R13,#SOF _ME_WndCallback
0C92 E6FE0000  R  8891           MOV     R14,#SEG _ME_WndCallback
               R  8892           ?SYMB   '',$,102,2
0C96 DC59         8893           EXTP    R9,#02h
0C98 C4D80E00 2   8894           MOV     [R8+#0EH],R13
0C9C C4E81000 1   8895           MOV     [R8+#010H],R14
                  8896   ; me_wnd.c 1399 
                  8897   ; me_wnd.c 1400         retval = ME_Request( &(request->request) );
                  8898           ?LINE   1400
0CA0 F0C8         8899           MOV     R12,R8
0CA2 F0D9         8900           MOV     R13,R9
0CA4 DA000000  R  8901           CALLS   SEG _ME_Request,_ME_Request
               R  8902           ?SYMB   '',$,102,4
0CA8 F0C4         8903           MOV     R12,R4
               R  8904           ?SYMB   'R12',$,100,1
                  8905   ; me_wnd.c 1401 
                  8906   ; me_wnd.c 1402         return retval;
                  8907   ; me_wnd.c 1403 }
                  8908           ?LINE   1403
0CAA              8909   _336:
               R  8910           ?SYMB   '',$,102,1
0CAA 9880         8911           MOV     R8,[R0+]
               R  8912           ?SYMB   '',$,96,2
0CAC 9890         8913           MOV     R9,[R0+]
               R  8914           ?SYMB   '',$,96,0
0CAE DB00         8915           RETS
                  8916   _ME_ResetModule ENDP
               R  8917           ?SYMB   '',$,17,1403
                  8918   ; me_wnd.c 1404 
                  8919   ; me_wnd.c 1405 int ME_ShutdownModule( HWND hWnd, int Msg )
                  8920   ; me_wnd.c 1406 {
                  8921           ?LINE   1406
                  8922           PUBLIC  _ME_ShutdownModule
               R  8923           ?SYMB   'ME_ShutdownModule',_ME_ShutdownModule,37,16
                  8924           ?SYMB   '',1406,8,34
                  8925   _ME_ShutdownModule      PROC    FAR
                  8926           ?SYMB   '',0300H,95,0
0CB0 8890         8927           MOV     [-R0],R9
               R  8928           ?SYMB   '',$,96,2
0CB2 8880         8929           MOV     [-R0],R8
               R  8930           ?SYMB   '',$,96,4
                  8931   ; Locals:
                  8932   ; 
                  8933   ; Statics:
                  8934   ; 
                  8935   ; CSEs:
                  8936   ;     request = R8R9
                  8937   ;     retval = R12
                  8938   ;     hWnd = R12R13
                  8939   ;     Msg = R14
                  8940   ; 
                  8941           ?SYMB   'hWnd',3,99,394
                  8942           ?SYMB   'Msg',2,99,16
                  8943           ?SYMB   'retval',1,98,16
                  8944           ?SYMB   'request',4,98,547
               R  8945           ?SYMB   'R12R13',$,100,3
               R  8946           ?SYMB   'R14',$,100,2
                  8947   ; me_wnd.c 1407         int retval = 0;
                  8948   ; me_wnd.c 1408         struct ME_REQUEST_WIN * request;
                  8949   ; me_wnd.c 1409 
                  8950   ; me_wnd.c 1410         request = FindRequestStruct( -1 );
                  8951           ?LINE   1410
0CB4 88C0         8952           MOV     [-R0],R12
               R  8953           ?SYMB   '',$,96,6
0CB6 88D0         8954           MOV     [-R0],R13
               R  8955           ?SYMB   '',$,96,8
0CB8 88E0         8956           MOV     [-R0],R14
               R  8957           ?SYMB   '',$,96,10
0CBA E6FCFFFF     8958           MOV     R12,#0FFFFh
               R  8959           ?SYMB   '',$,102,3
0CBE DA000000  R  8960           CALLS   SEG _FindRequestStruct,_FindRequestStruct
               R  8961           ?SYMB   '',$,102,2
0CC2 F084         8962           MOV     R8,R4
0CC4 F095         8963           MOV     R9,R5
               R  8964           ?SYMB   'R8R9',$,100,4
0CC6 98E0         8965           MOV     R14,[R0+]
               R  8966           ?SYMB   '',$,96,8
               R  8967           ?SYMB   'R14',$,100,2
0CC8 98D0         8968           MOV     R13,[R0+]
               R  8969           ?SYMB   '',$,96,6
0CCA 98C0         8970           MOV     R12,[R0+]
               R  8971           ?SYMB   '',$,96,4
               R  8972           ?SYMB   'R12R13',$,100,3
                  8973   ; me_wnd.c 1411         if ( NULL == request )
                  8974           ?LINE   1411
0CCC F0F9         8975           MOV     R15,R9
0CCE 70F8         8976           OR      R15,R8
0CD0 3D03         8977           JMPR    cc_NZ,_339
                  8978   ; me_wnd.c 1412                 return -1;
                  8979           ?LINE   1412
0CD2 E6F4FFFF     8980           MOV     R4,#0FFFFh
0CD6 0D19         8981           JMPR    cc_UC,_340
0CD8              8982   _339:
               R  8983           ?SYMB   '',$,102,4
               R  8984           ?SYMB   '',$,102,2
               R  8985           ?SYMB   '',$,102,3
               R  8986           ?SYMB   'R8R9',$,100,4
               R  8987           ?SYMB   'R12R13',$,100,3
               R  8988           ?SYMB   'R14',$,100,2
                  8989   ; me_wnd.c 1413 
                  8990   ; me_wnd.c 1414     request->hWnd = hWnd;
                  8991           ?LINE   1414
0CD8 DC59         8992           EXTP    R9,#02h
0CDA C4C83C01 2   8993           MOV     [R8+#013CH],R12
0CDE C4D83E01 1   8994           MOV     [R8+#013EH],R13
                  8995   ; me_wnd.c 1415     request->message = Msg;
                  8996   ; me_wnd.c 1416 
                  8997   ; me_wnd.c 1417     /* Fill the request */
                  8998   ; me_wnd.c 1418         request->request.cmd = ME_SHUTDOWN;
                  8999           ?LINE   1418
0CE2 E6FC3600     9000           MOV     R12,#036h
                  9001           ?LINE   1415
0CE6 DC59         9002           EXTP    R9,#02h
0CE8 C4E84001 2   9003           MOV     [R8+#0140H],R14
               R  9004           ?SYMB   '',$,102,3
                  9005           ?LINE   1418
0CEC B8C8     1   9006           MOV     [R8],R12
                  9007   ; me_wnd.c 1419     request->request.reply = ME_WndCallback;
                  9008           ?LINE   1419
0CEE E6FD0000  R  9009           MOV     R13,#SOF _ME_WndCallback
0CF2 E6FE0000  R  9010           MOV     R14,#SEG _ME_WndCallback
               R  9011           ?SYMB   '',$,102,2
0CF6 DC59         9012           EXTP    R9,#02h
0CF8 C4D80E00 2   9013           MOV     [R8+#0EH],R13
0CFC C4E81000 1   9014           MOV     [R8+#010H],R14
                  9015   ; me_wnd.c 1420 
                  9016   ; me_wnd.c 1421         retval = ME_Request( &(request->request) );
                  9017           ?LINE   1421
0D00 F0C8         9018           MOV     R12,R8
0D02 F0D9         9019           MOV     R13,R9
0D04 DA000000  R  9020           CALLS   SEG _ME_Request,_ME_Request
               R  9021           ?SYMB   '',$,102,4
0D08 F0C4         9022           MOV     R12,R4
               R  9023           ?SYMB   'R12',$,100,1
                  9024   ; me_wnd.c 1422 
                  9025   ; me_wnd.c 1423         return retval;
                  9026   ; me_wnd.c 1424 }
                  9027           ?LINE   1424
0D0A              9028   _340:
               R  9029           ?SYMB   '',$,102,1
0D0A 9880         9030           MOV     R8,[R0+]
               R  9031           ?SYMB   '',$,96,2
0D0C 9890         9032           MOV     R9,[R0+]
               R  9033           ?SYMB   '',$,96,0
0D0E DB00         9034           RETS
                  9035   _ME_ShutdownModule      ENDP
               R  9036           ?SYMB   '',$,17,1424
                  9037   ; me_wnd.c 1425 
                  9038   ; me_wnd.c 1426 int ME_GetBatteryInfo( HWND hWnd, int Msg )
                  9039   ; me_wnd.c 1427 {
                  9040           ?LINE   1427
                  9041           PUBLIC  _ME_GetBatteryInfo
               R  9042           ?SYMB   'ME_GetBatteryInfo',_ME_GetBatteryInfo,37,16
                  9043           ?SYMB   '',1427,8,34
                  9044   _ME_GetBatteryInfo      PROC    FAR
                  9045           ?SYMB   '',0300H,95,0
0D10 8890         9046           MOV     [-R0],R9
               R  9047           ?SYMB   '',$,96,2
0D12 8880         9048           MOV     [-R0],R8
               R  9049           ?SYMB   '',$,96,4
                  9050   ; Locals:
                  9051   ; 
                  9052   ; Statics:
                  9053   ; 
                  9054   ; CSEs:
                  9055   ;     request = R8R9
                  9056   ;     retval = R12
                  9057   ;     hWnd = R12R13
                  9058   ;     Msg = R14
                  9059   ; 
                  9060           ?SYMB   'hWnd',3,99,394
                  9061           ?SYMB   'Msg',2,99,16
                  9062           ?SYMB   'retval',1,98,16
                  9063           ?SYMB   'request',4,98,547
               R  9064           ?SYMB   'R12R13',$,100,3
               R  9065           ?SYMB   'R14',$,100,2
                  9066   ; me_wnd.c 1428         int retval = 0;
                  9067   ; me_wnd.c 1429         struct ME_REQUEST_WIN * request;
                  9068   ; me_wnd.c 1430 
                  9069   ; me_wnd.c 1431         request = FindRequestStruct( -1 );
                  9070           ?LINE   1431
0D14 88C0         9071           MOV     [-R0],R12
               R  9072           ?SYMB   '',$,96,6
0D16 88D0         9073           MOV     [-R0],R13
               R  9074           ?SYMB   '',$,96,8
0D18 88E0         9075           MOV     [-R0],R14
               R  9076           ?SYMB   '',$,96,10
0D1A E6FCFFFF     9077           MOV     R12,#0FFFFh
               R  9078           ?SYMB   '',$,102,3
0D1E DA000000  R  9079           CALLS   SEG _FindRequestStruct,_FindRequestStruct
               R  9080           ?SYMB   '',$,102,2
0D22 F084         9081           MOV     R8,R4
0D24 F095         9082           MOV     R9,R5
               R  9083           ?SYMB   'R8R9',$,100,4
0D26 98E0         9084           MOV     R14,[R0+]
               R  9085           ?SYMB   '',$,96,8
               R  9086           ?SYMB   'R14',$,100,2
0D28 98D0         9087           MOV     R13,[R0+]
               R  9088           ?SYMB   '',$,96,6
0D2A 98C0         9089           MOV     R12,[R0+]
               R  9090           ?SYMB   '',$,96,4
               R  9091           ?SYMB   'R12R13',$,100,3
                  9092   ; me_wnd.c 1432         if ( NULL == request )
                  9093           ?LINE   1432
0D2C F0F9         9094           MOV     R15,R9
0D2E 70F8         9095           OR      R15,R8
0D30 3D03         9096           JMPR    cc_NZ,_343
                  9097   ; me_wnd.c 1433                 return -1;
                  9098           ?LINE   1433
0D32 E6F4FFFF     9099           MOV     R4,#0FFFFh
0D36 0D19         9100           JMPR    cc_UC,_344
0D38              9101   _343:
               R  9102           ?SYMB   '',$,102,4
               R  9103           ?SYMB   '',$,102,2
               R  9104           ?SYMB   '',$,102,3
               R  9105           ?SYMB   'R8R9',$,100,4
               R  9106           ?SYMB   'R12R13',$,100,3
               R  9107           ?SYMB   'R14',$,100,2
                  9108   ; me_wnd.c 1434 
                  9109   ; me_wnd.c 1435     request->hWnd = hWnd;
                  9110           ?LINE   1435
0D38 DC59         9111           EXTP    R9,#02h
0D3A C4C83C01 2   9112           MOV     [R8+#013CH],R12
0D3E C4D83E01 1   9113           MOV     [R8+#013EH],R13
                  9114   ; me_wnd.c 1436     request->message = Msg;
                  9115   ; me_wnd.c 1437 
                  9116   ; me_wnd.c 1438     /* Fill the request */
                  9117   ; me_wnd.c 1439         request->request.cmd = ME_GET_BATTERY;
                  9118           ?LINE   1439
0D42 E6FC3800     9119           MOV     R12,#038h
                  9120           ?LINE   1436
0D46 DC59         9121           EXTP    R9,#02h
0D48 C4E84001 2   9122           MOV     [R8+#0140H],R14
               R  9123           ?SYMB   '',$,102,3
                  9124           ?LINE   1439
0D4C B8C8     1   9125           MOV     [R8],R12
                  9126   ; me_wnd.c 1440     request->request.reply = ME_WndCallback;
                  9127           ?LINE   1440
0D4E E6FD0000  R  9128           MOV     R13,#SOF _ME_WndCallback
0D52 E6FE0000  R  9129           MOV     R14,#SEG _ME_WndCallback
               R  9130           ?SYMB   '',$,102,2
0D56 DC59         9131           EXTP    R9,#02h
0D58 C4D80E00 2   9132           MOV     [R8+#0EH],R13
0D5C C4E81000 1   9133           MOV     [R8+#010H],R14
                  9134   ; me_wnd.c 1441 
                  9135   ; me_wnd.c 1442         retval = ME_Request( &(request->request) );
                  9136           ?LINE   1442
0D60 F0C8         9137           MOV     R12,R8
0D62 F0D9         9138           MOV     R13,R9
0D64 DA000000  R  9139           CALLS   SEG _ME_Request,_ME_Request
               R  9140           ?SYMB   '',$,102,4
0D68 F0C4         9141           MOV     R12,R4
               R  9142           ?SYMB   'R12',$,100,1
                  9143   ; me_wnd.c 1443 
                  9144   ; me_wnd.c 1444         return retval;
                  9145   ; me_wnd.c 1445 }
                  9146           ?LINE   1445
0D6A              9147   _344:
               R  9148           ?SYMB   '',$,102,1
0D6A 9880         9149           MOV     R8,[R0+]
               R  9150           ?SYMB   '',$,96,2
0D6C 9890         9151           MOV     R9,[R0+]
               R  9152           ?SYMB   '',$,96,0
0D6E DB00         9153           RETS
                  9154   _ME_GetBatteryInfo      ENDP
               R  9155           ?SYMB   '',$,17,1445
                  9156   ; me_wnd.c 1446 
                  9157   ; me_wnd.c 1447 int ME_GetSignalInfo( HWND hWnd, int Msg )
                  9158   ; me_wnd.c 1448 {
                  9159           ?LINE   1448
                  9160           PUBLIC  _ME_GetSignalInfo
               R  9161           ?SYMB   'ME_GetSignalInfo',_ME_GetSignalInfo,37,16
                  9162           ?SYMB   '',1448,8,34
                  9163   _ME_GetSignalInfo       PROC    FAR
                  9164           ?SYMB   '',0300H,95,0
0D70 8890         9165           MOV     [-R0],R9
               R  9166           ?SYMB   '',$,96,2
0D72 8880         9167           MOV     [-R0],R8
               R  9168           ?SYMB   '',$,96,4
                  9169   ; Locals:
                  9170   ; 
                  9171   ; Statics:
                  9172   ; 
                  9173   ; CSEs:
                  9174   ;     request = R8R9
                  9175   ;     retval = R12
                  9176   ;     hWnd = R12R13
                  9177   ;     Msg = R14
                  9178   ; 
                  9179           ?SYMB   'hWnd',3,99,394
                  9180           ?SYMB   'Msg',2,99,16
                  9181           ?SYMB   'retval',1,98,16
                  9182           ?SYMB   'request',4,98,547
               R  9183           ?SYMB   'R12R13',$,100,3
               R  9184           ?SYMB   'R14',$,100,2
                  9185   ; me_wnd.c 1449         int retval = 0;
                  9186   ; me_wnd.c 1450         struct ME_REQUEST_WIN * request;
                  9187   ; me_wnd.c 1451 
                  9188   ; me_wnd.c 1452         request = FindRequestStruct( -1 );
                  9189           ?LINE   1452
0D74 88C0         9190           MOV     [-R0],R12
               R  9191           ?SYMB   '',$,96,6
0D76 88D0         9192           MOV     [-R0],R13
               R  9193           ?SYMB   '',$,96,8
0D78 88E0         9194           MOV     [-R0],R14
               R  9195           ?SYMB   '',$,96,10
0D7A E6FCFFFF     9196           MOV     R12,#0FFFFh
               R  9197           ?SYMB   '',$,102,3
0D7E DA000000  R  9198           CALLS   SEG _FindRequestStruct,_FindRequestStruct
               R  9199           ?SYMB   '',$,102,2
0D82 F084         9200           MOV     R8,R4
0D84 F095         9201           MOV     R9,R5
               R  9202           ?SYMB   'R8R9',$,100,4
0D86 98E0         9203           MOV     R14,[R0+]
               R  9204           ?SYMB   '',$,96,8
               R  9205           ?SYMB   'R14',$,100,2
0D88 98D0         9206           MOV     R13,[R0+]
               R  9207           ?SYMB   '',$,96,6
0D8A 98C0         9208           MOV     R12,[R0+]
               R  9209           ?SYMB   '',$,96,4
               R  9210           ?SYMB   'R12R13',$,100,3
                  9211   ; me_wnd.c 1453         if ( NULL == request )
                  9212           ?LINE   1453
0D8C F0F9         9213           MOV     R15,R9
0D8E 70F8         9214           OR      R15,R8
0D90 3D03         9215           JMPR    cc_NZ,_347
                  9216   ; me_wnd.c 1454                 return -1;
                  9217           ?LINE   1454
0D92 E6F4FFFF     9218           MOV     R4,#0FFFFh
0D96 0D19         9219           JMPR    cc_UC,_348
0D98              9220   _347:
               R  9221           ?SYMB   '',$,102,4
               R  9222           ?SYMB   '',$,102,2
               R  9223           ?SYMB   '',$,102,3
               R  9224           ?SYMB   'R8R9',$,100,4
               R  9225           ?SYMB   'R12R13',$,100,3
               R  9226           ?SYMB   'R14',$,100,2
                  9227   ; me_wnd.c 1455 
                  9228   ; me_wnd.c 1456     request->hWnd = hWnd;
                  9229           ?LINE   1456
0D98 DC59         9230           EXTP    R9,#02h
0D9A C4C83C01 2   9231           MOV     [R8+#013CH],R12
0D9E C4D83E01 1   9232           MOV     [R8+#013EH],R13
                  9233   ; me_wnd.c 1457     request->message = Msg;
                  9234   ; me_wnd.c 1458 
                  9235   ; me_wnd.c 1459     /* Fill the request */
                  9236   ; me_wnd.c 1460         request->request.cmd = ME_GET_SIGNAL;
                  9237           ?LINE   1460
0DA2 E6FC3700     9238           MOV     R12,#037h
                  9239           ?LINE   1457
0DA6 DC59         9240           EXTP    R9,#02h
0DA8 C4E84001 2   9241           MOV     [R8+#0140H],R14
               R  9242           ?SYMB   '',$,102,3
                  9243           ?LINE   1460
0DAC B8C8     1   9244           MOV     [R8],R12
                  9245   ; me_wnd.c 1461     request->request.reply = ME_WndCallback;
                  9246           ?LINE   1461
0DAE E6FD0000  R  9247           MOV     R13,#SOF _ME_WndCallback
0DB2 E6FE0000  R  9248           MOV     R14,#SEG _ME_WndCallback
               R  9249           ?SYMB   '',$,102,2
0DB6 DC59         9250           EXTP    R9,#02h
0DB8 C4D80E00 2   9251           MOV     [R8+#0EH],R13
0DBC C4E81000 1   9252           MOV     [R8+#010H],R14
                  9253   ; me_wnd.c 1462 
                  9254   ; me_wnd.c 1463         retval = ME_Request( &(request->request) );
                  9255           ?LINE   1463
0DC0 F0C8         9256           MOV     R12,R8
0DC2 F0D9         9257           MOV     R13,R9
0DC4 DA000000  R  9258           CALLS   SEG _ME_Request,_ME_Request
               R  9259           ?SYMB   '',$,102,4
0DC8 F0C4         9260           MOV     R12,R4
               R  9261           ?SYMB   'R12',$,100,1
                  9262   ; me_wnd.c 1464 
                  9263   ; me_wnd.c 1465         return retval;
                  9264   ; me_wnd.c 1466 }
                  9265           ?LINE   1466
0DCA              9266   _348:
               R  9267           ?SYMB   '',$,102,1
0DCA 9880         9268           MOV     R8,[R0+]
               R  9269           ?SYMB   '',$,96,2
0DCC 9890         9270           MOV     R9,[R0+]
               R  9271           ?SYMB   '',$,96,0
0DCE DB00         9272           RETS
                  9273   _ME_GetSignalInfo       ENDP
               R  9274           ?SYMB   '',$,17,1466
                  9275   ; me_wnd.c 1467 
                  9276   ; me_wnd.c 1468 int ME_STK_Send( HWND hwnd, int msg, STK_PARAM* param )
                  9277   ; me_wnd.c 1469 {
                  9278           ?LINE   1469
                  9279           PUBLIC  _ME_STK_Send
               R  9280           ?SYMB   'ME_STK_Send',_ME_STK_Send,37,16
                  9281           ?SYMB   '',1469,8,34
                  9282   _ME_STK_Send    PROC    FAR
                  9283           ?SYMB   '',0300H,95,0
0DD0 8890         9284           MOV     [-R0],R9
               R  9285           ?SYMB   '',$,96,2
0DD2 8880         9286           MOV     [-R0],R8
               R  9287           ?SYMB   '',$,96,4
                  9288   ; Locals:
                  9289   ; 
                  9290   ; Statics:
                  9291   ; 
                  9292   ; CSEs:
                  9293   ;     request = R8R9
                  9294   ;     retval = R12
                  9295   ;     hwnd = R12R13
                  9296   ;     param = offset 4
                  9297   ;     msg = R14
                  9298   ; 
                  9299           ?SYMB   'hwnd',3,99,394
                  9300           ?SYMB   'msg',2,99,16
                  9301           ?SYMB   '',01a0215H,38,619
                  9302           ?SYMB   'param',5,99,619
                  9303           ?SYMB   'retval',1,98,16
                  9304           ?SYMB   'request',4,98,547
               R  9305           ?SYMB   '0',$,101,5
               R  9306           ?SYMB   'R12R13',$,100,3
               R  9307           ?SYMB   'R14',$,100,2
                  9308   ; me_wnd.c 1470         int retval = 0;
                  9309   ; me_wnd.c 1471         struct ME_REQUEST_WIN* request;
                  9310   ; me_wnd.c 1472 
                  9311   ; me_wnd.c 1473         if ( param == NULL )
                  9312           ?LINE   1473
0DD4 D4F00400     9313           MOV     R15,[R0+#04H]
0DD8 D4100600     9314           MOV     R1,[R0+#06H]
0DDC 70F1         9315           OR      R15,R1
0DDE 2D0F         9316           JMPR    cc_Z,_357
                  9317   ; me_wnd.c 1474                 return -1;
                  9318   ; me_wnd.c 1475 
                  9319   ; me_wnd.c 1476         request = FindRequestStruct( -1 );
                  9320           ?LINE   1476
0DE0 88C0         9321           MOV     [-R0],R12
               R  9322           ?SYMB   '',$,96,6
0DE2 88D0         9323           MOV     [-R0],R13
               R  9324           ?SYMB   '',$,96,8
0DE4 88E0         9325           MOV     [-R0],R14
               R  9326           ?SYMB   '',$,96,10
0DE6 E6FCFFFF     9327           MOV     R12,#0FFFFh
               R  9328           ?SYMB   '',$,102,3
0DEA DA000000  R  9329           CALLS   SEG _FindRequestStruct,_FindRequestStruct
               R  9330           ?SYMB   '',$,102,2
0DEE F084         9331           MOV     R8,R4
0DF0 F095         9332           MOV     R9,R5
               R  9333           ?SYMB   'R8R9',$,100,4
0DF2 98E0         9334           MOV     R14,[R0+]
               R  9335           ?SYMB   '',$,96,8
               R  9336           ?SYMB   'R14',$,100,2
0DF4 98D0         9337           MOV     R13,[R0+]
               R  9338           ?SYMB   '',$,96,6
0DF6 98C0         9339           MOV     R12,[R0+]
               R  9340           ?SYMB   '',$,96,4
               R  9341           ?SYMB   'R12R13',$,100,3
                  9342   ; me_wnd.c 1477         if ( NULL == request )
                  9343           ?LINE   1477
0DF8 F0F9         9344           MOV     R15,R9
0DFA 70F8         9345           OR      R15,R8
0DFC 3D03         9346           JMPR    cc_NZ,_358
               R  9347           ?SYMB   '',$,102,5
                  9348   ; me_wnd.c 1478                 return -1;
                  9349           ?LINE   1478
0DFE              9350   _357:
               R  9351           ?SYMB   '',$,102,4
               R  9352           ?SYMB   '',$,102,2
               R  9353           ?SYMB   '',$,102,3
0DFE E6F4FFFF     9354           MOV     R4,#0FFFFh
0E02 0D27         9355           JMPR    cc_UC,_359
0E04              9356   _358:
               R  9357           ?SYMB   '0',$,101,5
               R  9358           ?SYMB   'R8R9',$,100,4
               R  9359           ?SYMB   'R12R13',$,100,3
               R  9360           ?SYMB   'R14',$,100,2
                  9361   ; me_wnd.c 1479 
                  9362   ; me_wnd.c 1480     request->hWnd = hwnd;
                  9363           ?LINE   1480
0E04 DC59         9364           EXTP    R9,#02h
0E06 C4C83C01 2   9365           MOV     [R8+#013CH],R12
0E0A C4D83E01 1   9366           MOV     [R8+#013EH],R13
                  9367   ; me_wnd.c 1481     request->message = msg;
                  9368           ?LINE   1481
0E0E DC49         9369           EXTP    R9,#01h
0E10 C4E84001 1   9370           MOV     [R8+#0140H],R14
                  9371   ; me_wnd.c 1482 
                  9372   ; me_wnd.c 1483     /* Fill the request */
                  9373   ; me_wnd.c 1484         request->request.cmddata = param;
                  9374           ?LINE   1484
0E14 D4C00400     9375           MOV     R12,[R0+#04H]
               R  9376           ?SYMB   '',$,102,3
0E18 D4D00600     9377           MOV     R13,[R0+#06H]
0E1C DC59         9378           EXTP    R9,#02h
0E1E C4C80800 2   9379           MOV     [R8+#08H],R12
0E22 C4D80A00 1   9380           MOV     [R8+#0AH],R13
                  9381   ; me_wnd.c 1485         request->request.cmddata_len = sizeof( STK_PARAM );
                  9382           ?LINE   1485
0E26 E6FE4A00     9383           MOV     R14,#04Ah
               R  9384           ?SYMB   '',$,102,2
                  9385   ; me_wnd.c 1486 
                  9386   ; me_wnd.c 1487         request->request.cmd = ME_STK_SEND;
                  9387           ?LINE   1487
0E2A E6FF3900     9388           MOV     R15,#039h
                  9389           ?LINE   1485
0E2E DC59         9390           EXTP    R9,#02h
0E30 C4E80C00 2   9391           MOV     [R8+#0CH],R14
                  9392           ?LINE   1487
0E34 B8F8     1   9393           MOV     [R8],R15
                  9394   ; me_wnd.c 1488     request->request.reply = ME_WndCallback;
                  9395           ?LINE   1488
0E36 E6F10000  R  9396           MOV     R1,#SOF _ME_WndCallback
0E3A E6F20000  R  9397           MOV     R2,#SEG _ME_WndCallback
0E3E DC59         9398           EXTP    R9,#02h
0E40 C4180E00 2   9399           MOV     [R8+#0EH],R1
0E44 C4281000 1   9400           MOV     [R8+#010H],R2
                  9401   ; me_wnd.c 1489 
                  9402   ; me_wnd.c 1490         retval = ME_Request( &(request->request) );
                  9403           ?LINE   1490
0E48 F0C8         9404           MOV     R12,R8
0E4A F0D9         9405           MOV     R13,R9
0E4C DA000000  R  9406           CALLS   SEG _ME_Request,_ME_Request
               R  9407           ?SYMB   '',$,102,4
0E50 F0C4         9408           MOV     R12,R4
               R  9409           ?SYMB   'R12',$,100,1
                  9410   ; me_wnd.c 1491 
                  9411   ; me_wnd.c 1492         return retval;
                  9412   ; me_wnd.c 1493 }
                  9413           ?LINE   1493
0E52              9414   _359:
               R  9415           ?SYMB   '',$,102,1
0E52 9880         9416           MOV     R8,[R0+]
               R  9417           ?SYMB   '',$,96,2
0E54 9890         9418           MOV     R9,[R0+]
               R  9419           ?SYMB   '',$,96,0
0E56 DB00         9420           RETS
                  9421   _ME_STK_Send    ENDP
               R  9422           ?SYMB   '',$,17,1493
                  9423   ; me_wnd.c 1494 
                  9424   ; me_wnd.c 1495 int ME_STK_GetRemoteSAT( HWND hwnd, int msg )
                  9425   ; me_wnd.c 1496 {
                  9426           ?LINE   1496
                  9427           PUBLIC  _ME_STK_GetRemoteSAT
               R  9428           ?SYMB   'ME_STK_GetRemoteSAT',_ME_STK_GetRemoteSAT,37,16
                  9429           ?SYMB   '',1496,8,34
                  9430   _ME_STK_GetRemoteSAT    PROC    FAR
                  9431           ?SYMB   '',0300H,95,0
0E58 8890         9432           MOV     [-R0],R9
               R  9433           ?SYMB   '',$,96,2
0E5A 8880         9434           MOV     [-R0],R8
               R  9435           ?SYMB   '',$,96,4
                  9436   ; Locals:
                  9437   ; 
                  9438   ; Statics:
                  9439   ; 
                  9440   ; CSEs:
                  9441   ;     request = R8R9
                  9442   ;     retval = R12
                  9443   ;     hwnd = R12R13
                  9444   ;     msg = R14
                  9445   ; 
                  9446           ?SYMB   'hwnd',3,99,394
                  9447           ?SYMB   'msg',2,99,16
                  9448           ?SYMB   'retval',1,98,16
                  9449           ?SYMB   'request',4,98,547
               R  9450           ?SYMB   'R12R13',$,100,3
               R  9451           ?SYMB   'R14',$,100,2
                  9452   ; me_wnd.c 1497         int retval = 0;
                  9453   ; me_wnd.c 1498         struct ME_REQUEST_WIN* request;
                  9454   ; me_wnd.c 1499 
                  9455   ; me_wnd.c 1500         request = FindRequestStruct( -1 );
                  9456           ?LINE   1500
0E5C 88C0         9457           MOV     [-R0],R12
               R  9458           ?SYMB   '',$,96,6
0E5E 88D0         9459           MOV     [-R0],R13
               R  9460           ?SYMB   '',$,96,8
0E60 88E0         9461           MOV     [-R0],R14
               R  9462           ?SYMB   '',$,96,10
0E62 E6FCFFFF     9463           MOV     R12,#0FFFFh
               R  9464           ?SYMB   '',$,102,3
0E66 DA000000  R  9465           CALLS   SEG _FindRequestStruct,_FindRequestStruct
               R  9466           ?SYMB   '',$,102,2
0E6A F084         9467           MOV     R8,R4
0E6C F095         9468           MOV     R9,R5
               R  9469           ?SYMB   'R8R9',$,100,4
0E6E 98E0         9470           MOV     R14,[R0+]
               R  9471           ?SYMB   '',$,96,8
               R  9472           ?SYMB   'R14',$,100,2
0E70 98D0         9473           MOV     R13,[R0+]
               R  9474           ?SYMB   '',$,96,6
0E72 98C0         9475           MOV     R12,[R0+]
               R  9476           ?SYMB   '',$,96,4
               R  9477           ?SYMB   'R12R13',$,100,3
                  9478   ; me_wnd.c 1501         if ( NULL == request )
                  9479           ?LINE   1501
0E74 F0F9         9480           MOV     R15,R9
0E76 70F8         9481           OR      R15,R8
0E78 3D03         9482           JMPR    cc_NZ,_362
                  9483   ; me_wnd.c 1502                 return -1;
                  9484           ?LINE   1502
0E7A E6F4FFFF     9485           MOV     R4,#0FFFFh
0E7E 0D19         9486           JMPR    cc_UC,_363
0E80              9487   _362:
               R  9488           ?SYMB   '',$,102,4
               R  9489           ?SYMB   '',$,102,2
               R  9490           ?SYMB   '',$,102,3
               R  9491           ?SYMB   'R8R9',$,100,4
               R  9492           ?SYMB   'R12R13',$,100,3
               R  9493           ?SYMB   'R14',$,100,2
                  9494   ; me_wnd.c 1503 
                  9495   ; me_wnd.c 1504     request->hWnd = hwnd;
                  9496           ?LINE   1504
0E80 DC59         9497           EXTP    R9,#02h
0E82 C4C83C01 2   9498           MOV     [R8+#013CH],R12
0E86 C4D83E01 1   9499           MOV     [R8+#013EH],R13
                  9500   ; me_wnd.c 1505     request->message = msg;
                  9501   ; me_wnd.c 1506 
                  9502   ; me_wnd.c 1507     /* Fill the request */
                  9503   ; me_wnd.c 1508         request->request.cmd = ME_STK_GETSAT;
                  9504           ?LINE   1508
0E8A E6FC3A00     9505           MOV     R12,#03Ah
                  9506           ?LINE   1505
0E8E DC59         9507           EXTP    R9,#02h
0E90 C4E84001 2   9508           MOV     [R8+#0140H],R14
               R  9509           ?SYMB   '',$,102,3
                  9510           ?LINE   1508
0E94 B8C8     1   9511           MOV     [R8],R12
                  9512   ; me_wnd.c 1509     request->request.reply = ME_WndCallback;
                  9513           ?LINE   1509
0E96 E6FD0000  R  9514           MOV     R13,#SOF _ME_WndCallback
0E9A E6FE0000  R  9515           MOV     R14,#SEG _ME_WndCallback
               R  9516           ?SYMB   '',$,102,2
0E9E DC59         9517           EXTP    R9,#02h
0EA0 C4D80E00 2   9518           MOV     [R8+#0EH],R13
0EA4 C4E81000 1   9519           MOV     [R8+#010H],R14
                  9520   ; me_wnd.c 1510 
                  9521   ; me_wnd.c 1511         retval = ME_Request( &(request->request) );
                  9522           ?LINE   1511
0EA8 F0C8         9523           MOV     R12,R8
0EAA F0D9         9524           MOV     R13,R9
0EAC DA000000  R  9525           CALLS   SEG _ME_Request,_ME_Request
               R  9526           ?SYMB   '',$,102,4
0EB0 F0C4         9527           MOV     R12,R4
               R  9528           ?SYMB   'R12',$,100,1
                  9529   ; me_wnd.c 1512 
                  9530   ; me_wnd.c 1513         return retval;
                  9531   ; me_wnd.c 1514 }
                  9532           ?LINE   1514
0EB2              9533   _363:
               R  9534           ?SYMB   '',$,102,1
0EB2 9880         9535           MOV     R8,[R0+]
               R  9536           ?SYMB   '',$,96,2
0EB4 9890         9537           MOV     R9,[R0+]
               R  9538           ?SYMB   '',$,96,0
0EB6 DB00         9539           RETS
                  9540   _ME_STK_GetRemoteSAT    ENDP
               R  9541           ?SYMB   '',$,17,1514
                  9542   ; me_wnd.c 1515 
                  9543   ; me_wnd.c 1516 int ME_SMS_Acknowledge( HWND hwnd, int msg )
                  9544   ; me_wnd.c 1517 {
                  9545           ?LINE   1517
                  9546           PUBLIC  _ME_SMS_Acknowledge
               R  9547           ?SYMB   'ME_SMS_Acknowledge',_ME_SMS_Acknowledge,37,16
                  9548           ?SYMB   '',1517,8,34
                  9549   _ME_SMS_Acknowledge     PROC    FAR
                  9550           ?SYMB   '',0300H,95,0
0EB8 8890         9551           MOV     [-R0],R9
               R  9552           ?SYMB   '',$,96,2
0EBA 8880         9553           MOV     [-R0],R8
               R  9554           ?SYMB   '',$,96,4
                  9555   ; Locals:
                  9556   ; 
                  9557   ; Statics:
                  9558   ; 
                  9559   ; CSEs:
                  9560   ;     request = R8R9
                  9561   ;     retval = R12
                  9562   ;     hwnd = R12R13
                  9563   ;     msg = R14
                  9564   ; 
                  9565           ?SYMB   'hwnd',3,99,394
                  9566           ?SYMB   'msg',2,99,16
                  9567           ?SYMB   'retval',1,98,16
                  9568           ?SYMB   'request',4,98,547
               R  9569           ?SYMB   'R12R13',$,100,3
               R  9570           ?SYMB   'R14',$,100,2
                  9571   ; me_wnd.c 1518         int retval = 0;
                  9572   ; me_wnd.c 1519         struct ME_REQUEST_WIN* request;
                  9573   ; me_wnd.c 1520 
                  9574   ; me_wnd.c 1521         request = FindRequestStruct( -1 );
                  9575           ?LINE   1521
0EBC 88C0         9576           MOV     [-R0],R12
               R  9577           ?SYMB   '',$,96,6
0EBE 88D0         9578           MOV     [-R0],R13
               R  9579           ?SYMB   '',$,96,8
0EC0 88E0         9580           MOV     [-R0],R14
               R  9581           ?SYMB   '',$,96,10
0EC2 E6FCFFFF     9582           MOV     R12,#0FFFFh
               R  9583           ?SYMB   '',$,102,3
0EC6 DA000000  R  9584           CALLS   SEG _FindRequestStruct,_FindRequestStruct
               R  9585           ?SYMB   '',$,102,2
0ECA F084         9586           MOV     R8,R4
0ECC F095         9587           MOV     R9,R5
               R  9588           ?SYMB   'R8R9',$,100,4
0ECE 98E0         9589           MOV     R14,[R0+]
               R  9590           ?SYMB   '',$,96,8
               R  9591           ?SYMB   'R14',$,100,2
0ED0 98D0         9592           MOV     R13,[R0+]
               R  9593           ?SYMB   '',$,96,6
0ED2 98C0         9594           MOV     R12,[R0+]
               R  9595           ?SYMB   '',$,96,4
               R  9596           ?SYMB   'R12R13',$,100,3
                  9597   ; me_wnd.c 1522         if ( NULL == request )
                  9598           ?LINE   1522
0ED4 F0F9         9599           MOV     R15,R9
0ED6 70F8         9600           OR      R15,R8
0ED8 3D03         9601           JMPR    cc_NZ,_366
                  9602   ; me_wnd.c 1523                 return -1;
                  9603           ?LINE   1523
0EDA E6F4FFFF     9604           MOV     R4,#0FFFFh
0EDE 0D19         9605           JMPR    cc_UC,_367
0EE0              9606   _366:
               R  9607           ?SYMB   '',$,102,4
               R  9608           ?SYMB   '',$,102,2
               R  9609           ?SYMB   '',$,102,3
               R  9610           ?SYMB   'R8R9',$,100,4
               R  9611           ?SYMB   'R12R13',$,100,3
               R  9612           ?SYMB   'R14',$,100,2
                  9613   ; me_wnd.c 1524 
                  9614   ; me_wnd.c 1525     request->hWnd = hwnd;
                  9615           ?LINE   1525
0EE0 DC59         9616           EXTP    R9,#02h
0EE2 C4C83C01 2   9617           MOV     [R8+#013CH],R12
0EE6 C4D83E01 1   9618           MOV     [R8+#013EH],R13
                  9619   ; me_wnd.c 1526     request->message = msg;
                  9620   ; me_wnd.c 1527 
                  9621   ; me_wnd.c 1528     /* Fill the request */
                  9622   ; me_wnd.c 1529         request->request.cmd = ME_SMS_ACK;
                  9623           ?LINE   1529
0EEA E6FC1F00     9624           MOV     R12,#01Fh
                  9625           ?LINE   1526
0EEE DC59         9626           EXTP    R9,#02h
0EF0 C4E84001 2   9627           MOV     [R8+#0140H],R14
               R  9628           ?SYMB   '',$,102,3
                  9629           ?LINE   1529
0EF4 B8C8     1   9630           MOV     [R8],R12
                  9631   ; me_wnd.c 1530     request->request.reply = ME_WndCallback;
                  9632           ?LINE   1530
0EF6 E6FD0000  R  9633           MOV     R13,#SOF _ME_WndCallback
0EFA E6FE0000  R  9634           MOV     R14,#SEG _ME_WndCallback
               R  9635           ?SYMB   '',$,102,2
0EFE DC59         9636           EXTP    R9,#02h
0F00 C4D80E00 2   9637           MOV     [R8+#0EH],R13
0F04 C4E81000 1   9638           MOV     [R8+#010H],R14
                  9639   ; me_wnd.c 1531 
                  9640   ; me_wnd.c 1532         retval = ME_Request( &(request->request) );
                  9641           ?LINE   1532
0F08 F0C8         9642           MOV     R12,R8
0F0A F0D9         9643           MOV     R13,R9
0F0C DA000000  R  9644           CALLS   SEG _ME_Request,_ME_Request
               R  9645           ?SYMB   '',$,102,4
0F10 F0C4         9646           MOV     R12,R4
               R  9647           ?SYMB   'R12',$,100,1
                  9648   ; me_wnd.c 1533 
                  9649   ; me_wnd.c 1534         return retval;
                  9650   ; me_wnd.c 1535 }
                  9651           ?LINE   1535
0F12              9652   _367:
               R  9653           ?SYMB   '',$,102,1
0F12 9880         9654           MOV     R8,[R0+]
               R  9655           ?SYMB   '',$,96,2
0F14 9890         9656           MOV     R9,[R0+]
               R  9657           ?SYMB   '',$,96,0
0F16 DB00         9658           RETS
                  9659   _ME_SMS_Acknowledge     ENDP
               R  9660           ?SYMB   '',$,17,1535
                  9661   ; me_wnd.c 1536 
                  9662   ; me_wnd.c 1537 int ME_GetServCellInfo( HWND hwnd, int msg )
                  9663   ; me_wnd.c 1538 {
                  9664           ?LINE   1538
                  9665           PUBLIC  _ME_GetServCellInfo
               R  9666           ?SYMB   'ME_GetServCellInfo',_ME_GetServCellInfo,37,16
                  9667           ?SYMB   '',1538,8,34
                  9668   _ME_GetServCellInfo     PROC    FAR
                  9669           ?SYMB   '',0300H,95,0
0F18 8890         9670           MOV     [-R0],R9
               R  9671           ?SYMB   '',$,96,2
0F1A 8880         9672           MOV     [-R0],R8
               R  9673           ?SYMB   '',$,96,4
                  9674   ; Locals:
                  9675   ; 
                  9676   ; Statics:
                  9677   ; 
                  9678   ; CSEs:
                  9679   ;     request = R8R9
                  9680   ;     retval = R12
                  9681   ;     hwnd = R12R13
                  9682   ;     msg = R14
                  9683   ; 
                  9684           ?SYMB   'hwnd',3,99,394
                  9685           ?SYMB   'msg',2,99,16
                  9686           ?SYMB   'retval',1,98,16
                  9687           ?SYMB   'request',4,98,547
               R  9688           ?SYMB   'R12R13',$,100,3
               R  9689           ?SYMB   'R14',$,100,2
                  9690   ; me_wnd.c 1539         int retval = 0;
                  9691   ; me_wnd.c 1540         struct ME_REQUEST_WIN* request;
                  9692   ; me_wnd.c 1541 
                  9693   ; me_wnd.c 1542         request = FindRequestStruct( -1 );
                  9694           ?LINE   1542
0F1C 88C0         9695           MOV     [-R0],R12
               R  9696           ?SYMB   '',$,96,6
0F1E 88D0         9697           MOV     [-R0],R13
               R  9698           ?SYMB   '',$,96,8
0F20 88E0         9699           MOV     [-R0],R14
               R  9700           ?SYMB   '',$,96,10
0F22 E6FCFFFF     9701           MOV     R12,#0FFFFh
               R  9702           ?SYMB   '',$,102,3
0F26 DA000000  R  9703           CALLS   SEG _FindRequestStruct,_FindRequestStruct
               R  9704           ?SYMB   '',$,102,2
0F2A F084         9705           MOV     R8,R4
0F2C F095         9706           MOV     R9,R5
               R  9707           ?SYMB   'R8R9',$,100,4
0F2E 98E0         9708           MOV     R14,[R0+]
               R  9709           ?SYMB   '',$,96,8
               R  9710           ?SYMB   'R14',$,100,2
0F30 98D0         9711           MOV     R13,[R0+]
               R  9712           ?SYMB   '',$,96,6
0F32 98C0         9713           MOV     R12,[R0+]
               R  9714           ?SYMB   '',$,96,4
               R  9715           ?SYMB   'R12R13',$,100,3
                  9716   ; me_wnd.c 1543         if ( NULL == request )
                  9717           ?LINE   1543
0F34 F0F9         9718           MOV     R15,R9
0F36 70F8         9719           OR      R15,R8
0F38 3D03         9720           JMPR    cc_NZ,_370
                  9721   ; me_wnd.c 1544                 return -1;
                  9722           ?LINE   1544
0F3A E6F4FFFF     9723           MOV     R4,#0FFFFh
0F3E 0D19         9724           JMPR    cc_UC,_371
0F40              9725   _370:
               R  9726           ?SYMB   '',$,102,4
               R  9727           ?SYMB   '',$,102,2
               R  9728           ?SYMB   '',$,102,3
               R  9729           ?SYMB   'R8R9',$,100,4
               R  9730           ?SYMB   'R12R13',$,100,3
               R  9731           ?SYMB   'R14',$,100,2
                  9732   ; me_wnd.c 1545 
                  9733   ; me_wnd.c 1546     request->hWnd = hwnd;
                  9734           ?LINE   1546
0F40 DC59         9735           EXTP    R9,#02h
0F42 C4C83C01 2   9736           MOV     [R8+#013CH],R12
0F46 C4D83E01 1   9737           MOV     [R8+#013EH],R13
                  9738   ; me_wnd.c 1547     request->message = msg;
                  9739   ; me_wnd.c 1548 
                  9740   ; me_wnd.c 1549     /* Fill the request */
                  9741   ; me_wnd.c 1550         request->request.cmd = ME_MONI_SERV;
                  9742           ?LINE   1550
0F4A E6FC3B00     9743           MOV     R12,#03Bh
                  9744           ?LINE   1547
0F4E DC59         9745           EXTP    R9,#02h
0F50 C4E84001 2   9746           MOV     [R8+#0140H],R14
               R  9747           ?SYMB   '',$,102,3
                  9748           ?LINE   1550
0F54 B8C8     1   9749           MOV     [R8],R12
                  9750   ; me_wnd.c 1551     request->request.reply = ME_WndCallback;
                  9751           ?LINE   1551
0F56 E6FD0000  R  9752           MOV     R13,#SOF _ME_WndCallback
0F5A E6FE0000  R  9753           MOV     R14,#SEG _ME_WndCallback
               R  9754           ?SYMB   '',$,102,2
0F5E DC59         9755           EXTP    R9,#02h
0F60 C4D80E00 2   9756           MOV     [R8+#0EH],R13
0F64 C4E81000 1   9757           MOV     [R8+#010H],R14
                  9758   ; me_wnd.c 1552 
                  9759   ; me_wnd.c 1553         retval = ME_Request( &(request->request) );
                  9760           ?LINE   1553
0F68 F0C8         9761           MOV     R12,R8
0F6A F0D9         9762           MOV     R13,R9
0F6C DA000000  R  9763           CALLS   SEG _ME_Request,_ME_Request
               R  9764           ?SYMB   '',$,102,4
0F70 F0C4         9765           MOV     R12,R4
               R  9766           ?SYMB   'R12',$,100,1
                  9767   ; me_wnd.c 1554 
                  9768   ; me_wnd.c 1555         return retval;
                  9769   ; me_wnd.c 1556 }
                  9770           ?LINE   1556
0F72              9771   _371:
               R  9772           ?SYMB   '',$,102,1
0F72 9880         9773           MOV     R8,[R0+]
               R  9774           ?SYMB   '',$,96,2
0F74 9890         9775           MOV     R9,[R0+]
               R  9776           ?SYMB   '',$,96,0
0F76 DB00         9777           RETS
                  9778   _ME_GetServCellInfo     ENDP
               R  9779           ?SYMB   '',$,17,1556
                  9780   ; me_wnd.c 1557 
                  9781   ; me_wnd.c 1558 int ME_GetNeibCellInfo( HWND hwnd, int msg )
                  9782   ; me_wnd.c 1559 {
                  9783           ?LINE   1559
                  9784           PUBLIC  _ME_GetNeibCellInfo
               R  9785           ?SYMB   'ME_GetNeibCellInfo',_ME_GetNeibCellInfo,37,16
                  9786           ?SYMB   '',1559,8,34
                  9787   _ME_GetNeibCellInfo     PROC    FAR
                  9788           ?SYMB   '',0300H,95,0
0F78 8890         9789           MOV     [-R0],R9
               R  9790           ?SYMB   '',$,96,2
0F7A 8880         9791           MOV     [-R0],R8
               R  9792           ?SYMB   '',$,96,4
                  9793   ; Locals:
                  9794   ; 
                  9795   ; Statics:
                  9796   ; 
                  9797   ; CSEs:
                  9798   ;     request = R8R9
                  9799   ;     retval = R12
                  9800   ;     hwnd = R12R13
                  9801   ;     msg = R14
                  9802   ; 
                  9803           ?SYMB   'hwnd',3,99,394
                  9804           ?SYMB   'msg',2,99,16
                  9805           ?SYMB   'retval',1,98,16
                  9806           ?SYMB   'request',4,98,547
               R  9807           ?SYMB   'R12R13',$,100,3
               R  9808           ?SYMB   'R14',$,100,2
                  9809   ; me_wnd.c 1560         int retval = 0;
                  9810   ; me_wnd.c 1561         struct ME_REQUEST_WIN* request;
                  9811   ; me_wnd.c 1562 
                  9812   ; me_wnd.c 1563         request = FindRequestStruct( -1 );
                  9813           ?LINE   1563
0F7C 88C0         9814           MOV     [-R0],R12
               R  9815           ?SYMB   '',$,96,6
0F7E 88D0         9816           MOV     [-R0],R13
               R  9817           ?SYMB   '',$,96,8
0F80 88E0         9818           MOV     [-R0],R14
               R  9819           ?SYMB   '',$,96,10
0F82 E6FCFFFF     9820           MOV     R12,#0FFFFh
               R  9821           ?SYMB   '',$,102,3
0F86 DA000000  R  9822           CALLS   SEG _FindRequestStruct,_FindRequestStruct
               R  9823           ?SYMB   '',$,102,2
0F8A F084         9824           MOV     R8,R4
0F8C F095         9825           MOV     R9,R5
               R  9826           ?SYMB   'R8R9',$,100,4
0F8E 98E0         9827           MOV     R14,[R0+]
               R  9828           ?SYMB   '',$,96,8
               R  9829           ?SYMB   'R14',$,100,2
0F90 98D0         9830           MOV     R13,[R0+]
               R  9831           ?SYMB   '',$,96,6
0F92 98C0         9832           MOV     R12,[R0+]
               R  9833           ?SYMB   '',$,96,4
               R  9834           ?SYMB   'R12R13',$,100,3
                  9835   ; me_wnd.c 1564         if ( NULL == request )
                  9836           ?LINE   1564
0F94 F0F9         9837           MOV     R15,R9
0F96 70F8         9838           OR      R15,R8
0F98 3D03         9839           JMPR    cc_NZ,_374
                  9840   ; me_wnd.c 1565                 return -1;
                  9841           ?LINE   1565
0F9A E6F4FFFF     9842           MOV     R4,#0FFFFh
0F9E 0D19         9843           JMPR    cc_UC,_375
0FA0              9844   _374:
               R  9845           ?SYMB   '',$,102,4
               R  9846           ?SYMB   '',$,102,2
               R  9847           ?SYMB   '',$,102,3
               R  9848           ?SYMB   'R8R9',$,100,4
               R  9849           ?SYMB   'R12R13',$,100,3
               R  9850           ?SYMB   'R14',$,100,2
                  9851   ; me_wnd.c 1566 
                  9852   ; me_wnd.c 1567     request->hWnd = hwnd;
                  9853           ?LINE   1567
0FA0 DC59         9854           EXTP    R9,#02h
0FA2 C4C83C01 2   9855           MOV     [R8+#013CH],R12
0FA6 C4D83E01 1   9856           MOV     [R8+#013EH],R13
                  9857   ; me_wnd.c 1568     request->message = msg;
                  9858   ; me_wnd.c 1569 
                  9859   ; me_wnd.c 1570     /* Fill the request */
                  9860   ; me_wnd.c 1571         request->request.cmd = ME_MONI_NEIB;
                  9861           ?LINE   1571
0FAA E6FC3C00     9862           MOV     R12,#03Ch
                  9863           ?LINE   1568
0FAE DC59         9864           EXTP    R9,#02h
0FB0 C4E84001 2   9865           MOV     [R8+#0140H],R14
               R  9866           ?SYMB   '',$,102,3
                  9867           ?LINE   1571
0FB4 B8C8     1   9868           MOV     [R8],R12
                  9869   ; me_wnd.c 1572     request->request.reply = ME_WndCallback;
                  9870           ?LINE   1572
0FB6 E6FD0000  R  9871           MOV     R13,#SOF _ME_WndCallback
0FBA E6FE0000  R  9872           MOV     R14,#SEG _ME_WndCallback
               R  9873           ?SYMB   '',$,102,2
0FBE DC59         9874           EXTP    R9,#02h
0FC0 C4D80E00 2   9875           MOV     [R8+#0EH],R13
0FC4 C4E81000 1   9876           MOV     [R8+#010H],R14
                  9877   ; me_wnd.c 1573 
                  9878   ; me_wnd.c 1574         retval = ME_Request( &(request->request) );
                  9879           ?LINE   1574
0FC8 F0C8         9880           MOV     R12,R8
0FCA F0D9         9881           MOV     R13,R9
0FCC DA000000  R  9882           CALLS   SEG _ME_Request,_ME_Request
               R  9883           ?SYMB   '',$,102,4
0FD0 F0C4         9884           MOV     R12,R4
               R  9885           ?SYMB   'R12',$,100,1
                  9886   ; me_wnd.c 1575 
                  9887   ; me_wnd.c 1576         return retval;
                  9888   ; me_wnd.c 1577 }
                  9889           ?LINE   1577
0FD2              9890   _375:
               R  9891           ?SYMB   '',$,102,1
0FD2 9880         9892           MOV     R8,[R0+]
               R  9893           ?SYMB   '',$,96,2
0FD4 9890         9894           MOV     R9,[R0+]
               R  9895           ?SYMB   '',$,96,0
0FD6 DB00         9896           RETS
                  9897   _ME_GetNeibCellInfo     ENDP
               R  9898           ?SYMB   '',$,17,1577
                  9899   ME_WND_3_PR     ENDS
                  9900   
                  9901   ME_WND_4_CO     SECTION DATA WORD PUBLIC 'CROM'
0000 0D0A4D45     9902   _56     DB      0Dh,0Ah,04Dh,045h,020h,046h,069h,06Eh,064h,020h
0004 2046696E    
0008 6420        
000A 52657175     9903           DB      052h,065h,071h,075h,065h,073h,074h,020h,053h,074h
000E 65737420    
0012 5374        
0014 72756374     9904           DB      072h,075h,063h,074h,020h,046h,061h,069h,06Ch,021h
0018 20466169    
001C 6C21        
001E 00           9905           DB      00h
001F 0D0A4D45     9906   _57     DB      0Dh,0Ah,04Dh,045h,020h,052h,065h,071h,075h,065h
0023 20526571    
0027 7565        
0029 73742072     9907           DB      073h,074h,020h,072h,065h,074h,075h,072h,06Eh,020h
002D 65747572    
0031 6E20        
0033 25642100     9908           DB      025h,064h,021h,00h
                  9909   ME_WND_4_CO     ENDS
                  9910   
                  9911   C166_BSS        SECTION DATA WORD GLOBAL 'CINITROM'
0000 0600         9912           DW      06h
0002 00000000  R  9913           DPPTR   ME_WND_1_FB_ENTRY
0006 2819         9914           DW      01928h
                  9915   C166_BSS        ENDS
                  9916   
                  9917           EXTERN  _ME_UnRegisterInd:FAR
                  9918           EXTERN  _strlen:FAR
                  9919           EXTERN  _IndTable:WORD
                  9920           ?SYMB   '',02730227H,5,626
                  9921           ?SYMB   '',16,47,627
                  9922           ?SYMB   '',0,30,0
                  9923           ?SYMB   '',9,49,0
                  9924           ?SYMB   'ME_INDICATION',0,40,628
                  9925           ?SYMB   'msgclass',0,23,16
                  9926           ?SYMB   'msgdata',16,23,269
                  9927           ?SYMB   'msgdata_len',48,23,16
                  9928           ?SYMB   'reg_head',64,23,553
                  9929           ?SYMB   'regs',96,23,626
                  9930           ?SYMB   'reg_count',1536,23,16
                  9931           ?SYMB   '',1552,18,0
                  9932           ?SYMB   '',02760274H,5,629
                  9933           ?SYMB   '',16,47,630
                  9934           ?SYMB   '',0,30,0
                  9935           ?SYMB   '',22,49,0
                  9936           ?SYMB   'ME_INDTABLE',0,40,631
                  9937           ?SYMB   'Inds',0,23,629
                  9938           ?SYMB   'Count',35696,23,16
                  9939           ?SYMB   '',35712,18,0
                  9940           EXTERN  _ME_RegisterInd:FAR
                  9941           EXTERN  _PostMessage:FAR
                  9942           EXTERN  _strcpy:FAR
                  9943           EXTERN  _ME_GetCurrentResult:FAR
                  9944           EXTERN  _SendMessage:FAR
                  9945           EXTERN  _debugex_nonl:FAR
                  9946           EXTERN  _ME_CancelRequest:FAR
                  9947           EXTERN  _ME_Request:FAR
                  9948           EXTERN  _memcpy:FAR
                  9949           REGDEF  R0-R15
                  9950           END

total errors: 0, warnings: 0

