 LOC CODE        LINE   SOURCELINE

                     1   ; TASKING C166/ST10 C compiler v7.5r5 Build 519.1.2 SN ????????
                     2   ; options: -c -g -AF -Be -xmfp -e -s -Ml -znocustack -OaBcdEFghjkLnopQrStUwX -T0
                     3   ;          -w68 -w130 -w150 -w200 -w196 -D_DEBUG -BZc166sv1sp -BZc166sv1cp
                     4   ;          -BZc166sv1sp2 -BZcpu_reti_int -BZc166sv1ext -BK -BZno_cpu_jmpra_cache
                     5   ;          -BM -BZc166sv1div -DPRJ_UW_LOG -mPR=0,4000 -I./include -I.
                     6   ;          -Id:/vme_new/vmesdk/include -D_C166_ARCH=1 -D_DEBUG -I -I.
                     7   $DEBUG
                     8   $NOLOCALS
                     9   $EXTEND
                    10   $NOMOD166
                    11   $STDNAMES(reg.def)
                    12   $SEGMENTED
                    13   $CASE
                    14   $MODEL(LARGE)
                    15   $CHECKMULDIV
                    16   $CHECKCPU21
                    17   $CHECKC166SV1SP
                    18   $CHECKC166SV1CP
                    19   $CHECKC166SV1DIV
                    20   $CHECKC166SV1EXTSEQ
                    21   $CHECKC166SV1SP2
                    22   $CHECKCPURETIINT
                    23           NAME    SMSPDU_C
                    24           ASSUME  DPP3:SYSTEM
                    25           ?SYMB   'smspdu.c',32,80,16
                    26           ?SYMB   '',1,82,0
                    27           ?SYMB   '80166',0,84,0
                    28           ?SYMB   '',0,81,0
                    29           ?SYMB   'void',00H,45,1
                    30           ?SYMB   'char',080000H,45,2
                    31           ?SYMB   'unsigned char',080000H,45,3
                    32           ?SYMB   'short',0100000H,45,4
                    33           ?SYMB   'unsigned short',0100000H,45,5
                    34           ?SYMB   'long',0200000H,45,6
                    35           ?SYMB   'unsigned long',0200000H,45,7
                    36           ?SYMB   'float',0200000H,45,10
                    37           ?SYMB   'double',0400000H,45,11
                    38           ?SYMB   'int',0100000H,45,16
                    39           ?SYMB   'unsigned int',0100000H,45,18
                    40           ?SYMB   'bit',010000H,7,256
                    41           ?SYMB   'smspdu.c',0,29,1
                    42           ?SYMB   '',0,86,1
                    43   ; smspdu.c    1 /**************************************************************************\ 
                    44   ; smspdu.c    2  *
                    45   ; smspdu.c    3  *                      Hopen Software System
                    46   ; smspdu.c    4  *
                    47   ; smspdu.c    5  * Copyright (c) 2000-2001 by Hopen Software Engineering Co., Ltd. 
                    48   ; smspdu.c    6  *                       All Rights Reserved
                    49   ; smspdu.c    7  *
                    50   ; smspdu.c    8  * Model   :
                    51   ; smspdu.c    9  *
                    52   ; smspdu.c   10  * Filename:    SmsPDU.c
                    53   ; smspdu.c   11  *
                    54   ; smspdu.c   12  * Purpose :
                    55   ; smspdu.c   13  *
                    56   ; smspdu.c   14  * Author  :    Ding Yong
                    57   ; smspdu.c   15  *
                    58   ; smspdu.c   16 \**************************************************************************/
                    59   ; smspdu.c   17 
                    60   ; smspdu.c   18 #include "stdlib.h"
                    61           ?SYMB   './include\stdlib.h',0,29,2
                    62           ?SYMB   '',0,86,2
                    63           ?SYMB   'size_t',18,13,257
                    64           ?SYMB   'T$1',0,40,258
                    65           ?SYMB   'rem',0,23,16
                    66           ?SYMB   'quot',16,23,16
                    67           ?SYMB   '',32,18,0
                    68           ?SYMB   'div_t',258,13,259
                    69           ?SYMB   'T$2',0,40,260
                    70           ?SYMB   'rem',0,23,6
                    71           ?SYMB   'quot',32,23,6
                    72           ?SYMB   '',64,18,0
                    73           ?SYMB   'ldiv_t',260,13,261
                    74           ?SYMB   '',0,86,1
                    75   ; smspdu.c   19 #include "stdio.h"
                    76           ?SYMB   './include\stdio.h',0,29,2
                    77           ?SYMB   '',0,86,2
                    78           ?SYMB   '',01a0002H,38,263
                    79           ?SYMB   'va_list',263,13,264
                    80           ?SYMB   '',0,86,1
                    81   ; smspdu.c   20 #include "string.h"
                    82           ?SYMB   './include\string.h',0,29,2
                    83           ?SYMB   '',0,86,2
                    84           ?SYMB   '',0,86,1
                    85   ; smspdu.c   21 #include "malloc.h"
                    86           ?SYMB   './include\malloc.h',0,29,2
                    87           ?SYMB   '',0,86,2
                    88           ?SYMB   '',0,86,1
                    89   ; smspdu.c   22 #include "window.h"
                    90           ?SYMB   './include\window.h',0,29,2
                    91           ?SYMB   '',0,86,2
                    92           ?SYMB   './include\hpdef.h',0,29,3
                    93           ?SYMB   '',0,86,3
                    94           ?SYMB   'BOOL',16,13,265
                    95           ?SYMB   'BYTE',3,13,266
                    96           ?SYMB   'WORD',5,13,267
                    97           ?SYMB   'IWORD',4,13,268
                    98           ?SYMB   'SHORT',4,13,269
                    99           ?SYMB   'UINT',18,13,270
                   100           ?SYMB   'DWORD',7,13,271
                   101           ?SYMB   'LPSTR',263,13,272
                   102           ?SYMB   '',01a0001H,38,274
                   103           ?SYMB   'HANDLE',274,13,275
                   104           ?SYMB   '',0,86,2
                   105           ?SYMB   './include\hp_diag.h',0,29,3
                   106           ?SYMB   '',0,86,3
                   107           ?SYMB   '',0,86,2
                   108           ?SYMB   './include\hp_kern.h',0,29,3
                   109           ?SYMB   '',0,86,3
                   110           ?SYMB   './include\hpdef.h',0,29,4
                   111           ?SYMB   '',0,86,4
                   112           ?SYMB   '',0,86,3
                   113           ?SYMB   'tid_t',16,13,276
                   114           ?SYMB   'pid_t',16,13,277
                   115           ?SYMB   'm_mutex',0,40,278
                   116           ?SYMB   'm_lock',0,23,16
                   117           ?SYMB   'm_wait',16,23,16
                   118           ?SYMB   'm_taskid',32,23,4
                   119           ?SYMB   'm_count',48,23,4
                   120           ?SYMB   'm_flag',64,23,4
                   121           ?SYMB   'm_unused',80,23,4
                   122           ?SYMB   '',96,18,0
                   123           ?SYMB   '',01a0116H,38,280
                   124           ?SYMB   'PMUTEX',280,13,281
                   125           ?SYMB   'OSHANDLE',274,13,282
                   126           ?SYMB   'sysclock_t',7,13,283
                   127           ?SYMB   'HGLOBAL',274,13,284
                   128           ?SYMB   'T$3',0,40,285
                   129           ?SYMB   'StartAddr',0,23,7
                   130           ?SYMB   'initSize',32,23,7
                   131           ?SYMB   'FreeSize',64,23,7
                   132           ?SYMB   '',96,18,0
                   133           ?SYMB   'HeapInfo',285,13,286
                   134           ?SYMB   'HLOCAL',274,13,287
                   135           ?SYMB   '',0,86,2
                   136           ?SYMB   'LONG',6,13,288
                   137           ?SYMB   'HINSTANCE__',0,40,289
                   138           ?SYMB   'unused',0,23,16
                   139           ?SYMB   '',16,18,0
                   140           ?SYMB   '',01a0121H,38,291
                   141           ?SYMB   'HINSTANCE',291,13,292
                   142           ?SYMB   '_SYSTEMTIME',0,40,293
                   143           ?SYMB   'wYear',0,23,267
                   144           ?SYMB   'wMonth',16,23,267
                   145           ?SYMB   'wDayOfWeek',32,23,267
                   146           ?SYMB   'wDay',48,23,267
                   147           ?SYMB   'wHour',64,23,267
                   148           ?SYMB   'wMinute',80,23,267
                   149           ?SYMB   'wSecond',96,23,267
                   150           ?SYMB   'wMilliseconds',112,23,267
                   151           ?SYMB   '',128,18,0
                   152           ?SYMB   '',01a0125H,38,295
                   153           ?SYMB   'PSYSTEMTIME',295,13,296
                   154           ?SYMB   'SYSTEMTIME',293,13,297
                   155           ?SYMB   '',012b0002H,5,298
                   156           ?SYMB   '',16,47,299
                   157           ?SYMB   '',0,30,0
                   158           ?SYMB   '',31,49,0
                   159           ?SYMB   '_TIME_ZONE_INFORMATION',0,40,300
                   160           ?SYMB   'Bias',0,23,288
                   161           ?SYMB   'StandardName',32,23,298
                   162           ?SYMB   'StandardDate',288,23,297
                   163           ?SYMB   'StandardBias',416,23,288
                   164           ?SYMB   'DaylightName',448,23,298
                   165           ?SYMB   'DaylightDate',704,23,297
                   166           ?SYMB   'DaylightBias',832,23,288
                   167           ?SYMB   '',864,18,0
                   168           ?SYMB   '',01a012cH,38,302
                   169           ?SYMB   'PTIME_ZONE_INFORMATION',302,13,303
                   170           ?SYMB   'TIME_ZONE_INFORMATION',300,13,304
                   171           ?SYMB   'PCSTR',263,13,305
                   172           ?SYMB   'HRSRC__',0,40,306
                   173           ?SYMB   'unused',0,23,16
                   174           ?SYMB   '',16,18,0
                   175           ?SYMB   '',01a0132H,38,308
                   176           ?SYMB   'HRSRC',308,13,309
                   177           ?SYMB   'PSTR',263,13,310
                   178           ?SYMB   'WCHAR',5,13,311
                   179           ?SYMB   'LPCSTR',263,13,312
                   180           ?SYMB   '',01a0137H,38,314
                   181           ?SYMB   'LPWSTR',314,13,315
                   182           ?SYMB   'LPCWSTR',314,13,316
                   183           ?SYMB   '',01a0109H,38,318
                   184           ?SYMB   'LPBOOL',318,13,319
                   185           ?SYMB   'COLORREF',271,13,320
                   186           ?SYMB   'LPCTSTR',272,13,321
                   187           ?SYMB   'HDC__',0,40,322
                   188           ?SYMB   'unused',0,23,16
                   189           ?SYMB   '',16,18,0
                   190           ?SYMB   '',01a0142H,38,324
                   191           ?SYMB   'HDC',324,13,325
                   192           ?SYMB   'T$4',0,40,326
                   193           ?SYMB   'cbSize',0,23,16
                   194           ?SYMB   'lpszDocName',16,23,312
                   195           ?SYMB   'lpszOutput',48,23,312
                   196           ?SYMB   'lpszDatatype',80,23,312
                   197           ?SYMB   'fwType',112,23,271
                   198           ?SYMB   '',144,18,0
                   199           ?SYMB   'DOCINFO',326,13,327
                   200           ?SYMB   'tagRECT',0,40,328
                   201           ?SYMB   'left',0,23,288
                   202           ?SYMB   'top',32,23,288
                   203           ?SYMB   'right',64,23,288
                   204           ?SYMB   'bottom',96,23,288
                   205           ?SYMB   '',128,18,0
                   206           ?SYMB   '',01a0148H,38,330
                   207           ?SYMB   'PRECT',330,13,331
                   208           ?SYMB   'tagPOINT',0,40,332
                   209           ?SYMB   'x',0,23,288
                   210           ?SYMB   'y',32,23,288
                   211           ?SYMB   '',64,18,0
                   212           ?SYMB   '',01a014cH,38,334
                   213           ?SYMB   'PPOINT',334,13,335
                   214           ?SYMB   'tagSIZE',0,40,336
                   215           ?SYMB   'cx',0,23,288
                   216           ?SYMB   'cy',32,23,288
                   217           ?SYMB   '',64,18,0
                   218           ?SYMB   '',01a0150H,38,338
                   219           ?SYMB   'PSIZE',338,13,339
                   220           ?SYMB   'RECT',328,13,340
                   221           ?SYMB   'HGDIOBJ',274,13,341
                   222           ?SYMB   'HPEN__',0,40,342
                   223           ?SYMB   'unused',0,23,16
                   224           ?SYMB   '',16,18,0
                   225           ?SYMB   '',01a0156H,38,344
                   226           ?SYMB   'HPEN',344,13,345
                   227           ?SYMB   'POINT',332,13,346
                   228           ?SYMB   'tagLOGPEN',0,40,347
                   229           ?SYMB   'lopnStyle',0,23,270
                   230           ?SYMB   'lopnWidth',16,23,346
                   231           ?SYMB   'lopnColor',80,23,320
                   232           ?SYMB   '',112,18,0
                   233           ?SYMB   'LOGPEN',347,13,348
                   234           ?SYMB   'HBRUSH__',0,40,349
                   235           ?SYMB   'unused',0,23,16
                   236           ?SYMB   '',16,18,0
                   237           ?SYMB   '',01a015dH,38,351
                   238           ?SYMB   'HBRUSH',351,13,352
                   239           ?SYMB   'tagLOGBRUSH',0,40,353
                   240           ?SYMB   'lbStyle',0,23,270
                   241           ?SYMB   'lbColor',16,23,320
                   242           ?SYMB   'lbHatch',48,23,288
                   243           ?SYMB   '',80,18,0
                   244           ?SYMB   'LOGBRUSH',353,13,354
                   245           ?SYMB   'PATTERN',354,13,355
                   246           ?SYMB   'HBITMAP__',0,40,356
                   247           ?SYMB   'unused',0,23,16
                   248           ?SYMB   '',16,18,0
                   249           ?SYMB   '',01a0164H,38,358
                   250           ?SYMB   'HBITMAP',358,13,359
                   251           ?SYMB   'HRGN__',0,40,360
                   252           ?SYMB   'unused',0,23,16
                   253           ?SYMB   '',16,18,0
                   254           ?SYMB   '',01a0168H,38,362
                   255           ?SYMB   'HRGN',362,13,363
                   256           ?SYMB   'HFONT__',0,40,364
                   257           ?SYMB   'unused',0,23,16
                   258           ?SYMB   '',16,18,0
                   259           ?SYMB   '',01a016cH,38,366
                   260           ?SYMB   'HFONT',366,13,367
                   261           ?SYMB   'tagLOGFONT',0,40,368
                   262           ?SYMB   'lfHeight',0,23,288
                   263           ?SYMB   'lfWidth',32,23,288
                   264           ?SYMB   'lfEscapement',64,23,288
                   265           ?SYMB   'lfOrientation',96,23,288
                   266           ?SYMB   'lfWeight',128,23,288
                   267           ?SYMB   'lfItalic',160,23,266
                   268           ?SYMB   'lfUnderline',168,23,266
                   269           ?SYMB   'lfStrikeOut',176,23,266
                   270           ?SYMB   'lfCharSet',184,23,266
                   271           ?SYMB   'lfOutPrecision',192,23,266
                   272           ?SYMB   'lfClipPrecision',200,23,266
                   273           ?SYMB   'lfQuality',208,23,266
                   274           ?SYMB   'lfPitchAndFamily',216,23,266
                   275           ?SYMB   'lfFaceName',224,23,298
                   276           ?SYMB   '',480,18,0
                   277           ?SYMB   'LOGFONT',368,13,369
                   278           ?SYMB   'tagTEXTMETRIC',0,40,370
                   279           ?SYMB   'tmHeight',0,23,288
                   280           ?SYMB   'tmAscent',32,23,288
                   281           ?SYMB   'tmDescent',64,23,288
                   282           ?SYMB   'tmInternalLeading',96,23,288
                   283           ?SYMB   'tmExternalLeading',128,23,288
                   284           ?SYMB   'tmAveCharWidth',160,23,288
                   285           ?SYMB   'tmMaxCharWidth',192,23,288
                   286           ?SYMB   'tmWeight',224,23,288
                   287           ?SYMB   'tmOverhang',256,23,288
                   288           ?SYMB   'tmDigitizedAspectX',288,23,288
                   289           ?SYMB   'tmDigitizedAspectY',320,23,288
                   290           ?SYMB   'tmFirstChar',352,23,266
                   291           ?SYMB   'tmLastChar',360,23,266
                   292           ?SYMB   'tmDefaultChar',368,23,266
                   293           ?SYMB   'tmBreakChar',376,23,266
                   294           ?SYMB   'tmItalic',384,23,266
                   295           ?SYMB   'tmUnderlined',392,23,266
                   296           ?SYMB   'tmStruckOut',400,23,266
                   297           ?SYMB   'tmPitchAndFamily',408,23,266
                   298           ?SYMB   'tmCharSet',416,23,266
                   299           ?SYMB   '',432,18,0
                   300           ?SYMB   '',01a0172H,38,372
                   301           ?SYMB   'PTEXTMETRIC',372,13,373
                   302           ?SYMB   'tagBITMAPINFOHEADER',0,40,374
                   303           ?SYMB   'biSize',0,23,271
                   304           ?SYMB   'biWidth',32,23,288
                   305           ?SYMB   'biHeight',64,23,288
                   306           ?SYMB   'biPlanes',96,23,267
                   307           ?SYMB   'biBitCount',112,23,267
                   308           ?SYMB   'biCompression',128,23,271
                   309           ?SYMB   'biSizeImage',160,23,271
                   310           ?SYMB   'biXPelsPerMeter',192,23,288
                   311           ?SYMB   'biYPelsPerMeter',224,23,288
                   312           ?SYMB   'biClrUsed',256,23,271
                   313           ?SYMB   'biClrImportant',288,23,271
                   314           ?SYMB   '',320,18,0
                   315           ?SYMB   'BITMAPINFOHEADER',374,13,375
                   316           ?SYMB   'tagRGBQUAD',0,40,376
                   317           ?SYMB   'rgbBlue',0,23,266
                   318           ?SYMB   'rgbGreen',8,23,266
                   319           ?SYMB   'rgbRed',16,23,266
                   320           ?SYMB   'rgbReserved',24,23,266
                   321           ?SYMB   '',32,18,0
                   322           ?SYMB   'RGBQUAD',376,13,377
                   323           ?SYMB   'tagBITMAPCOREHEADER',0,40,378
                   324           ?SYMB   'bcSize',0,23,271
                   325           ?SYMB   'bcWidth',32,23,4
                   326           ?SYMB   'bcHeight',48,23,4
                   327           ?SYMB   'bcPlanes',64,23,267
                   328           ?SYMB   'bcBitCount',80,23,267
                   329           ?SYMB   '',96,18,0
                   330           ?SYMB   'BITMAPCOREHEADER',378,13,379
                   331           ?SYMB   'tagRGBTRIPLE',0,40,380
                   332           ?SYMB   'rgbtBlue',0,23,266
                   333           ?SYMB   'rgbtGreen',8,23,266
                   334           ?SYMB   'rgbtRed',16,23,266
                   335           ?SYMB   '',32,18,0
                   336           ?SYMB   'RGBTRIPLE',380,13,381
                   337           ?SYMB   'tagBITMAP',0,40,382
                   338           ?SYMB   'bmType',0,23,288
                   339           ?SYMB   'bmWidth',32,23,288
                   340           ?SYMB   'bmHeight',64,23,288
                   341           ?SYMB   'bmWidthBytes',96,23,288
                   342           ?SYMB   'bmPlanes',128,23,267
                   343           ?SYMB   'bmBitsPixel',144,23,267
                   344           ?SYMB   'bmBits',160,23,274
                   345           ?SYMB   '',192,18,0
                   346           ?SYMB   'BITMAP',382,13,383
                   347           ?SYMB   '',01810179H,5,384
                   348           ?SYMB   '',16,47,385
                   349           ?SYMB   '',0,30,0
                   350           ?SYMB   '',0,49,0
                   351           ?SYMB   'tagBITMAPINFO',0,40,386
                   352           ?SYMB   'bmiHeader',0,23,375
                   353           ?SYMB   'bmiColors',320,23,384
                   354           ?SYMB   '',352,18,0
                   355           ?SYMB   'BITMAPINFO',386,13,387
                   356           ?SYMB   'PVOID',274,13,388
                   357           ?SYMB   '',01a0182H,38,390
                   358           ?SYMB   'PBITMAPINFO',390,13,391
                   359           ?SYMB   'HICON__',0,40,392
                   360           ?SYMB   'unused',0,23,16
                   361           ?SYMB   '',16,18,0
                   362           ?SYMB   '',01a0188H,38,394
                   363           ?SYMB   'HICON',394,13,395
                   364           ?SYMB   'HWND__',0,40,396
                   365           ?SYMB   'unused',0,23,16
                   366           ?SYMB   '',16,18,0
                   367           ?SYMB   '',01a018cH,38,398
                   368           ?SYMB   'HWND',398,13,399
                   369           ?SYMB   'WPARAM',288,13,400
                   370           ?SYMB   'LPARAM',288,13,401
                   371           ?SYMB   'tagMSG',0,40,402
                   372           ?SYMB   'hwnd',0,23,399
                   373           ?SYMB   'message',32,23,270
                   374           ?SYMB   'wParam',48,23,400
                   375           ?SYMB   'lParam',80,23,401
                   376           ?SYMB   '',112,18,0
                   377           ?SYMB   '',01a0192H,38,404
                   378           ?SYMB   'PMSG',404,13,405
                   379           ?SYMB   'LRESULT',288,13,406
                   380           ?SYMB   'MSG',402,13,407
                   381           ?SYMB   '',406,55,408
                   382           ?SYMB   '',0a0198H,38,410
                   383           ?SYMB   'WNDPROC',410,13,411
                   384           ?SYMB   'HCURSOR',395,13,412
                   385           ?SYMB   'tagWNDCLASS',0,40,413
                   386           ?SYMB   'style',0,23,270
                   387           ?SYMB   'lpfnWndProc',16,23,411
                   388           ?SYMB   'cbClsExtra',48,23,16
                   389           ?SYMB   'cbWndExtra',64,23,16
                   390           ?SYMB   'hInstance',80,23,292
                   391           ?SYMB   'hIcon',112,23,395
                   392           ?SYMB   'hCursor',144,23,412
                   393           ?SYMB   'hbrBackground',176,23,352
                   394           ?SYMB   'lpszMenuName',208,23,312
                   395           ?SYMB   'lpszClassName',240,23,312
                   396           ?SYMB   '',272,18,0
                   397           ?SYMB   'WNDCLASS',413,13,414
                   398           ?SYMB   'tagWNDCLASSEX',0,40,415
                   399           ?SYMB   'cbSize',0,23,270
                   400           ?SYMB   'style',16,23,270
                   401           ?SYMB   'lpfnWndProc',32,23,411
                   402           ?SYMB   'cbClsExtra',64,23,16
                   403           ?SYMB   'cbWndExtra',80,23,16
                   404           ?SYMB   'hInstance',96,23,292
                   405           ?SYMB   'hIcon',128,23,395
                   406           ?SYMB   'hCursor',160,23,412
                   407           ?SYMB   'hbrBackground',192,23,352
                   408           ?SYMB   'lpszMenuName',224,23,312
                   409           ?SYMB   'lpszClassName',256,23,312
                   410           ?SYMB   'hIconSm',288,23,395
                   411           ?SYMB   '',320,18,0
                   412           ?SYMB   'WNDCLASSEX',415,13,416
                   413           ?SYMB   '',01a019dH,38,418
                   414           ?SYMB   'PWNDCLASS',418,13,419
                   415           ?SYMB   'HMENU__',0,40,420
                   416           ?SYMB   'unused',0,23,16
                   417           ?SYMB   '',16,18,0
                   418           ?SYMB   '',01a01a4H,38,422
                   419           ?SYMB   'HMENU',422,13,423
                   420           ?SYMB   '',265,55,424
                   421           ?SYMB   '',0a01a8H,38,426
                   422           ?SYMB   'WNDENUMPROC',426,13,427
                   423           ?SYMB   'tagPAINTSTRUCT',0,40,428
                   424           ?SYMB   'hdc',0,23,325
                   425           ?SYMB   'fErase',32,23,265
                   426           ?SYMB   'rcPaint',48,23,340
                   427           ?SYMB   '',176,18,0
                   428           ?SYMB   '',01a01acH,38,430
                   429           ?SYMB   'PPAINTSTRUCT',430,13,431
                   430           ?SYMB   'PAINTSTRUCT',428,13,432
                   431           ?SYMB   'tagWINDOWPOS',0,40,433
                   432           ?SYMB   'hwnd',0,23,399
                   433           ?SYMB   'hwndInsertAfter',32,23,399
                   434           ?SYMB   'x',64,23,16
                   435           ?SYMB   'y',80,23,16
                   436           ?SYMB   'cx',96,23,16
                   437           ?SYMB   'cy',112,23,16
                   438           ?SYMB   'flags',128,23,270
                   439           ?SYMB   '',144,18,0
                   440           ?SYMB   '',01a01b1H,38,435
                   441           ?SYMB   'PWINDOWPOS',435,13,436
                   442           ?SYMB   './include\virtkey.h',0,29,3
                   443           ?SYMB   '',0,86,3
                   444           ?SYMB   '',0,86,2
                   445           ?SYMB   '',01a010aH,38,438
                   446           ?SYMB   'PBYTE',438,13,439
                   447           ?SYMB   '',01a010bH,38,441
                   448           ?SYMB   'LPWORD',441,13,442
                   449           ?SYMB   '',1,55,443
                   450           ?SYMB   '',0a01bbH,38,445
                   451           ?SYMB   'TIMERPROC',445,13,446
                   452           ?SYMB   'MENUITEMTEMPLATE',447,13,448
                   453           ?SYMB   '',01a01c0H,38,450
                   454           ?SYMB   'PMENUITEMTEMPLATE',450,13,451
                   455           ?SYMB   'tagMENUITEMTEMPLATE',0,40,447
                   456           ?SYMB   'wFlags',0,23,267
                   457           ?SYMB   'wID',16,23,267
                   458           ?SYMB   'lpszItemName',32,23,305
                   459           ?SYMB   'pMenuItems',64,23,451
                   460           ?SYMB   '',96,18,0
                   461           ?SYMB   'T$5',0,40,452
                   462           ?SYMB   'version',0,23,271
                   463           ?SYMB   'pMenuItems',32,23,451
                   464           ?SYMB   '',64,18,0
                   465           ?SYMB   'MENUTEMPLATE',452,13,453
                   466           ?SYMB   'tagSCROLLINFO',0,40,454
                   467           ?SYMB   'cbSize',0,23,270
                   468           ?SYMB   'fMask',16,23,270
                   469           ?SYMB   'nMin',32,23,16
                   470           ?SYMB   'nMax',48,23,16
                   471           ?SYMB   'nPage',64,23,270
                   472           ?SYMB   'nPos',80,23,16
                   473           ?SYMB   'nTrackPos',96,23,16
                   474           ?SYMB   '',112,18,0
                   475           ?SYMB   'SCROLLINFO',454,13,455
                   476           ?SYMB   '',01a01c7H,38,457
                   477           ?SYMB   'PCSCROLLINFO',457,13,458
                   478           ?SYMB   '',01a01c6H,38,460
                   479           ?SYMB   'PSCROLLINFO',460,13,461
                   480           ?SYMB   'T$6',0,40,462
                   481           ?SYMB   'style',0,23,271
                   482           ?SYMB   'dwExStyle',32,23,271
                   483           ?SYMB   'x',64,23,4
                   484           ?SYMB   'y',80,23,4
                   485           ?SYMB   'cx',96,23,4
                   486           ?SYMB   'cy',112,23,4
                   487           ?SYMB   'id',128,23,271
                   488           ?SYMB   'lpszClassName',160,23,305
                   489           ?SYMB   'lpszWindowText',192,23,305
                   490           ?SYMB   '',224,18,0
                   491           ?SYMB   'DLGITEMTEMPLATE',462,13,463
                   492           ?SYMB   '',01d101cfH,5,464
                   493           ?SYMB   '',16,47,465
                   494           ?SYMB   '',0,30,0
                   495           ?SYMB   '',0,49,0
                   496           ?SYMB   'T$7',0,40,466
                   497           ?SYMB   'type',0,23,271
                   498           ?SYMB   'style',32,23,271
                   499           ?SYMB   'dwExStyle',64,23,271
                   500           ?SYMB   'cdit',96,23,271
                   501           ?SYMB   'x',128,23,4
                   502           ?SYMB   'y',144,23,4
                   503           ?SYMB   'cx',160,23,4
                   504           ?SYMB   'cy',176,23,4
                   505           ?SYMB   'lpszMenuName',192,23,305
                   506           ?SYMB   'lpszClassName',224,23,305
                   507           ?SYMB   'lpszWindowText',256,23,305
                   508           ?SYMB   'dlgItems',288,23,464
                   509           ?SYMB   '',512,18,0
                   510           ?SYMB   'DLGTEMPLATE',466,13,467
                   511           ?SYMB   '',265,55,468
                   512           ?SYMB   '',0a01d4H,38,470
                   513           ?SYMB   'DLGPROC',470,13,471
                   514           ?SYMB   '',01a01d3H,38,473
                   515           ?SYMB   'PCDLGTEMPLATE',473,13,474
                   516           ?SYMB   'tagDRAWITEMSTRUCT',0,40,475
                   517           ?SYMB   'CtlType',0,23,270
                   518           ?SYMB   'CtlID',16,23,270
                   519           ?SYMB   'itemID',32,23,270
                   520           ?SYMB   'itemAction',48,23,270
                   521           ?SYMB   'itemState',64,23,270
                   522           ?SYMB   'hwndItem',80,23,399
                   523           ?SYMB   'hDC',112,23,325
                   524           ?SYMB   'rcItem',144,23,340
                   525           ?SYMB   'itemData',272,23,271
                   526           ?SYMB   '',304,18,0
                   527           ?SYMB   'DRAWITEMSTRUCT',475,13,476
                   528           ?SYMB   'tagMEASUREITEMSTRUCT',0,40,477
                   529           ?SYMB   'CtlType',0,23,270
                   530           ?SYMB   'CtlID',16,23,270
                   531           ?SYMB   'itemID',32,23,270
                   532           ?SYMB   'itemWidth',48,23,270
                   533           ?SYMB   'itemHeight',64,23,270
                   534           ?SYMB   'itemData',80,23,271
                   535           ?SYMB   '',112,18,0
                   536           ?SYMB   'MEASUREITEMSTRUCT',477,13,478
                   537           ?SYMB   'tagDELETEITEMSTRUCT',0,40,479
                   538           ?SYMB   'CtlType',0,23,270
                   539           ?SYMB   'CtlID',16,23,270
                   540           ?SYMB   'itemID',32,23,270
                   541           ?SYMB   'hwndItem',48,23,399
                   542           ?SYMB   'itemData',80,23,271
                   543           ?SYMB   '',112,18,0
                   544           ?SYMB   'DELETEITEMSTRUCT',479,13,480
                   545           ?SYMB   'tagCOMPAREITEMSTRUCT',0,40,481
                   546           ?SYMB   'CtlType',0,23,270
                   547           ?SYMB   'CtlID',16,23,270
                   548           ?SYMB   'hwndItem',32,23,399
                   549           ?SYMB   'itemID1',64,23,270
                   550           ?SYMB   'itemData1',80,23,271
                   551           ?SYMB   'itemID2',112,23,270
                   552           ?SYMB   'itemData2',128,23,271
                   553           ?SYMB   '',160,18,0
                   554           ?SYMB   'COMPAREITEMSTRUCT',481,13,482
                   555           ?SYMB   '',406,55,483
                   556           ?SYMB   '',0a01e3H,38,485
                   557           ?SYMB   'HOOKPROC',485,13,486
                   558           ?SYMB   'HHOOK__',0,40,487
                   559           ?SYMB   'unused',0,23,16
                   560           ?SYMB   '',16,18,0
                   561           ?SYMB   '',01a01e7H,38,489
                   562           ?SYMB   'HHOOK',489,13,490
                   563           ?SYMB   '',01ec010aH,5,491
                   564           ?SYMB   '',16,47,492
                   565           ?SYMB   '',0,30,0
                   566           ?SYMB   '',31,49,0
                   567           ?SYMB   '_devicemode',0,40,493
                   568           ?SYMB   'dmDeviceName',0,23,491
                   569           ?SYMB   'dmSpecVersion',256,23,267
                   570           ?SYMB   'dmDriverVersion',272,23,267
                   571           ?SYMB   'dmSize',288,23,267
                   572           ?SYMB   'dmDriverExtra',304,23,267
                   573           ?SYMB   'dmFields',320,23,271
                   574           ?SYMB   'dmOrientation',352,23,4
                   575           ?SYMB   'dmPaperSize',368,23,4
                   576           ?SYMB   'dmPaperLength',384,23,4
                   577           ?SYMB   'dmPaperWidth',400,23,4
                   578           ?SYMB   'dmScale',416,23,4
                   579           ?SYMB   'dmCopies',432,23,4
                   580           ?SYMB   'dmDefaultSource',448,23,4
                   581           ?SYMB   'dmPrintQuality',464,23,4
                   582           ?SYMB   'dmColor',480,23,4
                   583           ?SYMB   'dmDuplex',496,23,4
                   584           ?SYMB   'dmYResolution',512,23,4
                   585           ?SYMB   'dmTTOption',528,23,4
                   586           ?SYMB   'dmCollate',544,23,4
                   587           ?SYMB   'dmFormName',560,23,491
                   588           ?SYMB   'dmLogPixels',816,23,267
                   589           ?SYMB   'dmBitsPerPel',832,23,271
                   590           ?SYMB   'dmPelsWidth',864,23,271
                   591           ?SYMB   'dmPelsHeight',896,23,271
                   592           ?SYMB   'dmDisplayFlags',928,23,271
                   593           ?SYMB   'dmDisplayFrequency',960,23,271
                   594           ?SYMB   'dmICMMethod',992,23,271
                   595           ?SYMB   'dmICMIntent',1024,23,271
                   596           ?SYMB   'dmMediaType',1056,23,271
                   597           ?SYMB   'dmDitherType',1088,23,271
                   598           ?SYMB   'dmICCManufacturer',1120,23,271
                   599           ?SYMB   'dmICCModel',1152,23,271
                   600           ?SYMB   'dmPanningWidth',1184,23,271
                   601           ?SYMB   'dmPanningHeight',1216,23,271
                   602           ?SYMB   '',1248,18,0
                   603           ?SYMB   '',01a01edH,38,495
                   604           ?SYMB   'PDEVMODE',495,13,496
                   605           ?SYMB   '',0,86,1
                   606   ; smspdu.c   23 #include "me_func.h"
                   607           ?SYMB   'me_func.h',0,29,2
                   608           ?SYMB   '',0,86,2
                   609           ?SYMB   '',1,55,497
                   610           ?SYMB   '',0a01f1H,38,499
                   611           ?SYMB   'ME_ReqCallback',499,13,500
                   612           ?SYMB   '',1,55,501
                   613           ?SYMB   '',0a01f5H,38,503
                   614           ?SYMB   'ME_IndCallback',503,13,504
                   615           ?SYMB   '',0,86,1
                   616   ; smspdu.c   24 #include "me_wnd.h"
                   617           ?SYMB   './include\me_wnd.h',0,29,2
                   618           ?SYMB   '',0,86,2
                   619           ?SYMB   './include\hp_modcfg.h',0,29,3
                   620           ?SYMB   '',0,86,3
                   621           ?SYMB   '',0,86,2
                   622           ?SYMB   '',01fa0002H,5,505
                   623           ?SYMB   '',16,47,506
                   624           ?SYMB   '',0,30,0
                   625           ?SYMB   '',23,49,0
                   626           ?SYMB   'tagCALL_FWD',0,40,507
                   627           ?SYMB   'Reason',0,23,16
                   628           ?SYMB   'bEnable',16,23,265
                   629           ?SYMB   'PhoneNum',32,23,505
                   630           ?SYMB   'Class',224,23,16
                   631           ?SYMB   'Time',240,23,16
                   632           ?SYMB   '',256,18,0
                   633           ?SYMB   '',01a01fbH,38,509
                   634           ?SYMB   'PCALL_FWD',509,13,510
                   635           ?SYMB   '',02000002H,5,511
                   636           ?SYMB   '',16,47,512
                   637           ?SYMB   '',0,30,0
                   638           ?SYMB   '',163,49,0
                   639           ?SYMB   'tagSMS_Send',0,40,513
                   640           ?SYMB   'SCA',0,23,505
                   641           ?SYMB   'Type',192,23,16
                   642           ?SYMB   'ConLen',208,23,16
                   643           ?SYMB   'Report',224,23,265
                   644           ?SYMB   'ReplyPath',240,23,265
                   645           ?SYMB   'PID',256,23,16
                   646           ?SYMB   'VPvalue',272,23,16
                   647           ?SYMB   'PhoneNum',288,23,505
                   648           ?SYMB   'Context',480,23,511
                   649           ?SYMB   '',1792,18,0
                   650           ?SYMB   '',01a0201H,38,515
                   651           ?SYMB   'PSMS_SEND',515,13,516
                   652           ?SYMB   'tagIND_STATUS',0,40,517
                   653           ?SYMB   'Mt',0,23,16
                   654           ?SYMB   'Bm',16,23,16
                   655           ?SYMB   'Ds',32,23,16
                   656           ?SYMB   '',48,18,0
                   657           ?SYMB   '',01a0205H,38,519
                   658           ?SYMB   'PIND_STATUS',519,13,520
                   659           ?SYMB   '',020a0002H,5,521
                   660           ?SYMB   '',16,47,522
                   661           ?SYMB   '',0,30,0
                   662           ?SYMB   '',39,49,0
                   663           ?SYMB   '',020c0002H,5,523
                   664           ?SYMB   '',16,47,524
                   665           ?SYMB   '',0,30,0
                   666           ?SYMB   '',19,49,0
                   667           ?SYMB   'tagCELL_BROADCAST',0,40,525
                   668           ?SYMB   'mode',0,23,265
                   669           ?SYMB   'ids',16,23,521
                   670           ?SYMB   'code',336,23,523
                   671           ?SYMB   '',496,18,0
                   672           ?SYMB   '',01a020dH,38,527
                   673           ?SYMB   'PCELL_BROADCAST',527,13,528
                   674           ?SYMB   '',02120002H,5,529
                   675           ?SYMB   '',16,47,530
                   676           ?SYMB   '',0,30,0
                   677           ?SYMB   '',15,49,0
                   678           ?SYMB   'tagPHONEBOOK',0,40,531
                   679           ?SYMB   'Index',0,23,16
                   680           ?SYMB   'PhoneNum',16,23,505
                   681           ?SYMB   'Text',208,23,529
                   682           ?SYMB   '',336,18,0
                   683           ?SYMB   '',01a0213H,38,533
                   684           ?SYMB   'PPHONEBOOK',533,13,534
                   685           ?SYMB   '',02180002H,5,535
                   686           ?SYMB   '',16,47,536
                   687           ?SYMB   '',0,30,0
                   688           ?SYMB   '',63,49,0
                   689           ?SYMB   'tagSTK_PARAM',0,40,537
                   690           ?SYMB   'cmd',0,23,535
                   691           ?SYMB   'timeout',512,23,16
                   692           ?SYMB   'line_count',528,23,16
                   693           ?SYMB   'line_len',544,23,16
                   694           ?SYMB   'revbuf',560,23,274
                   695           ?SYMB   '',592,18,0
                   696           ?SYMB   'STK_PARAM',537,13,538
                   697           ?SYMB   '',0,86,1
                   698   ; smspdu.c   25 #include "me_comn.h"
                   699           ?SYMB   'me_comn.h',0,29,2
                   700           ?SYMB   '',0,86,2
                   701           ?SYMB   'tagNETOPREATOR',0,40,539
                   702           ?SYMB   'stat',0,23,16
                   703           ?SYMB   'alpha_oper',16,23,523
                   704           ?SYMB   'num_oper',176,23,523
                   705           ?SYMB   '',336,18,0
                   706           ?SYMB   'NETOPRATOR',539,13,540
                   707           ?SYMB   'tagCALLS_INFO',0,40,541
                   708           ?SYMB   'index',0,23,16
                   709           ?SYMB   'Stat',16,23,16
                   710           ?SYMB   'Mode',32,23,16
                   711           ?SYMB   'Dir',48,23,16
                   712           ?SYMB   'Mpty',64,23,16
                   713           ?SYMB   'PhoneNum',80,23,505
                   714           ?SYMB   'Text',272,23,529
                   715           ?SYMB   '',400,18,0
                   716           ?SYMB   '',01a021dH,38,543
                   717           ?SYMB   'PCALLS_INFO',543,13,544
                   718           ?SYMB   '',02220002H,5,545
                   719           ?SYMB   '',16,47,546
                   720           ?SYMB   '',0,30,0
                   721           ?SYMB   '',7,49,0
                   722           ?SYMB   'tagSERV_CELL',0,40,547
                   723           ?SYMB   'BCH',0,23,545
                   724           ?SYMB   'BRXL',64,23,545
                   725           ?SYMB   'BCC',128,23,545
                   726           ?SYMB   'RXLev',192,23,545
                   727           ?SYMB   'MCC',256,23,545
                   728           ?SYMB   'MNC',320,23,545
                   729           ?SYMB   'BSIC',384,23,545
                   730           ?SYMB   'NCC',448,23,545
                   731           ?SYMB   'RSSI',512,23,545
                   732           ?SYMB   'LAC',576,23,545
                   733           ?SYMB   'CELLID',640,23,545
                   734           ?SYMB   'C1',704,23,545
                   735           ?SYMB   'C2',768,23,545
                   736           ?SYMB   'PWR',832,23,545
                   737           ?SYMB   'TA',896,23,545
                   738           ?SYMB   'TCH',960,23,545
                   739           ?SYMB   'TRXL',1024,23,545
                   740           ?SYMB   'TS',1088,23,545
                   741           ?SYMB   'PWRLev',1152,23,545
                   742           ?SYMB   'Q',1216,23,545
                   743           ?SYMB   'Chmod',1280,23,545
                   744           ?SYMB   '',1344,18,0
                   745           ?SYMB   '',01a0223H,38,549
                   746           ?SYMB   'PSCELL_INFO',549,13,550
                   747           ?SYMB   'tagNEIB_CELL',0,40,551
                   748           ?SYMB   'BCH',0,23,545
                   749           ?SYMB   'BRXL',64,23,545
                   750           ?SYMB   'C1',128,23,545
                   751           ?SYMB   'C2',192,23,545
                   752           ?SYMB   '',256,18,0
                   753           ?SYMB   '',01a0227H,38,553
                   754           ?SYMB   'PNCELL_INFO',553,13,554
                   755           ?SYMB   '',0,86,1
                   756   ; smspdu.c   26 #include "smspdu.h"
                   757           ?SYMB   'smspdu.h',0,29,2
                   758           ?SYMB   '',0,86,2
                   759           ?SYMB   'tagSMS_INFO',0,40,555
                   760           ?SYMB   'Index',0,23,16
                   761           ?SYMB   'Stat',16,23,16
                   762           ?SYMB   'Type',32,23,16
                   763           ?SYMB   'Status',48,23,16
                   764           ?SYMB   'ConLen',64,23,16
                   765           ?SYMB   'Class',80,23,16
                   766           ?SYMB   'SCA',96,23,505
                   767           ?SYMB   'SenderNum',288,23,505
                   768           ?SYMB   'SendTime',480,23,521
                   769           ?SYMB   'Context',800,23,511
                   770           ?SYMB   '',2112,18,0
                   771           ?SYMB   '',01a022bH,38,557
                   772           ?SYMB   'PSMS_INFO',557,13,558
                   773           ?SYMB   '',0,86,1
                   774   ; smspdu.c   27 
                   775   ; smspdu.c   28 extern void debugex_nonl(char *fmt, ...);
                   776   ; smspdu.c   29 extern int sprintfex(char *buffer, const char *fmt, ...);
                   777   ; smspdu.c   30 #define sprintf sprintfex
                   778   ; smspdu.c   31 
                   779   ; smspdu.c   32 
                   780   ; smspdu.c   33 /*********************************************************************\ 
                   781   ; smspdu.c   34 * Function         
                   782   ; smspdu.c   35 * Purpose      
                   783   ; smspdu.c   36 * Params           
                   784   ; smspdu.c   37 * Return                   
                   785   ; smspdu.c   38 * Remarks          
                   786   ; smspdu.c   39 **********************************************************************/
                   787   ; smspdu.c   40 /*------------------------------------------------------
                   788   ; smspdu.c   41  *
                   789   ; smspdu.c   42  * Code Transmitted Context to PDU String
                   790   ; smspdu.c   43  * "0891683108100005F011000D91683146110972F70008000A4E2D658777ED6D88606F"
                   791   ; smspdu.c   44  *
                   792   ; smspdu.c   45  *----------------------------------------------------*/
                   793   ; smspdu.c   46 int     ME_TranStr_Code( PSMS_SEND pSMS_Send, char* pDesStr, int Length )
                   794   ; smspdu.c   47 {
                   795   SMSPDU_1_PR     SECTION CODE WORD PUBLIC 'CPROGRAM'
                   796           ?LINE   47
                   797           PUBLIC  _ME_TranStr_Code
               R   798           ?SYMB   'ME_TranStr_Code',_ME_TranStr_Code,37,16
                   799           ?SYMB   '',47,8,34
                   800   _ME_TranStr_Code        PROC    FAR
                   801           ?SYMB   '',03c0H,95,0
                   802   SMSPDU_1_PR     ENDS
                   803   
                   804   SMSPDU_2_CO     SECTION DATA WORD PUBLIC 'CROM'
0000               805   __swtable103    LABEL   WORD
0000 0000      R   806           DW      SOF _67
0002 0000      R   807           DW      SOF _62
0004 0000      R   808           DW      SOF _63
0006 0000      R   809           DW      SOF _66
0008 0000      R   810           DW      SOF _64
000A 0000      R   811           DW      SOF _65
                   812   SMSPDU_2_CO     ENDS
                   813   
                   814   SMSPDU_1_PR     SECTION CODE
0000 8890          815           MOV     [-R0],R9
               R   816           ?SYMB   '',$,96,2
0002 8880          817           MOV     [-R0],R8
               R   818           ?SYMB   '',$,96,4
0004 8870          819           MOV     [-R0],R7
               R   820           ?SYMB   '',$,96,6
0006 8860          821           MOV     [-R0],R6
               R   822           ?SYMB   '',$,96,8
0008 26F06805      823           SUB     R0,#0568h
               R   824           ?SYMB   '',$,96,1392
000C F09F          825           MOV     R9,R15
000E F08E          826           MOV     R8,R14
0010 F07D          827           MOV     R7,R13
0012 F06C          828           MOV     R6,R12
                   829   ; Locals:
                   830   ;     TempPhoneNum = offset 0
                   831   ;     PhoneNum = offset 24
                   832   ;     TempContext = offset 48
                   833   ;     Context = offset 710
                   834   ;     ContextLen = offset 1370
                   835   ;     EndCode = offset 1374
                   836   ;     VP = offset 1378
                   837   ; 
                   838   ; Statics:
                   839   ; 
                   840   ; CSEs:
                   841   ;     pDesStr = R8R9
                   842   ;     pSMS_Send = R6R7
                   843   ;     offset = R12
                   844   ;     len = offset 708
                   845   ;     pSMS_Send + 36 = R13R14
                   846   ;     SMSLength = R6
                   847   ;     SCALength = offset 1382
                   848   ;     Length = offset 1392
                   849   ; 
                   850           ?SYMB   'pSMS_Send',7,99,516
                   851           ?SYMB   'pDesStr',6,99,263
                   852           ?SYMB   'Length',5,99,16
                   853           ?SYMB   'len',2,98,16
                   854           ?SYMB   'offset',4,98,16
                   855           ?SYMB   'SCALength',3,98,16
                   856           ?SYMB   'SMSLength',1,98,16
                   857           ?SYMB   'PhoneNum',14,98,505
               R   858           ?SYMB   '-558',$,101,14
                   859           ?SYMB   'TempPhoneNum',13,98,505
               R   860           ?SYMB   '-570',$,101,13
                   861           ?SYMB   '',02310002H,5,560
                   862           ?SYMB   '',16,47,561
                   863           ?SYMB   '',0,30,0
                   864           ?SYMB   '',659,49,0
                   865           ?SYMB   'Context',12,98,560
               R   866           ?SYMB   '-2aa',$,101,12
                   867           ?SYMB   'TempContext',11,98,560
               R   868           ?SYMB   '-540',$,101,11
                   869           ?SYMB   '',02330002H,5,562
                   870           ?SYMB   '',16,47,563
                   871           ?SYMB   '',0,30,0
                   872           ?SYMB   '',3,49,0
                   873           ?SYMB   'ContextLen',10,98,562
               R   874           ?SYMB   '-16',$,101,10
                   875           ?SYMB   'EndCode',9,98,562
               R   876           ?SYMB   '-12',$,101,9
                   877           ?SYMB   'VP',8,98,562
               R   878           ?SYMB   '-e',$,101,8
               R   879           ?SYMB   'R6R7',$,100,7
               R   880           ?SYMB   'R8R9',$,100,6
               R   881           ?SYMB   '0',$,101,5
                   882   ; smspdu.c   48         int             len, offset;
                   883   ; smspdu.c   49         int             SCALength, SMSLength;
                   884   ; smspdu.c   50         char    PhoneNum[ME_PHONENUM_LEN],TempPhoneNum[ME_PHONENUM_LEN];
                   885   ; smspdu.c   51         char    Context[ME_SMS_PDU_LEN],TempContext[ME_SMS_PDU_LEN];
                   886   ; smspdu.c   52         char    ContextLen[ME_CODELEN_STRLEN];
                   887   ; smspdu.c   53         char    EndCode[4];
                   888   ; smspdu.c   54         char    VP[4];
                   889   ; smspdu.c   55 
                   890   ; smspdu.c   56         switch ( pSMS_Send->VPvalue )
                   891           ?LINE   56
0014 DC47          892           EXTP    R7,#01h
0016 D4C62200 1    893           MOV     R12,[R6+#022H]
001A 48C5          894           CMP     R12,#05h
001C ED1F          895           JMPR    cc_UGT,_66
001E 5C1C          896           SHL     R12,#01h
0020 06FC0000  R   897           ADD     R12,#POF __swtable103
0024 D7400000  R   898           EXTP    #PAG __swtable103,#01h
0028 A8CC     1    899           MOV     R12,[R12]
002A 9C0C          900           JMPI    cc_UC,[R12]
                   901   ; smspdu.c   57         {
                   902   ; smspdu.c   58         case SMS_1HOUR:
                   903   ; smspdu.c   59                 pSMS_Send->VPvalue = 11;
                   904   ; smspdu.c   60                 break;
                   905   ; smspdu.c   61 
                   906   ; smspdu.c   62         case SMS_6HOUR:
                   907           ?LINE   62
002C               908   _62:
                   909   ; smspdu.c   63                 pSMS_Send->VPvalue = 71;
                   910           ?LINE   63
002C E6FC4700      911           MOV     R12,#047h
0030 DC47          912           EXTP    R7,#01h
0032 C4C62200 1    913           MOV     [R6+#022H],R12
                   914   ; smspdu.c   64                 break;
                   915           ?LINE   64
0036 0D1A          916           JMPR    cc_UC,_71
                   917   ; smspdu.c   65 
                   918   ; smspdu.c   66         case SMS_24HOUR:
                   919           ?LINE   66
0038               920   _63:
                   921   ; smspdu.c   67                 pSMS_Send->VPvalue = 167;
                   922           ?LINE   67
0038 E6FCA700      923           MOV     R12,#0A7h
003C DC47          924           EXTP    R7,#01h
003E C4C62200 1    925           MOV     [R6+#022H],R12
                   926   ; smspdu.c   68                 break;
                   927           ?LINE   68
0042 0D14          928           JMPR    cc_UC,_71
                   929   ; smspdu.c   69 
                   930   ; smspdu.c   70         case SMS_1WEEK:
                   931           ?LINE   70
0044               932   _64:
                   933   ; smspdu.c   71                 pSMS_Send->VPvalue = 173;
                   934           ?LINE   71
0044 E6FCAD00      935           MOV     R12,#0ADh
0048 DC47          936           EXTP    R7,#01h
004A C4C62200 1    937           MOV     [R6+#022H],R12
                   938   ; smspdu.c   72                 break;
                   939           ?LINE   72
004E 0D0E          940           JMPR    cc_UC,_71
                   941   ; smspdu.c   73 
                   942   ; smspdu.c   74         case SMS_MAXTIME:
                   943           ?LINE   74
0050               944   _65:
                   945   ; smspdu.c   75                 pSMS_Send->VPvalue = 255;
                   946           ?LINE   75
0050 E6FCFF00      947           MOV     R12,#0FFh
0054 DC47          948           EXTP    R7,#01h
0056 C4C62200 1    949           MOV     [R6+#022H],R12
                   950   ; smspdu.c   76                 break;
                   951           ?LINE   76
005A 0D08          952           JMPR    cc_UC,_71
               R   953           ?SYMB   '',$,102,5
                   954   ; smspdu.c   77 
                   955   ; smspdu.c   78         default:
                   956           ?LINE   78
005C               957   _66:
               R   958           ?SYMB   '',$,102,7
               R   959           ?SYMB   '',$,102,6
                   960   ; smspdu.c   79                 return -1;
                   961           ?LINE   79
005C E6F4FFFF      962           MOV     R4,#0FFFFh
0060 EA004405  R   963           JMPA    cc_UC,_102
                   964           ?LINE   58
0064               965   _67:
               R   966           ?SYMB   'R6R7',$,100,7
               R   967           ?SYMB   'R8R9',$,100,6
               R   968           ?SYMB   '0',$,101,5
                   969           ?LINE   59
0064 E0BC          970           MOV     R12,#0Bh
0066 DC47          971           EXTP    R7,#01h
0068 C4C62200 1    972           MOV     [R6+#022H],R12
                   973   ; smspdu.c   80         }
                   974           ?LINE   80
006C               975   _71:
                   976   ; smspdu.c   81 
                   977   ; smspdu.c   82         memset( pDesStr, 0, Length );
                   978           ?LINE   82
006C F0C8          979           MOV     R12,R8
006E F0D9          980           MOV     R13,R9
0070 E00E          981           MOV     R14,#00h
0072 D4F07005      982           MOV     R15,[R0+#0570H]
0076 DA000000  R   983           CALLS   SEG _memset,_memset
                   984   ; smspdu.c   83 
                   985   ; smspdu.c   84         // Create PDU "SCA"
                   986   ; smspdu.c   85         if( pSMS_Send->SCA[0] == '+' )
                   987           ?LINE   85
007A DC47          988           EXTP    R7,#01h
007C A926     1    989           MOVB    RL1,[R6]
007E 47F22B00      990           CMPB    RL1,#02Bh
0082 3D0D          991           JMPR    cc_NE,_72
                   992   ; smspdu.c   86         {
                   993   ; smspdu.c   87                 strcpy( TempPhoneNum, "91" );
                   994           ?LINE   87
0084 F0C0          995           MOV     R12,R0
0086 66FCFF3F      996           AND     R12,#03FFFh
008A F2FD02FE      997           MOV     R13,DPP1
008E E6FE0000  R   998           MOV     R14,#POF _3
0092 E6FF0000  R   999           MOV     R15,#PAG _3
0096 DA000000  R  1000           CALLS   SEG _strcpy,_strcpy
                  1001   ; smspdu.c   88                 offset = 1;
                  1002           ?LINE   88
009A E01C         1003           MOV     R12,#01h
               R  1004           ?SYMB   'R12',$,100,4
                  1005   ; smspdu.c   89         }
                  1006           ?LINE   89
009C 0D0C         1007           JMPR    cc_UC,_73
009E              1008   _72:
               R  1009           ?SYMB   '',$,102,4
                  1010   ; smspdu.c   90         else
                  1011   ; smspdu.c   91         {
                  1012   ; smspdu.c   92                 strcpy( TempPhoneNum, "A1" );
                  1013           ?LINE   92
009E F0C0         1014           MOV     R12,R0
00A0 66FCFF3F     1015           AND     R12,#03FFFh
00A4 F2FD02FE     1016           MOV     R13,DPP1
00A8 E6FE0000  R  1017           MOV     R14,#POF _4
00AC E6FF0000  R  1018           MOV     R15,#PAG _4
00B0 DA000000  R  1019           CALLS   SEG _strcpy,_strcpy
                  1020   ; smspdu.c   93                 offset = 0;
                  1021           ?LINE   93
00B4 E00C         1022           MOV     R12,#00h
               R  1023           ?SYMB   'R12',$,100,4
                  1024   ; smspdu.c   94         }
                  1025           ?LINE   94
00B6              1026   _73:
                  1027   ; smspdu.c   95 
                  1028   ; smspdu.c   96         Analyse_PhoneNum( (pSMS_Send->SCA)+offset, TempPhoneNum+2, ANALYSE_CODE
                          );
                  1029           ?LINE   96
00B6 E00D         1030           MOV     R13,#00h
00B8 88D0         1031           MOV     [-R0],R13
               R  1032           ?SYMB   '',$,96,1394
00BA F0EC         1033           MOV     R14,R12
00BC F0C6         1034           MOV     R12,R6
               R  1035           ?SYMB   '',$,102,4
00BE F0D7         1036           MOV     R13,R7
               R  1037           ?SYMB   '',$,102,4
00C0 00CE         1038           ADD     R12,R14
00C2 E04E         1039           MOV     R14,#04h
00C4 00E0         1040           ADD     R14,R0
00C6 66FEFF3F     1041           AND     R14,#03FFFh
00CA F2FF02FE     1042           MOV     R15,DPP1
00CE DA005604  R  1043           CALLS   SEG _Analyse_PhoneNum,_Analyse_PhoneNum
00D2 0802         1044           ADD     R0,#02h
               R  1045           ?SYMB   '',$,96,1392
                  1046   ; smspdu.c   97         SCALength = strlen( TempPhoneNum )/2;
                  1047           ?LINE   97
00D4 F0C0         1048           MOV     R12,R0
00D6 66FCFF3F     1049           AND     R12,#03FFFh
00DA F2FD02FE     1050           MOV     R13,DPP1
00DE DA000000  R  1051           CALLS   SEG _strlen,_strlen
00E2 7C14         1052           SHR     R4,#01h
00E4 C4406605     1053           MOV     [R0+#0566H],R4
               R  1054           ?SYMB   '-a',$,101,3
                  1055   ; smspdu.c   98 
                  1056   ; smspdu.c   99 //      sprintf( PhoneNum, "%02x", SCALength ); // SCA Length
                  1057   ; smspdu.c  100         strcpy( PhoneNum, "08");
                  1058           ?LINE   100
00E8 E6FC1800     1059           MOV     R12,#018h
00EC 00C0         1060           ADD     R12,R0
00EE 66FCFF3F     1061           AND     R12,#03FFFh
00F2 F2FD02FE     1062           MOV     R13,DPP1
00F6 E6FE0000  R  1063           MOV     R14,#POF _5
00FA E6FF0000  R  1064           MOV     R15,#PAG _5
00FE DA000000  R  1065           CALLS   SEG _strcpy,_strcpy
                  1066   ; smspdu.c  101         strcat( PhoneNum, TempPhoneNum );               // SCA PhoneNum
                  1067           ?LINE   101
0102 E6FC1800     1068           MOV     R12,#018h
0106 00C0         1069           ADD     R12,R0
0108 66FCFF3F     1070           AND     R12,#03FFFh
010C F2FD02FE     1071           MOV     R13,DPP1
0110 F0E0         1072           MOV     R14,R0
0112 66FEFF3F     1073           AND     R14,#03FFFh
0116 F2FF02FE     1074           MOV     R15,DPP1
011A DA000000  R  1075           CALLS   SEG _strcat,_strcat
                  1076   ; smspdu.c  102         strcpy( pDesStr, PhoneNum );
                  1077           ?LINE   102
011E F0C8         1078           MOV     R12,R8
0120 F0D9         1079           MOV     R13,R9
0122 E6FE1800     1080           MOV     R14,#018h
0126 00E0         1081           ADD     R14,R0
0128 66FEFF3F     1082           AND     R14,#03FFFh
012C F2FF02FE     1083           MOV     R15,DPP1
0130 DA000000  R  1084           CALLS   SEG _strcpy,_strcpy
                  1085   ; smspdu.c  103 
                  1086   ; smspdu.c  104 
                  1087   ; smspdu.c  105         // SMS Param
                  1088   ; smspdu.c  106         if ( !pSMS_Send->ReplyPath)
                  1089           ?LINE   106
0134 DC47         1090           EXTP    R7,#01h
0136 D4C61E00 1   1091           MOV     R12,[R6+#01EH]
013A 3D16         1092           JMPR    cc_NZ,_75
                  1093   ; smspdu.c  107         {
                  1094   ; smspdu.c  108                 if ( pSMS_Send->Report )                                //Statu
                         s Report
                  1095           ?LINE   108
013C DC47         1096           EXTP    R7,#01h
013E D4C61C00 1   1097           MOV     R12,[R6+#01CH]
0142 2D09         1098           JMPR    cc_Z,_74
                  1099   ; smspdu.c  109                         strcat( pDesStr, "3100" );
                  1100           ?LINE   109
0144 F0C8         1101           MOV     R12,R8
0146 F0D9         1102           MOV     R13,R9
0148 E6FE0000  R  1103           MOV     R14,#POF _6
014C E6FF0000  R  1104           MOV     R15,#PAG _6
0150 DA000000  R  1105           CALLS   SEG _strcat,_strcat
0154 0D1E         1106           JMPR    cc_UC,_79
0156              1107   _74:
                  1108   ; smspdu.c  110                 else
                  1109   ; smspdu.c  111                         strcat( pDesStr, "1100" );
                  1110           ?LINE   111
0156 F0C8         1111           MOV     R12,R8
0158 F0D9         1112           MOV     R13,R9
015A E6FE0000  R  1113           MOV     R14,#POF _7
015E E6FF0000  R  1114           MOV     R15,#PAG _7
0162 DA000000  R  1115           CALLS   SEG _strcat,_strcat
                  1116   ; smspdu.c  112         }
                  1117           ?LINE   112
0166 0D15         1118           JMPR    cc_UC,_79
0168              1119   _75:
                  1120   ; smspdu.c  113         else
                  1121   ; smspdu.c  114         {
                  1122   ; smspdu.c  115                 if ( pSMS_Send->Report )                                //Statu
                         s Report
                  1123           ?LINE   115
0168 DC47         1124           EXTP    R7,#01h
016A D4C61C00 1   1125           MOV     R12,[R6+#01CH]
016E 2D09         1126           JMPR    cc_Z,_76
                  1127   ; smspdu.c  116                         strcat( pDesStr, "B100" );
                  1128           ?LINE   116
0170 F0C8         1129           MOV     R12,R8
0172 F0D9         1130           MOV     R13,R9
0174 E6FE0000  R  1131           MOV     R14,#POF _8
0178 E6FF0000  R  1132           MOV     R15,#PAG _8
017C DA000000  R  1133           CALLS   SEG _strcat,_strcat
0180 0D08         1134           JMPR    cc_UC,_79
0182              1135   _76:
                  1136   ; smspdu.c  117                 else
                  1137   ; smspdu.c  118                         strcat( pDesStr, "9100" );
                  1138           ?LINE   118
0182 F0C8         1139           MOV     R12,R8
0184 F0D9         1140           MOV     R13,R9
0186 E6FE0000  R  1141           MOV     R14,#POF _9
018A E6FF0000  R  1142           MOV     R15,#PAG _9
018E DA000000  R  1143           CALLS   SEG _strcat,_strcat
                  1144   ; smspdu.c  119         }
                  1145           ?LINE   119
0192              1146   _79:
                  1147   ; smspdu.c  120 
                  1148   ; smspdu.c  121         // PhoneNum
                  1149   ; smspdu.c  122         if( pSMS_Send->PhoneNum[0] == '+' )
                  1150           ?LINE   122
0192 F0D6         1151           MOV     R13,R6
0194 F0E7         1152           MOV     R14,R7
0196 06FD2400     1153           ADD     R13,#024h
                  1154   SMSPDU_1_PR     ENDS
                  1155   
                  1156   SMSPDU_2_CO     SECTION DATA
000C              1157   __swtable104    LABEL   WORD
000C 0000      R  1158           DW      SOF _82
000E 0000      R  1159           DW      SOF _83
0010 0000      R  1160           DW      SOF _84
0012 0000      R  1161           DW      SOF _85
0014 0000      R  1162           DW      SOF _86
0016 0000      R  1163           DW      SOF _87
0018 0000      R  1164           DW      SOF _88
                  1165   SMSPDU_2_CO     ENDS
                  1166   
                  1167   SMSPDU_1_PR     SECTION CODE
019A DC4E         1168           EXTP    R14,#01h
019C A92D     1   1169           MOVB    RL1,[R13]
019E 47F22B00     1170           CMPB    RL1,#02Bh
01A2 3D12         1171           JMPR    cc_NE,_80
                  1172   ; smspdu.c  123         {
                  1173   ; smspdu.c  124                 strcpy( TempPhoneNum, "91" );
                  1174           ?LINE   124
01A4 88E0         1175           MOV     [-R0],R14
               R  1176           ?SYMB   '',$,96,1394
01A6 88D0         1177           MOV     [-R0],R13
               R  1178           ?SYMB   '',$,96,1396
01A8 E04C         1179           MOV     R12,#04h
01AA 00C0         1180           ADD     R12,R0
01AC 66FCFF3F     1181           AND     R12,#03FFFh
01B0 F2FD02FE     1182           MOV     R13,DPP1
01B4 E6FE0000  R  1183           MOV     R14,#POF _3
01B8 E6FF0000  R  1184           MOV     R15,#PAG _3
01BC DA000000  R  1185           CALLS   SEG _strcpy,_strcpy
01C0 98D0         1186           MOV     R13,[R0+]
               R  1187           ?SYMB   '',$,96,1394
01C2 98E0         1188           MOV     R14,[R0+]
               R  1189           ?SYMB   '',$,96,1392
                  1190   ; smspdu.c  125                 offset = 1;
                  1191           ?LINE   125
01C4 E01C         1192           MOV     R12,#01h
               R  1193           ?SYMB   'R12',$,100,4
                  1194   ; smspdu.c  126         }
                  1195           ?LINE   126
01C6 0D11         1196           JMPR    cc_UC,_81
01C8              1197   _80:
               R  1198           ?SYMB   '',$,102,4
                  1199   ; smspdu.c  127         else
                  1200   ; smspdu.c  128         {
                  1201   ; smspdu.c  129                 strcpy( TempPhoneNum, "A1" );
                  1202           ?LINE   129
01C8 88D0         1203           MOV     [-R0],R13
               R  1204           ?SYMB   '',$,96,1394
01CA 88E0         1205           MOV     [-R0],R14
               R  1206           ?SYMB   '',$,96,1396
01CC E04C         1207           MOV     R12,#04h
01CE 00C0         1208           ADD     R12,R0
01D0 66FCFF3F     1209           AND     R12,#03FFFh
01D4 F2FD02FE     1210           MOV     R13,DPP1
01D8 E6FE0000  R  1211           MOV     R14,#POF _4
01DC E6FF0000  R  1212           MOV     R15,#PAG _4
01E0 DA000000  R  1213           CALLS   SEG _strcpy,_strcpy
01E4 98E0         1214           MOV     R14,[R0+]
               R  1215           ?SYMB   '',$,96,1394
01E6 98D0         1216           MOV     R13,[R0+]
               R  1217           ?SYMB   '',$,96,1392
                  1218   ; smspdu.c  130                 offset = 0;
                  1219           ?LINE   130
01E8 E00C         1220           MOV     R12,#00h
               R  1221           ?SYMB   'R12',$,100,4
                  1222   ; smspdu.c  131         }
                  1223           ?LINE   131
01EA              1224   _81:
                  1225   ; smspdu.c  132 
                  1226   ; smspdu.c  133         Analyse_PhoneNum( (pSMS_Send->PhoneNum)+offset, TempPhoneNum+2, ANALYSE
                         _CODE );
                  1227           ?LINE   133
01EA 88D0         1228           MOV     [-R0],R13
               R  1229           ?SYMB   '',$,96,1394
01EC 88E0         1230           MOV     [-R0],R14
               R  1231           ?SYMB   '',$,96,1396
01EE 88C0         1232           MOV     [-R0],R12
               R  1233           ?SYMB   '',$,96,1398
01F0 E00F         1234           MOV     R15,#00h
01F2 88F0         1235           MOV     [-R0],R15
               R  1236           ?SYMB   '',$,96,1400
01F4 D4D00400     1237           MOV     R13,[R0+#04H]
01F8 D4C00600     1238           MOV     R12,[R0+#06H]
               R  1239           ?SYMB   '',$,102,4
01FC D4100200     1240           MOV     R1,[R0+#02H]
0200 00C1         1241           ADD     R12,R1
0202 E0AE         1242           MOV     R14,#0Ah
0204 00E0         1243           ADD     R14,R0
0206 66FEFF3F     1244           AND     R14,#03FFFh
020A F2FF02FE     1245           MOV     R15,DPP1
020E DA005604  R  1246           CALLS   SEG _Analyse_PhoneNum,_Analyse_PhoneNum
0212 0802         1247           ADD     R0,#02h
               R  1248           ?SYMB   '',$,96,1398
0214 98C0         1249           MOV     R12,[R0+]
               R  1250           ?SYMB   '',$,96,1396
               R  1251           ?SYMB   'R12',$,100,4
0216 98E0         1252           MOV     R14,[R0+]
               R  1253           ?SYMB   '',$,96,1394
0218 98D0         1254           MOV     R13,[R0+]
               R  1255           ?SYMB   '',$,96,1392
                  1256   ; smspdu.c  134         len = strlen( (pSMS_Send->PhoneNum)+offset );
                  1257           ?LINE   134
021A F0FC         1258           MOV     R15,R12
021C F0CD         1259           MOV     R12,R13
               R  1260           ?SYMB   '',$,102,4
021E F0DE         1261           MOV     R13,R14
               R  1262           ?SYMB   '',$,102,4
0220 00CF         1263           ADD     R12,R15
0222 DA000000  R  1264           CALLS   SEG _strlen,_strlen
                  1265   ; smspdu.c  135 
                  1266   ; smspdu.c  136 //      sprintf( PhoneNum, "%02x", len );       // PhoneNum Length
                  1267   ; smspdu.c  137         strcpy( PhoneNum, "0B");
                  1268           ?LINE   137
0226 E6FC1800     1269           MOV     R12,#018h
022A 00C0         1270           ADD     R12,R0
022C 66FCFF3F     1271           AND     R12,#03FFFh
0230 F2FD02FE     1272           MOV     R13,DPP1
0234 E6FE0000  R  1273           MOV     R14,#POF _10
0238 E6FF0000  R  1274           MOV     R15,#PAG _10
023C DA000000  R  1275           CALLS   SEG _strcpy,_strcpy
                  1276   ; smspdu.c  138         strcat( PhoneNum, TempPhoneNum );       // PhoneNum PhoneNum
                  1277           ?LINE   138
0240 E6FC1800     1278           MOV     R12,#018h
0244 00C0         1279           ADD     R12,R0
0246 66FCFF3F     1280           AND     R12,#03FFFh
024A F2FD02FE     1281           MOV     R13,DPP1
024E F0E0         1282           MOV     R14,R0
0250 66FEFF3F     1283           AND     R14,#03FFFh
0254 F2FF02FE     1284           MOV     R15,DPP1
0258 DA000000  R  1285           CALLS   SEG _strcat,_strcat
                  1286   ; smspdu.c  139         strcat( pDesStr, PhoneNum );
                  1287           ?LINE   139
025C F0C8         1288           MOV     R12,R8
025E F0D9         1289           MOV     R13,R9
0260 E6FE1800     1290           MOV     R14,#018h
0264 00E0         1291           ADD     R14,R0
0266 66FEFF3F     1292           AND     R14,#03FFFh
026A F2FF02FE     1293           MOV     R15,DPP1
026E DA000000  R  1294           CALLS   SEG _strcat,_strcat
                  1295   ; smspdu.c  140 
                  1296   ; smspdu.c  141         // some settings
                  1297   ; smspdu.c  142         switch ( pSMS_Send->PID )       //PID
                  1298           ?LINE   142
0272 DC47         1299           EXTP    R7,#01h
0274 D4C62000 1   1300           MOV     R12,[R6+#020H]
0278 28C1         1301           SUB     R12,#01h
027A 48C6         1302           CMP     R12,#06h
027C EAE00E03  R  1303           JMPA    cc_UGT,_89
0280 5C1C         1304           SHL     R12,#01h
0282 06FC0000  R  1305           ADD     R12,#POF __swtable104
0286 D7400000  R  1306           EXTP    #PAG __swtable104,#01h
028A A8CC     1   1307           MOV     R12,[R12]
028C 9C0C         1308           JMPI    cc_UC,[R12]
                  1309   ; smspdu.c  143         {
                  1310   ; smspdu.c  144         case PID_TELEX:
                  1311           ?LINE   144
028E              1312   _82:
                  1313   ; smspdu.c  145                 strcat( pDesStr, "21" );
                  1314           ?LINE   145
028E F0C8         1315           MOV     R12,R8
0290 F0D9         1316           MOV     R13,R9
0292 E6FE0000  R  1317           MOV     R14,#POF _11
0296 E6FF0000  R  1318           MOV     R15,#PAG _11
029A DA000000  R  1319           CALLS   SEG _strcat,_strcat
                  1320   ; smspdu.c  146                 break;
                  1321           ?LINE   146
029E EA001E03  R  1322           JMPA    cc_UC,_96
                  1323   ; smspdu.c  147         case PID_TELEFAX:
                  1324           ?LINE   147
02A2              1325   _83:
                  1326   ; smspdu.c  148                 strcat( pDesStr, "22" );
                  1327           ?LINE   148
02A2 F0C8         1328           MOV     R12,R8
02A4 F0D9         1329           MOV     R13,R9
02A6 E6FE0000  R  1330           MOV     R14,#POF _12
02AA E6FF0000  R  1331           MOV     R15,#PAG _12
02AE DA000000  R  1332           CALLS   SEG _strcat,_strcat
                  1333   ; smspdu.c  149                 break;
                  1334           ?LINE   149
02B2 0D35         1335           JMPR    cc_UC,_96
                  1336   ; smspdu.c  150         case PID_VOICE:
                  1337           ?LINE   150
02B4              1338   _84:
                  1339   ; smspdu.c  151                 strcat( pDesStr, "24" );
                  1340           ?LINE   151
02B4 F0C8         1341           MOV     R12,R8
02B6 F0D9         1342           MOV     R13,R9
02B8 E6FE0000  R  1343           MOV     R14,#POF _13
02BC E6FF0000  R  1344           MOV     R15,#PAG _13
02C0 DA000000  R  1345           CALLS   SEG _strcat,_strcat
                  1346   ; smspdu.c  152                 break;
                  1347           ?LINE   152
02C4 0D2C         1348           JMPR    cc_UC,_96
                  1349   ; smspdu.c  153         case PID_ERMES:
                  1350           ?LINE   153
02C6              1351   _85:
                  1352   ; smspdu.c  154                 strcat( pDesStr, "25" );
                  1353           ?LINE   154
02C6 F0C8         1354           MOV     R12,R8
02C8 F0D9         1355           MOV     R13,R9
02CA E6FE0000  R  1356           MOV     R14,#POF _14
02CE E6FF0000  R  1357           MOV     R15,#PAG _14
02D2 DA000000  R  1358           CALLS   SEG _strcat,_strcat
                  1359   ; smspdu.c  155                 break;
                  1360           ?LINE   155
02D6 0D23         1361           JMPR    cc_UC,_96
                  1362   ; smspdu.c  156         case PID_NPAGING:
                  1363           ?LINE   156
02D8              1364   _86:
                  1365   ; smspdu.c  157                 strcat( pDesStr, "26" );
                  1366           ?LINE   157
02D8 F0C8         1367           MOV     R12,R8
02DA F0D9         1368           MOV     R13,R9
02DC E6FE0000  R  1369           MOV     R14,#POF _15
02E0 E6FF0000  R  1370           MOV     R15,#PAG _15
02E4 DA000000  R  1371           CALLS   SEG _strcat,_strcat
                  1372   ; smspdu.c  158                 break;
                  1373           ?LINE   158
02E8 0D1A         1374           JMPR    cc_UC,_96
                  1375   ; smspdu.c  159         case PID_X400:
                  1376           ?LINE   159
02EA              1377   _87:
                  1378   ; smspdu.c  160                 strcat( pDesStr, "31" );
                  1379           ?LINE   160
02EA F0C8         1380           MOV     R12,R8
02EC F0D9         1381           MOV     R13,R9
02EE E6FE0000  R  1382           MOV     R14,#POF _16
02F2 E6FF0000  R  1383           MOV     R15,#PAG _16
02F6 DA000000  R  1384           CALLS   SEG _strcat,_strcat
                  1385   ; smspdu.c  161                 break;
                  1386           ?LINE   161
02FA 0D11         1387           JMPR    cc_UC,_96
                  1388   ; smspdu.c  162         case PID_EMAIL:
                  1389           ?LINE   162
02FC              1390   _88:
                  1391   ; smspdu.c  163                 strcat( pDesStr, "32" );
                  1392           ?LINE   163
02FC F0C8         1393           MOV     R12,R8
02FE F0D9         1394           MOV     R13,R9
0300 E6FE0000  R  1395           MOV     R14,#POF _17
0304 E6FF0000  R  1396           MOV     R15,#PAG _17
0308 DA000000  R  1397           CALLS   SEG _strcat,_strcat
                  1398   ; smspdu.c  164                 break;
                  1399           ?LINE   164
030C 0D08         1400           JMPR    cc_UC,_96
                  1401   ; smspdu.c  165         default:
                  1402           ?LINE   165
030E              1403   _89:
                  1404   ; smspdu.c  166                 strcat( pDesStr, "00" );
                  1405           ?LINE   166
030E F0C8         1406           MOV     R12,R8
0310 F0D9         1407           MOV     R13,R9
0312 E6FE0000  R  1408           MOV     R14,#POF _18
0316 E6FF0000  R  1409           MOV     R15,#PAG _18
031A DA000000  R  1410           CALLS   SEG _strcat,_strcat
                  1411   ; smspdu.c  167                 break;
                  1412   ; smspdu.c  168         }
                  1413           ?LINE   168
031E              1414   _96:
                  1415   ; smspdu.c  169         len = pSMS_Send->ConLen;//strlen( pSMS_Send->Context );
                  1416           ?LINE   169
031E DC47         1417           EXTP    R7,#01h
0320 D4C61A00 1   1418           MOV     R12,[R6+#01AH]
0324 C4C0C402     1419           MOV     [R0+#02C4H],R12
               R  1420           ?SYMB   '-2ac',$,101,2
                  1421   ; smspdu.c  170 
                  1422   ; smspdu.c  171         if ( len > 70 )
                  1423           ?LINE   171
0328 46FC4600     1424           CMP     R12,#046h
032C BD09         1425           JMPR    cc_SLE,_97
                  1426   ; smspdu.c  172                 strcat( pDesStr, "00" );
                  1427           ?LINE   172
032E F0C8         1428           MOV     R12,R8
0330 F0D9         1429           MOV     R13,R9
0332 E6FE0000  R  1430           MOV     R14,#POF _18
0336 E6FF0000  R  1431           MOV     R15,#PAG _18
033A DA000000  R  1432           CALLS   SEG _strcat,_strcat
033E 0D08         1433           JMPR    cc_UC,_98
0340              1434   _97:
                  1435   ; smspdu.c  173         else
                  1436   ; smspdu.c  174                 strcat( pDesStr, "08" );
                  1437           ?LINE   174
0340 F0C8         1438           MOV     R12,R8
0342 F0D9         1439           MOV     R13,R9
0344 E6FE0000  R  1440           MOV     R14,#POF _5
0348 E6FF0000  R  1441           MOV     R15,#PAG _5
034C DA000000  R  1442           CALLS   SEG _strcat,_strcat
0350              1443   _98:
                  1444   ; smspdu.c  175 
                  1445   ; smspdu.c  176         DecNum2HexStr( pSMS_Send->VPvalue, VP);
                  1446           ?LINE   176
0350 DC47         1447           EXTP    R7,#01h
0352 D4C62200 1   1448           MOV     R12,[R6+#022H]
0356 E6FD6205     1449           MOV     R13,#0562h
035A 00D0         1450           ADD     R13,R0
035C 66FDFF3F     1451           AND     R13,#03FFFh
0360 F2FE02FE     1452           MOV     R14,DPP1
0364 DA006400  R  1453           CALLS   SEG _DecNum2HexStr,_DecNum2HexStr
                  1454   ; smspdu.c  177         strcat( pDesStr, VP);
                  1455           ?LINE   177
0368 F0C8         1456           MOV     R12,R8
036A F0D9         1457           MOV     R13,R9
036C E6FE6205     1458           MOV     R14,#0562h
0370 00E0         1459           ADD     R14,R0
0372 66FEFF3F     1460           AND     R14,#03FFFh
0376 F2FF02FE     1461           MOV     R15,DPP1
037A DA000000  R  1462           CALLS   SEG _strcat,_strcat
                  1463   ; smspdu.c  178 
                  1464   ; smspdu.c  179         memset( TempContext, 0, ME_SMS_PDU_LEN );
                  1465           ?LINE   179
037E E6FC3000     1466           MOV     R12,#030h
0382 00C0         1467           ADD     R12,R0
0384 66FCFF3F     1468           AND     R12,#03FFFh
0388 F2FD02FE     1469           MOV     R13,DPP1
038C E00E         1470           MOV     R14,#00h
038E E6FF9402     1471           MOV     R15,#0294h
0392 DA000000  R  1472           CALLS   SEG _memset,_memset
                  1473   ; smspdu.c  180         memset( Context, 0, ME_SMS_PDU_LEN );
                  1474           ?LINE   180
0396 E6FCC602     1475           MOV     R12,#02C6h
039A 00C0         1476           ADD     R12,R0
039C 66FCFF3F     1477           AND     R12,#03FFFh
03A0 F2FD02FE     1478           MOV     R13,DPP1
03A4 E00E         1479           MOV     R14,#00h
03A6 E6FF9402     1480           MOV     R15,#0294h
03AA DA000000  R  1481           CALLS   SEG _memset,_memset
                  1482   ; smspdu.c  181 
                  1483   ; smspdu.c  182         // Send Context length
                  1484   ; smspdu.c  183         if ( len > 70 || pSMS_Send->Type == DATA_SMS )
                  1485           ?LINE   183
03AE D4C0C402     1486           MOV     R12,[R0+#02C4H]
03B2 46FC4600     1487           CMP     R12,#046h
03B6 AD06         1488           JMPR    cc_SGT,_99
03B8 DC47         1489           EXTP    R7,#01h
03BA D4D61800 1   1490           MOV     R13,[R6+#018H]
03BE 48D1         1491           CMP     R13,#01h
03C0 EA304804  R  1492           JMPA    cc_NE,_100
03C4              1493   _99:
                  1494   ; smspdu.c  184         {
                  1495   ; smspdu.c  185 //              sprintf( ContextLen, "%02x", len*2 );
                  1496   ; smspdu.c  186                 strcpy( ContextLen, "C8");
                  1497           ?LINE   186
03C4 E6FC5A05     1498           MOV     R12,#055Ah
03C8 00C0         1499           ADD     R12,R0
03CA 66FCFF3F     1500           AND     R12,#03FFFh
03CE F2FD02FE     1501           MOV     R13,DPP1
03D2 E6FE0000  R  1502           MOV     R14,#POF _19
03D6 E6FF0000  R  1503           MOV     R15,#PAG _19
03DA DA000000  R  1504           CALLS   SEG _strcpy,_strcpy
                  1505   ; smspdu.c  187                 strcat( pDesStr, ContextLen );                                  
                         // Context Length
                  1506           ?LINE   187
03DE F0C8         1507           MOV     R12,R8
03E0 F0D9         1508           MOV     R13,R9
03E2 E6FE5A05     1509           MOV     R14,#055Ah
03E6 00E0         1510           ADD     R14,R0
03E8 66FEFF3F     1511           AND     R14,#03FFFh
03EC F2FF02FE     1512           MOV     R15,DPP1
03F0 DA000000  R  1513           CALLS   SEG _strcat,_strcat
                  1514   ; smspdu.c  188 
                  1515   ; smspdu.c  189                 ASCIIstr2GSMstr( pSMS_Send->Context, TempContext );
                  1516           ?LINE   189
03F4 F0C6         1517           MOV     R12,R6
03F6 F0D7         1518           MOV     R13,R7
03F8 06FC3C00     1519           ADD     R12,#03Ch
03FC E6FE3000     1520           MOV     R14,#030h
0400 00E0         1521           ADD     R14,R0
0402 66FEFF3F     1522           AND     R14,#03FFFh
0406 F2FF02FE     1523           MOV     R15,DPP1
040A DA00D60C  R  1524           CALLS   SEG _ASCIIstr2GSMstr,_ASCIIstr2GSMstr
               R  1525           ?SYMB   '',$,102,7
                  1526   ; smspdu.c  190                 BinStr2String( TempContext, Context, strlen(TempContext) );
                  1527           ?LINE   190
040E E6FC3000     1528           MOV     R12,#030h
0412 00C0         1529           ADD     R12,R0
0414 66FCFF3F     1530           AND     R12,#03FFFh
0418 F2FD02FE     1531           MOV     R13,DPP1
041C DA000000  R  1532           CALLS   SEG _strlen,_strlen
0420 8840         1533           MOV     [-R0],R4
               R  1534           ?SYMB   '',$,96,1394
0422 E6FC3200     1535           MOV     R12,#032h
0426 00C0         1536           ADD     R12,R0
0428 66FCFF3F     1537           AND     R12,#03FFFh
042C F2FD02FE     1538           MOV     R13,DPP1
0430 E6FEC802     1539           MOV     R14,#02C8h
0434 00E0         1540           ADD     R14,R0
0436 66FEFF3F     1541           AND     R14,#03FFFh
043A F2FF02FE     1542           MOV     R15,DPP1
043E DA00E00B  R  1543           CALLS   SEG _BinStr2String,_BinStr2String
0442 0802         1544           ADD     R0,#02h
               R  1545           ?SYMB   '',$,96,1392
                  1546   ; smspdu.c  191                 strcat( pDesStr, Context );                                     
                                 // Context
                  1547           ?LINE   191
0444 EA00EC04  R  1548           JMPA    cc_UC,_101
                  1549   ; smspdu.c  192         }
                  1550           ?LINE   192
0448              1551   _100:
               R  1552           ?SYMB   'R6R7',$,100,7
                  1553   ; smspdu.c  193         else
                  1554   ; smspdu.c  194         {
                  1555   ; smspdu.c  195                 len = MultiByteToWideChar( CP_ACP, 0, pSMS_Send->Context, strle
                         n(pSMS_Send->Context),
                  1556   ; smspdu.c  196                                                 (LPWSTR)TempContext, ME_SMS_PDU
                         _LEN );
                  1557           ?LINE   196
0448 E6FC9402     1558           MOV     R12,#0294h
044C 88C0         1559           MOV     [-R0],R12
               R  1560           ?SYMB   '',$,96,1394
044E E6FD3200     1561           MOV     R13,#032h
0452 00D0         1562           ADD     R13,R0
0454 66FDFF3F     1563           AND     R13,#03FFFh
0458 F2FE02FE     1564           MOV     R14,DPP1
045C 88E0         1565           MOV     [-R0],R14
               R  1566           ?SYMB   '',$,96,1396
045E 88D0         1567           MOV     [-R0],R13
               R  1568           ?SYMB   '',$,96,1398
0460 F0C6         1569           MOV     R12,R6
0462 F0D7         1570           MOV     R13,R7
0464 06FC3C00     1571           ADD     R12,#03Ch
0468 DA000000  R  1572           CALLS   SEG _strlen,_strlen
046C 8840         1573           MOV     [-R0],R4
               R  1574           ?SYMB   '',$,96,1400
046E 06F63C00     1575           ADD     R6,#03Ch
               R  1576           ?SYMB   '',$,102,7
0472 8870         1577           MOV     [-R0],R7
               R  1578           ?SYMB   '',$,96,1402
0474 8860         1579           MOV     [-R0],R6
               R  1580           ?SYMB   '',$,96,1404
0476 E00C         1581           MOV     R12,#00h
0478 E00D         1582           MOV     R13,#00h
047A E00E         1583           MOV     R14,#00h
047C DA000000  R  1584           CALLS   SEG _MultiByteToWideChar,_MultiByteToWideChar
0480 06F00C00     1585           ADD     R0,#0Ch
               R  1586           ?SYMB   '',$,96,1392
0484 C440C402     1587           MOV     [R0+#02C4H],R4
                  1588   ; smspdu.c  197 
                  1589   ; smspdu.c  198                 sprintf( ContextLen, "%02x", len*2 );
                  1590           ?LINE   198
0488 5C14         1591           SHL     R4,#01h
048A 8840         1592           MOV     [-R0],R4
               R  1593           ?SYMB   '',$,96,1394
048C E6FC5C05     1594           MOV     R12,#055Ch
0490 00C0         1595           ADD     R12,R0
0492 66FCFF3F     1596           AND     R12,#03FFFh
0496 F2FD02FE     1597           MOV     R13,DPP1
049A E6FE0000  R  1598           MOV     R14,#POF _20
049E E6FF0000  R  1599           MOV     R15,#PAG _20
04A2 DA000000  R  1600           CALLS   SEG _sprintfex,_sprintfex
04A6 0802         1601           ADD     R0,#02h
               R  1602           ?SYMB   '',$,96,1392
                  1603   ; smspdu.c  199                 strcat( pDesStr, ContextLen );                                  
                         // Context Length
                  1604           ?LINE   199
04A8 F0C8         1605           MOV     R12,R8
04AA F0D9         1606           MOV     R13,R9
04AC E6FE5A05     1607           MOV     R14,#055Ah
04B0 00E0         1608           ADD     R14,R0
04B2 66FEFF3F     1609           AND     R14,#03FFFh
04B6 F2FF02FE     1610           MOV     R15,DPP1
04BA DA000000  R  1611           CALLS   SEG _strcat,_strcat
                  1612   ; smspdu.c  200 
                  1613   ; smspdu.c  201                 Analyse_WideChar2PDUCode(  Context, TempContext, ME_SMS_PDU_LEN
                         , len );
                  1614           ?LINE   201
04BE D460C402     1615           MOV     R6,[R0+#02C4H]
04C2 8860         1616           MOV     [-R0],R6
               R  1617           ?SYMB   '',$,96,1394
04C4 E6F79402     1618           MOV     R7,#0294h
04C8 8870         1619           MOV     [-R0],R7
               R  1620           ?SYMB   '',$,96,1396
04CA E6FCCA02     1621           MOV     R12,#02CAh
04CE 00C0         1622           ADD     R12,R0
04D0 66FCFF3F     1623           AND     R12,#03FFFh
04D4 F2FD02FE     1624           MOV     R13,DPP1
04D8 E6FE3400     1625           MOV     R14,#034h
04DC 00E0         1626           ADD     R14,R0
04DE 66FEFF3F     1627           AND     R14,#03FFFh
04E2 F2FF02FE     1628           MOV     R15,DPP1
04E6 DA000E0B  R  1629           CALLS   SEG _Analyse_WideChar2PDUCode,_Analyse_WideChar2PDUCode
04EA 0804         1630           ADD     R0,#04h
               R  1631           ?SYMB   '',$,96,1392
                  1632   ; smspdu.c  202                 strcat( pDesStr, Context );                                     
                                 // Context
                  1633           ?LINE   202
04EC              1634   _101:
04EC F0C8         1635           MOV     R12,R8
04EE F0D9         1636           MOV     R13,R9
04F0 E6FEC602     1637           MOV     R14,#02C6h
04F4 00E0         1638           ADD     R14,R0
04F6 66FEFF3F     1639           AND     R14,#03FFFh
04FA F2FF02FE     1640           MOV     R15,DPP1
04FE DA000000  R  1641           CALLS   SEG _strcat,_strcat
                  1642   ; smspdu.c  203         }
                  1643   ; smspdu.c  204 
                  1644   ; smspdu.c  205         SMSLength = strlen( pDesStr )/2 - SCALength-1;  // Calculate SMS Length
                  1645           ?LINE   205
0502 F0C8         1646           MOV     R12,R8
0504 F0D9         1647           MOV     R13,R9
0506 DA000000  R  1648           CALLS   SEG _strlen,_strlen
050A F064         1649           MOV     R6,R4
050C 7C16         1650           SHR     R6,#01h
050E D4706605     1651           MOV     R7,[R0+#0566H]
0512 2067         1652           SUB     R6,R7
0514 2861         1653           SUB     R6,#01h
               R  1654           ?SYMB   'R6',$,100,1
                  1655   ; smspdu.c  206 
                  1656   ; smspdu.c  207         EndCode[0]=0x1A;        EndCode[1]=0;
                  1657           ?LINE   207
0516 E7F21A00     1658           MOVB    RL1,#01Ah
051A E4205E05     1659           MOVB    [R0+#055EH],RL1
051E E104         1660           MOVB    RL2,#00h
0520 E4405F05     1661           MOVB    [R0+#055FH],RL2
                  1662   ; smspdu.c  208         strcat( pDesStr,EndCode );                                              
                         // Send Command End_Code
                  1663           ?LINE   208
0524 F0C8         1664           MOV     R12,R8
0526 F0D9         1665           MOV     R13,R9
0528 E6FE5E05     1666           MOV     R14,#055Eh
052C 00E0         1667           ADD     R14,R0
052E 66FEFF3F     1668           AND     R14,#03FFFh
0532 F2FF02FE     1669           MOV     R15,DPP1
0536 DA000000  R  1670           CALLS   SEG _strcat,_strcat
                  1671   ; smspdu.c  209 
                  1672   ; smspdu.c  210         strupr( pDesStr );
                  1673           ?LINE   210
053A F0C8         1674           MOV     R12,R8
053C F0D9         1675           MOV     R13,R9
053E DA000000  R  1676           CALLS   SEG _strupr,_strupr
               R  1677           ?SYMB   '',$,102,6
                  1678   ; smspdu.c  211 
                  1679   ; smspdu.c  212         return SMSLength;
                  1680           ?LINE   212
0542 F046         1681           MOV     R4,R6
                  1682   ; smspdu.c  213 }
                  1683           ?LINE   213
0544              1684   _102:
               R  1685           ?SYMB   '',$,102,1
               R  1686           ?SYMB   '',$,102,8
               R  1687           ?SYMB   '',$,102,9
               R  1688           ?SYMB   '',$,102,10
               R  1689           ?SYMB   '',$,102,11
               R  1690           ?SYMB   '',$,102,12
               R  1691           ?SYMB   '',$,102,13
               R  1692           ?SYMB   '',$,102,14
0544 06F06805     1693           ADD     R0,#0568h
               R  1694           ?SYMB   '',$,96,8
0548 9860         1695           MOV     R6,[R0+]
               R  1696           ?SYMB   '',$,96,6
054A 9870         1697           MOV     R7,[R0+]
               R  1698           ?SYMB   '',$,96,4
054C 9880         1699           MOV     R8,[R0+]
               R  1700           ?SYMB   '',$,96,2
054E 9890         1701           MOV     R9,[R0+]
               R  1702           ?SYMB   '',$,96,0
0550 DB00         1703           RETS
                  1704   _ME_TranStr_Code        ENDP
               R  1705           ?SYMB   '',$,17,213
                  1706   ; smspdu.c  214 
                  1707   ; smspdu.c  215 /*********************************************************************\ 
                  1708   ; smspdu.c  216 * Function         
                  1709   ; smspdu.c  217 * Purpose      
                  1710   ; smspdu.c  218 * Params           
                  1711   ; smspdu.c  219 * Return                   
                  1712   ; smspdu.c  220 * Remarks          
                  1713   ; smspdu.c  221 **********************************************************************/
                  1714   ; smspdu.c  222 /*------------------------------------------------------
                  1715   ; smspdu.c  223  *
                  1716   ; smspdu.c  224  * PDU String to Code Transmitted Context
                  1717   ; smspdu.c  225  * +CMGR: 1,,38
                  1718   ; smspdu.c  226  * "0891683108100005F0040D91683108317090F20000100180512510231441E19058341E9149E
                         592D9743EA151E9940A"
                  1719   ; smspdu.c  227  * "0891683108100005F04406A177848800F530202151016023550B05040B8423F000037102028
                         A808E0400003D9D880681043E4D086983687474703A2F2F3231382E3230302E3234342E3139372F7761732F30323132
                         31353136353739313030303030373030303030303330313400"
                  1720   ; smspdu.c  228  *----------------------------------------------------*/
                  1721   ; smspdu.c  229 int     ME_RecStr_Code( PSMS_INFO pDesSMS_Read, char* pPDUStr )
                  1722   ; smspdu.c  230 {
                  1723           ?LINE   230
                  1724           PUBLIC  _ME_RecStr_Code
               R  1725           ?SYMB   'ME_RecStr_Code',_ME_RecStr_Code,37,16
                  1726           ?SYMB   '',230,8,34
                  1727   _ME_RecStr_Code PROC    FAR
                  1728           ?SYMB   '',03c0H,95,0
0552 8890         1729           MOV     [-R0],R9
               R  1730           ?SYMB   '',$,96,2
0554 8880         1731           MOV     [-R0],R8
               R  1732           ?SYMB   '',$,96,4
0556 8870         1733           MOV     [-R0],R7
               R  1734           ?SYMB   '',$,96,6
0558 8860         1735           MOV     [-R0],R6
               R  1736           ?SYMB   '',$,96,8
055A 88F0         1737           MOV     [-R0],R15
               R  1738           ?SYMB   '',$,96,10
055C 88E0         1739           MOV     [-R0],R14
               R  1740           ?SYMB   '',$,96,12
055E 26F07A05     1741           SUB     R0,#057Ah
               R  1742           ?SYMB   '',$,96,1414
0562 F06D         1743           MOV     R6,R13
0564 F09C         1744           MOV     R9,R12
                  1745   ; Locals:
                  1746   ;     PhoneNum = offset 0
                  1747   ;     SendTime = offset 24
                  1748   ;     PhoneLen = offset 64
                  1749   ;     Context = offset 68
                  1750   ;     TempContext = offset 728
                  1751   ;     fo = offset 1388
                  1752   ;     ContextLen = offset 1398
                  1753   ; 
                  1754   ; Statics:
                  1755   ; 
                  1756   ; CSEs:
                  1757   ;     PDU_Offset = R8
                  1758   ;     pDesSMS_Read = R9R6
                  1759   ;     Len = R7
                  1760   ;     pPDUStr = offset 1402
                  1761   ;     pPDUStr + 1 + PDU_Offset = R12R13
                  1762   ;     Offset = R12
                  1763   ;     ContextType = R14
                  1764   ;     pPDUStr + PDU_Offset = R15R1
                  1765   ;     dcs = RL1
                  1766   ;     FoData = RL7
                  1767   ; 
                  1768           ?SYMB   'pDesSMS_Read',5,99,558
                  1769           ?SYMB   'pPDUStr',8,99,263
                  1770           ?SYMB   'Len',7,98,16
                  1771           ?SYMB   'Offset',4,98,16
                  1772           ?SYMB   'PDU_Offset',6,98,16
                  1773           ?SYMB   'ContextType',2,98,16
                  1774           ?SYMB   'PhoneLen',15,98,562
               R  1775           ?SYMB   '-546',$,101,15
                  1776           ?SYMB   '',02360002H,5,565
                  1777           ?SYMB   '',16,47,566
                  1778           ?SYMB   '',0,30,0
                  1779           ?SYMB   '',23,49,0
                  1780           ?SYMB   'PhoneNum',14,98,565
               R  1781           ?SYMB   '-586',$,101,14
                  1782           ?SYMB   'SendTime',13,98,521
               R  1783           ?SYMB   '-56e',$,101,13
                  1784           ?SYMB   'ContextLen',12,98,562
               R  1785           ?SYMB   '-10',$,101,12
                  1786           ?SYMB   '',02380002H,5,567
                  1787           ?SYMB   '',16,47,568
                  1788           ?SYMB   '',0,30,0
                  1789           ?SYMB   '',659,49,0
                  1790           ?SYMB   'Context',11,98,567
               R  1791           ?SYMB   '-542',$,101,11
                  1792           ?SYMB   'TempContext',10,98,567
               R  1793           ?SYMB   '-2ae',$,101,10
                  1794           ?SYMB   'SMS_FO',0,40,569
                  1795           ?SYMB   'MTI',0,23,266
                  1796           ?SYMB   'RD',8,23,266
                  1797           ?SYMB   'MMS',16,23,266
                  1798           ?SYMB   'VPF',24,23,266
                  1799           ?SYMB   'SRR',32,23,266
                  1800           ?SYMB   'SRI',40,23,266
                  1801           ?SYMB   'SRQ',48,23,266
                  1802           ?SYMB   'UDHI',56,23,266
                  1803           ?SYMB   'RP',64,23,266
                  1804           ?SYMB   '',80,18,0
                  1805           ?SYMB   'fo',9,98,569
               R  1806           ?SYMB   '-1a',$,101,9
                  1807           ?SYMB   'FoData',3,98,266
               R  1808           ?SYMB   '-c',$,101,8
               R  1809           ?SYMB   'R9R6',$,100,5
                  1810   ; smspdu.c  231         int             Len, Offset;
                  1811   ; smspdu.c  232         int             PDU_Offset, ContextType;
                  1812   ; smspdu.c  233 
                  1813   ; smspdu.c  234         char    PhoneLen[ME_CODELEN_STRLEN], PhoneNum[ME_PHONENUM_LEN];
                  1814   ; smspdu.c  235         char    SendTime[ME_SMS_TIME_LEN];
                  1815   ; smspdu.c  236         char    ContextLen[ME_CODELEN_STRLEN];
                  1816   ; smspdu.c  237         char    Context[ME_SMS_PDU_LEN],TempContext[ME_SMS_PDU_LEN];
                  1817   ; smspdu.c  238         struct SMS_FO fo;
                  1818   ; smspdu.c  239         BYTE FoData;
                  1819   ; smspdu.c  240 
                  1820   ; smspdu.c  241         if( strlen( pPDUStr)== 0 )
                  1821           ?LINE   241
0566 F0CE         1822           MOV     R12,R14
0568 F0DF         1823           MOV     R13,R15
056A DA000000  R  1824           CALLS   SEG _strlen,_strlen
056E 4840         1825           CMP     R4,#00h
0570 3D04         1826           JMPR    cc_NZ,_162
               R  1827           ?SYMB   '',$,102,8
                  1828   ; smspdu.c  242                 return -1;
                  1829           ?LINE   242
0572 E6F4FFFF     1830           MOV     R4,#0FFFFh
0576 EA00000B  R  1831           JMPA    cc_UC,_215
057A              1832   _162:
               R  1833           ?SYMB   '',$,102,5
               R  1834           ?SYMB   '-c',$,101,8
               R  1835           ?SYMB   'R9R6',$,100,5
                  1836   ; smspdu.c  243 
                  1837   ; smspdu.c  244         memset(SendTime, 0, ME_SMS_TIME_LEN);
                  1838           ?LINE   244
057A E6FC1800     1839           MOV     R12,#018h
057E 00C0         1840           ADD     R12,R0
0580 66FCFF3F     1841           AND     R12,#03FFFh
0584 F2FD02FE     1842           MOV     R13,DPP1
0588 E00E         1843           MOV     R14,#00h
058A E6FF2800     1844           MOV     R15,#028h
058E DA000000  R  1845           CALLS   SEG _memset,_memset
                  1846   ; smspdu.c  245         memset(Context, 0, ME_SMS_PDU_LEN);
                  1847           ?LINE   245
0592 E6FC4400     1848           MOV     R12,#044h
0596 00C0         1849           ADD     R12,R0
0598 66FCFF3F     1850           AND     R12,#03FFFh
059C F2FD02FE     1851           MOV     R13,DPP1
05A0 E00E         1852           MOV     R14,#00h
05A2 E6FF9402     1853           MOV     R15,#0294h
05A6 DA000000  R  1854           CALLS   SEG _memset,_memset
                  1855   ; smspdu.c  246         memset(TempContext, 0, ME_SMS_PDU_LEN);
                  1856           ?LINE   246
05AA E6FCD802     1857           MOV     R12,#02D8h
05AE 00C0         1858           ADD     R12,R0
05B0 66FCFF3F     1859           AND     R12,#03FFFh
05B4 F2FD02FE     1860           MOV     R13,DPP1
05B8 E00E         1861           MOV     R14,#00h
05BA E6FF9402     1862           MOV     R15,#0294h
05BE DA000000  R  1863           CALLS   SEG _memset,_memset
                  1864   ; smspdu.c  247 
                  1865   ; smspdu.c  248         memcpy( PhoneLen, pPDUStr, 2 );                         // SCA Number
                  1866           ?LINE   248
05C2 E028         1867           MOV     R8,#02h
05C4 8880         1868           MOV     [-R0],R8
               R  1869           ?SYMB   '',$,96,1416
05C6 E6FC4200     1870           MOV     R12,#042h
05CA 00C0         1871           ADD     R12,R0
05CC 66FCFF3F     1872           AND     R12,#03FFFh
05D0 F2FD02FE     1873           MOV     R13,DPP1
05D4 D4E07C05     1874           MOV     R14,[R0+#057CH]
05D8 D4F07E05     1875           MOV     R15,[R0+#057EH]
05DC DA000000  R  1876           CALLS   SEG _memcpy,_memcpy
05E0 0802         1877           ADD     R0,#02h
               R  1878           ?SYMB   '',$,96,1414
                  1879   ; smspdu.c  249         PhoneLen[2] = 0;
                  1880           ?LINE   249
05E2 E10E         1881           MOVB    RL7,#00h
05E4 E4E04200     1882           MOVB    [R0+#042H],RL7
                  1883   ; smspdu.c  250         Len = HexString2DWORD( PhoneLen )*2 -2;
                  1884           ?LINE   250
05E8 E6FC4000     1885           MOV     R12,#040h
05EC 00C0         1886           ADD     R12,R0
05EE 66FCFF3F     1887           AND     R12,#03FFFh
05F2 F2FD02FE     1888           MOV     R13,DPP1
05F6 DA00C803  R  1889           CALLS   SEG _HexString2DWORD,_HexString2DWORD
05FA F074         1890           MOV     R7,R4
05FC 5C17         1891           SHL     R7,#01h
05FE 2872         1892           SUB     R7,#02h
               R  1893           ?SYMB   'R7',$,100,7
                  1894   ; smspdu.c  251 
                  1895   ; smspdu.c  252         PDU_Offset = 2;
                  1896           ?LINE   252
0600 E028         1897           MOV     R8,#02h
               R  1898           ?SYMB   'R8',$,100,6
                  1899   ; smspdu.c  253 
                  1900   ; smspdu.c  254         if ( Len > 0 )
                  1901           ?LINE   254
0602 4870         1902           CMP     R7,#00h
0604 EAB09206  R  1903           JMPA    cc_SLE,_165
                  1904   ; smspdu.c  255         {
                  1905   ; smspdu.c  256                 if( memcmp( pPDUStr+PDU_Offset, "91", 2 ) ==0 )
                  1906           ?LINE   256
0608 E02C         1907           MOV     R12,#02h
060A 88C0         1908           MOV     [-R0],R12
               R  1909           ?SYMB   '',$,96,1416
060C D4C07C05     1910           MOV     R12,[R0+#057CH]
0610 D4D07E05     1911           MOV     R13,[R0+#057EH]
0614 00C8         1912           ADD     R12,R8
0616 E6FE0000  R  1913           MOV     R14,#POF _3
061A E6FF0000  R  1914           MOV     R15,#PAG _3
061E DA000000  R  1915           CALLS   SEG _memcmp,_memcmp
               R  1916           ?SYMB   '',$,102,6
0622 0802         1917           ADD     R0,#02h
               R  1918           ?SYMB   '',$,96,1414
0624 4840         1919           CMP     R4,#00h
0626 3D0C         1920           JMPR    cc_NZ,_163
                  1921   ; smspdu.c  257                 {
                  1922   ; smspdu.c  258                         strcpy( pDesSMS_Read->SCA, "+" );
                  1923           ?LINE   258
0628 F0C9         1924           MOV     R12,R9
062A F0D6         1925           MOV     R13,R6
062C 06FC0C00     1926           ADD     R12,#0Ch
0630 E6FE0000  R  1927           MOV     R14,#POF _105
0634 E6FF0000  R  1928           MOV     R15,#PAG _105
0638 DA000000  R  1929           CALLS   SEG _strcpy,_strcpy
                  1930   ; smspdu.c  259                         Offset = 1;
                  1931           ?LINE   259
063C E01C         1932           MOV     R12,#01h
               R  1933           ?SYMB   'R12',$,100,4
                  1934   ; smspdu.c  260                 }
                  1935           ?LINE   260
063E 0D01         1936           JMPR    cc_UC,_164
0640              1937   _163:
               R  1938           ?SYMB   '',$,102,4
                  1939   ; smspdu.c  261                 else
                  1940   ; smspdu.c  262                         Offset = 0;
                  1941           ?LINE   262
0640 E00C         1942           MOV     R12,#00h
               R  1943           ?SYMB   'R12',$,100,4
0642              1944   _164:
                  1945   ; smspdu.c  263 
                  1946   ; smspdu.c  264                 PDU_Offset += 2;
                  1947           ?LINE   264
0642 E048         1948           MOV     R8,#04h
               R  1949           ?SYMB   'R8',$,100,6
                  1950   ; smspdu.c  265                 memcpy( PhoneNum, pPDUStr+PDU_Offset, Len );
                  1951           ?LINE   265
0644 88C0         1952           MOV     [-R0],R12
               R  1953           ?SYMB   '',$,96,1416
0646 8870         1954           MOV     [-R0],R7
               R  1955           ?SYMB   '',$,96,1418
0648 E04C         1956           MOV     R12,#04h
               R  1957           ?SYMB   '',$,102,4
064A 00C0         1958           ADD     R12,R0
064C 66FCFF3F     1959           AND     R12,#03FFFh
0650 F2FD02FE     1960           MOV     R13,DPP1
0654 D4E07E05     1961           MOV     R14,[R0+#057EH]
0658 D4F08005     1962           MOV     R15,[R0+#0580H]
065C 00E8         1963           ADD     R14,R8
065E DA000000  R  1964           CALLS   SEG _memcpy,_memcpy
0662 0802         1965           ADD     R0,#02h
               R  1966           ?SYMB   '',$,96,1416
0664 98C0         1967           MOV     R12,[R0+]
               R  1968           ?SYMB   '',$,96,1414
               R  1969           ?SYMB   'R12',$,100,4
                  1970   ; smspdu.c  266                 PhoneNum[Len]=0;
                  1971           ?LINE   266
0666 E102         1972           MOVB    RL1,#00h
0668 F0D7         1973           MOV     R13,R7
066A 00D0         1974           ADD     R13,R0
066C B92D         1975           MOVB    [R13],RL1
                  1976   ; smspdu.c  267 
                  1977   ; smspdu.c  268                 Analyse_PhoneNum( pDesSMS_Read->SCA+Offset, PhoneNum, ANALYSE_D
                         ECODE );
                  1978           ?LINE   268
066E E01D         1979           MOV     R13,#01h
0670 88D0         1980           MOV     [-R0],R13
               R  1981           ?SYMB   '',$,96,1416
0672 F0EC         1982           MOV     R14,R12
0674 F0C9         1983           MOV     R12,R9
               R  1984           ?SYMB   '',$,102,4
0676 F0D6         1985           MOV     R13,R6
0678 06FC0C00     1986           ADD     R12,#0Ch
               R  1987           ?SYMB   '',$,102,4
067C 00CE         1988           ADD     R12,R14
067E E02E         1989           MOV     R14,#02h
0680 00E0         1990           ADD     R14,R0
0682 66FEFF3F     1991           AND     R14,#03FFFh
0686 F2FF02FE     1992           MOV     R15,DPP1
068A DA005604  R  1993           CALLS   SEG _Analyse_PhoneNum,_Analyse_PhoneNum
068E 0802         1994           ADD     R0,#02h
               R  1995           ?SYMB   '',$,96,1414
                  1996   ; smspdu.c  269                 PDU_Offset += Len;
                  1997           ?LINE   269
0690 0087         1998           ADD     R8,R7
               R  1999           ?SYMB   '',$,102,6
               R  2000           ?SYMB   'R8',$,100,6
                  2001   ; smspdu.c  270         }
                  2002           ?LINE   270
0692              2003   _165:
               R  2004           ?SYMB   '',$,102,7
                  2005   ; smspdu.c  271 
                  2006   ; smspdu.c  272         memcpy(PhoneNum, pPDUStr+PDU_Offset, 2);
                  2007           ?LINE   272
0692 E027         2008           MOV     R7,#02h
0694 8870         2009           MOV     [-R0],R7
               R  2010           ?SYMB   '',$,96,1416
0696 E02C         2011           MOV     R12,#02h
0698 00C0         2012           ADD     R12,R0
069A 66FCFF3F     2013           AND     R12,#03FFFh
069E F2FD02FE     2014           MOV     R13,DPP1
06A2 D4E07C05     2015           MOV     R14,[R0+#057CH]
06A6 D4F07E05     2016           MOV     R15,[R0+#057EH]
06AA 00E8         2017           ADD     R14,R8
06AC DA000000  R  2018           CALLS   SEG _memcpy,_memcpy
06B0 0802         2019           ADD     R0,#02h
               R  2020           ?SYMB   '',$,96,1414
                  2021   ; smspdu.c  273         PhoneNum[2] = 0;
                  2022           ?LINE   273
06B2 E10E         2023           MOVB    RL7,#00h
06B4 E4E00200     2024           MOVB    [R0+#02H],RL7
                  2025   ; smspdu.c  274         FoData = HexStr2BYTE( PhoneNum );
                  2026           ?LINE   274
06B8 F0C0         2027           MOV     R12,R0
06BA 66FCFF3F     2028           AND     R12,#03FFFh
06BE F2FD02FE     2029           MOV     R13,DPP1
06C2 DA00F000  R  2030           CALLS   SEG _HexStr2BYTE,_HexStr2BYTE
06C6 F1E8         2031           MOVB    RL7,RL4
               R  2032           ?SYMB   'RL7',$,100,3
                  2033   ; smspdu.c  275 
                  2034   ; smspdu.c  276         FOData_Decode( FoData, &fo );
                  2035           ?LINE   276
06C8 C0EC         2036           MOVBZ   R12,RL7
06CA E6FD6C05     2037           MOV     R13,#056Ch
06CE 00D0         2038           ADD     R13,R0
06D0 66FDFF3F     2039           AND     R13,#03FFFh
06D4 F2FE02FE     2040           MOV     R14,DPP1
06D8 DA006007  R  2041           CALLS   SEG _FOData_Decode,_FOData_Decode
               R  2042           ?SYMB   '',$,102,3
                  2043   ; smspdu.c  277 
                  2044   ; smspdu.c  278         if ( fo.UDHI )
                  2045           ?LINE   278
06DC F4E07305     2046           MOVB    RL7,[R0+#0573H]
06E0 2D05         2047           JMPR    cc_Z,_166
                  2048   ; smspdu.c  279                 pDesSMS_Read->Type = DATA_SMS;
                  2049           ?LINE   279
06E2 E01C         2050           MOV     R12,#01h
06E4 DC46         2051           EXTP    R6,#01h
06E6 C4C90400 1   2052           MOV     [R9+#04H],R12
06EA 0D04         2053           JMPR    cc_UC,_167
06EC              2054   _166:
                  2055   ; smspdu.c  280         else
                  2056   ; smspdu.c  281                 pDesSMS_Read->Type = TEXT_SMS;
                  2057           ?LINE   281
06EC E007         2058           MOV     R7,#00h
06EE DC46         2059           EXTP    R6,#01h
06F0 C4790400 1   2060           MOV     [R9+#04H],R7
06F4              2061   _167:
                  2062   ; smspdu.c  282 
                  2063   ; smspdu.c  283         if ( fo.MTI == 2 )
                  2064           ?LINE   283
06F4 F4E06C05     2065           MOVB    RL7,[R0+#056CH]
06F8 49E2         2066           CMPB    RL7,#02h
06FA 3D05         2067           JMPR    cc_NE,_168
                  2068   ; smspdu.c  284                 pDesSMS_Read->Type = STATUS_REPORT;
                  2069           ?LINE   284
06FC E02C         2070           MOV     R12,#02h
06FE DC46         2071           EXTP    R6,#01h
0700 C4C90400 1   2072           MOV     [R9+#04H],R12
0704 0D08         2073           JMPR    cc_UC,_170
0706              2074   _168:
                  2075   ; smspdu.c  285         else if ( fo.MTI == 1 )
                  2076           ?LINE   285
0706 F4E06C05     2077           MOVB    RL7,[R0+#056CH]
070A 49E1         2078           CMPB    RL7,#01h
070C 3D04         2079           JMPR    cc_NE,_170
                  2080   ; smspdu.c  286                 pDesSMS_Read->Type = SUBMIT_REPORT;
                  2081           ?LINE   286
070E E03C         2082           MOV     R12,#03h
0710 DC46         2083           EXTP    R6,#01h
0712 C4C90400 1   2084           MOV     [R9+#04H],R12
                  2085   ; smspdu.c  287 
                  2086   ; smspdu.c  288         PDU_Offset += 2;                                                        
                         // some settings
                  2087           ?LINE   288
0716              2088   _170:
0716 0882         2089           ADD     R8,#02h
               R  2090           ?SYMB   '',$,102,6
               R  2091           ?SYMB   'R8',$,100,6
                  2092   ; smspdu.c  289 
                  2093   ; smspdu.c  290         if ( pDesSMS_Read->Type == STATUS_REPORT )
                  2094           ?LINE   290
0718 DC46         2095           EXTP    R6,#01h
071A D4790400 1   2096           MOV     R7,[R9+#04H]
071E 4872         2097           CMP     R7,#02h
0720 3D01         2098           JMPR    cc_NE,_171
                  2099   ; smspdu.c  291                 PDU_Offset += 2;                                                
                         //MR
                  2100           ?LINE   291
0722 0882         2101           ADD     R8,#02h
               R  2102           ?SYMB   '',$,102,6
               R  2103           ?SYMB   'R8',$,100,6
0724              2104   _171:
                  2105   ; smspdu.c  292 
                  2106   ; smspdu.c  293         memcpy( PhoneLen, pPDUStr+PDU_Offset, 2 );      // Sender Number
                  2107           ?LINE   293
0724 E027         2108           MOV     R7,#02h
0726 8870         2109           MOV     [-R0],R7
               R  2110           ?SYMB   '',$,96,1416
0728 E6FC4200     2111           MOV     R12,#042h
072C 00C0         2112           ADD     R12,R0
072E 66FCFF3F     2113           AND     R12,#03FFFh
0732 F2FD02FE     2114           MOV     R13,DPP1
0736 D4E07C05     2115           MOV     R14,[R0+#057CH]
073A D4F07E05     2116           MOV     R15,[R0+#057EH]
073E 00E8         2117           ADD     R14,R8
0740 DA000000  R  2118           CALLS   SEG _memcpy,_memcpy
0744 0802         2119           ADD     R0,#02h
               R  2120           ?SYMB   '',$,96,1414
                  2121   ; smspdu.c  294         PhoneLen[2] = 0;
                  2122           ?LINE   294
0746 E10E         2123           MOVB    RL7,#00h
0748 E4E04200     2124           MOVB    [R0+#042H],RL7
                  2125   ; smspdu.c  295         Len = HexString2DWORD( PhoneLen );
                  2126           ?LINE   295
074C E6FC4000     2127           MOV     R12,#040h
0750 00C0         2128           ADD     R12,R0
0752 66FCFF3F     2129           AND     R12,#03FFFh
0756 F2FD02FE     2130           MOV     R13,DPP1
075A DA00C803  R  2131           CALLS   SEG _HexString2DWORD,_HexString2DWORD
075E F074         2132           MOV     R7,R4
               R  2133           ?SYMB   'R7',$,100,7
                  2134   ; smspdu.c  296         if( Len%2 != 0 )
                  2135           ?LINE   296
0760 F0C7         2136           MOV     R12,R7
0762 7CFC         2137           SHR     R12,#0Fh
0764 00C7         2138           ADD     R12,R7
0766 0EFC         2139           BCLR    R12.0
0768 81C0         2140           NEG     R12
076A 00C7         2141           ADD     R12,R7
076C 2D01         2142           JMPR    cc_Z,_172
                  2143   ; smspdu.c  297                 Len+=1;
                  2144           ?LINE   297
076E 0871         2145           ADD     R7,#01h
               R  2146           ?SYMB   '',$,102,7
               R  2147           ?SYMB   'R7',$,100,7
0770              2148   _172:
                  2149   ; smspdu.c  298 
                  2150   ; smspdu.c  299         PDU_Offset += 2;
                  2151           ?LINE   299
0770 0882         2152           ADD     R8,#02h
               R  2153           ?SYMB   '',$,102,6
               R  2154           ?SYMB   'R8',$,100,6
                  2155   ; smspdu.c  300         if( memcmp( pPDUStr+PDU_Offset, "91", 2 ) ==0 )
                  2156           ?LINE   300
0772 E02C         2157           MOV     R12,#02h
0774 88C0         2158           MOV     [-R0],R12
               R  2159           ?SYMB   '',$,96,1416
0776 D4C07C05     2160           MOV     R12,[R0+#057CH]
077A D4D07E05     2161           MOV     R13,[R0+#057EH]
077E 00C8         2162           ADD     R12,R8
0780 E6FE0000  R  2163           MOV     R14,#POF _3
0784 E6FF0000  R  2164           MOV     R15,#PAG _3
0788 DA000000  R  2165           CALLS   SEG _memcmp,_memcmp
078C 0802         2166           ADD     R0,#02h
               R  2167           ?SYMB   '',$,96,1414
078E 4840         2168           CMP     R4,#00h
0790 3D0C         2169           JMPR    cc_NZ,_173
                  2170   ; smspdu.c  301         {
                  2171   ; smspdu.c  302                 strcpy( pDesSMS_Read->SenderNum, "+" );
                  2172           ?LINE   302
0792 F0C9         2173           MOV     R12,R9
0794 F0D6         2174           MOV     R13,R6
0796 06FC2400     2175           ADD     R12,#024h
079A E6FE0000  R  2176           MOV     R14,#POF _105
079E E6FF0000  R  2177           MOV     R15,#PAG _105
07A2 DA000000  R  2178           CALLS   SEG _strcpy,_strcpy
                  2179   ; smspdu.c  303                 Offset =1;
                  2180           ?LINE   303
07A6 E01C         2181           MOV     R12,#01h
               R  2182           ?SYMB   'R12',$,100,4
                  2183   ; smspdu.c  304         }
                  2184           ?LINE   304
07A8 0D01         2185           JMPR    cc_UC,_174
07AA              2186   _173:
               R  2187           ?SYMB   '',$,102,4
                  2188   ; smspdu.c  305         else
                  2189   ; smspdu.c  306                 Offset =0;
                  2190           ?LINE   306
07AA E00C         2191           MOV     R12,#00h
               R  2192           ?SYMB   'R12',$,100,4
07AC              2193   _174:
                  2194   ; smspdu.c  307 
                  2195   ; smspdu.c  308         PDU_Offset +=2;
                  2196           ?LINE   308
07AC 0882         2197           ADD     R8,#02h
               R  2198           ?SYMB   '',$,102,6
               R  2199           ?SYMB   'R8',$,100,6
                  2200   ; smspdu.c  309         memcpy( PhoneNum, pPDUStr+PDU_Offset, Len );
                  2201           ?LINE   309
07AE 88C0         2202           MOV     [-R0],R12
               R  2203           ?SYMB   '',$,96,1416
07B0 8870         2204           MOV     [-R0],R7
               R  2205           ?SYMB   '',$,96,1418
07B2 E04C         2206           MOV     R12,#04h
               R  2207           ?SYMB   '',$,102,4
07B4 00C0         2208           ADD     R12,R0
07B6 66FCFF3F     2209           AND     R12,#03FFFh
07BA F2FD02FE     2210           MOV     R13,DPP1
07BE D4E07E05     2211           MOV     R14,[R0+#057EH]
                  2212   SMSPDU_1_PR     ENDS
                  2213   
                  2214   SMSPDU_2_CO     SECTION DATA
001A              2215   __swtable216    LABEL   WORD
001A 0000      R  2216           DW      SOF _188
001C 0000      R  2217           DW      SOF _192
001E 0000      R  2218           DW      SOF _196
0020 0000      R  2219           DW      SOF _200
0022 0000      R  2220           DW      SOF _188
0024 0000      R  2221           DW      SOF _192
0026 0000      R  2222           DW      SOF _196
0028 0000      R  2223           DW      SOF _200
002A 0000      R  2224           DW      SOF _188
002C 0000      R  2225           DW      SOF _192
002E 0000      R  2226           DW      SOF _206
0030 0000      R  2227           DW      SOF _206
0032 0000      R  2228           DW      SOF _206
0034 0000      R  2229           DW      SOF _206
0036 0000      R  2230           DW      SOF _206
0038 0000      R  2231           DW      SOF _206
003A 0000      R  2232           DW      SOF _206
003C 0000      R  2233           DW      SOF _196
003E 0000      R  2234           DW      SOF _200
0040 0000      R  2235           DW      SOF _188
0042 0000      R  2236           DW      SOF _192
0044 0000      R  2237           DW      SOF _196
0046 0000      R  2238           DW      SOF _200
                  2239   SMSPDU_2_CO     ENDS
                  2240   
                  2241   SMSPDU_1_PR     SECTION CODE
07C2 D4F08005     2242           MOV     R15,[R0+#0580H]
07C6 00E8         2243           ADD     R14,R8
07C8 DA000000  R  2244           CALLS   SEG _memcpy,_memcpy
07CC 0802         2245           ADD     R0,#02h
               R  2246           ?SYMB   '',$,96,1416
07CE 98C0         2247           MOV     R12,[R0+]
               R  2248           ?SYMB   '',$,96,1414
               R  2249           ?SYMB   'R12',$,100,4
                  2250   ; smspdu.c  310         PhoneNum[Len] = 0;
                  2251           ?LINE   310
07D0 E102         2252           MOVB    RL1,#00h
07D2 F0D7         2253           MOV     R13,R7
07D4 00D0         2254           ADD     R13,R0
07D6 B92D         2255           MOVB    [R13],RL1
                  2256   ; smspdu.c  311         Analyse_PhoneNum( pDesSMS_Read->SenderNum +Offset, PhoneNum, ANALYSE_DE
                         CODE );
                  2257           ?LINE   311
07D8 E01D         2258           MOV     R13,#01h
07DA 88D0         2259           MOV     [-R0],R13
               R  2260           ?SYMB   '',$,96,1416
07DC F0EC         2261           MOV     R14,R12
07DE F0C9         2262           MOV     R12,R9
               R  2263           ?SYMB   '',$,102,4
07E0 F0D6         2264           MOV     R13,R6
07E2 06FC2400     2265           ADD     R12,#024h
               R  2266           ?SYMB   '',$,102,4
07E6 00CE         2267           ADD     R12,R14
07E8 E02E         2268           MOV     R14,#02h
07EA 00E0         2269           ADD     R14,R0
07EC 66FEFF3F     2270           AND     R14,#03FFFh
07F0 F2FF02FE     2271           MOV     R15,DPP1
07F4 DA005604  R  2272           CALLS   SEG _Analyse_PhoneNum,_Analyse_PhoneNum
07F8 0802         2273           ADD     R0,#02h
               R  2274           ?SYMB   '',$,96,1414
                  2275   ; smspdu.c  312         PDU_Offset += Len;
                  2276           ?LINE   312
07FA 0087         2277           ADD     R8,R7
               R  2278           ?SYMB   '',$,102,6
               R  2279           ?SYMB   'R8',$,100,6
                  2280   ; smspdu.c  313 
                  2281   ; smspdu.c  314         if ( pDesSMS_Read->Type == STATUS_REPORT )
                  2282           ?LINE   314
07FC DC46         2283           EXTP    R6,#01h
07FE D4790400 1   2284           MOV     R7,[R9+#04H]
               R  2285           ?SYMB   '',$,102,7
0802 4872         2286           CMP     R7,#02h
0804 EA20760A  R  2287           JMPA    cc_EQ,_211
                  2288   ; smspdu.c  315         {
                  2289   ; smspdu.c  316                 PDU_Offset += 14;
                  2290   ; smspdu.c  317 
                  2291   ; smspdu.c  318                 memcpy( SendTime, pPDUStr+PDU_Offset, 14 );                     
                         // Send Time
                  2292   ; smspdu.c  319                 SendTime[14] = 0;
                  2293   ; smspdu.c  320                 Analyse_PhoneNum( pDesSMS_Read->SendTime, SendTime, ANALYSE_DEC
                         ODE );
                  2294   ; smspdu.c  321 
                  2295   ; smspdu.c  322                 PDU_Offset += 14;
                  2296   ; smspdu.c  323 
                  2297   ; smspdu.c  324                 memcpy(PhoneNum, pPDUStr+PDU_Offset, 2);
                  2298   ; smspdu.c  325 
                  2299   ; smspdu.c  326                 PhoneNum[2] = 0;
                  2300   ; smspdu.c  327 
                  2301   ; smspdu.c  328                 pDesSMS_Read->Status = (int)HexStr2BYTE( PhoneNum );
                  2302   ; smspdu.c  329 
                  2303   ; smspdu.c  330                 return 0;
                  2304   ; smspdu.c  331         }
                  2305   ; smspdu.c  332 
                  2306   ; smspdu.c  333         PDU_Offset += 2;                // PID
                  2307           ?LINE   333
0808 0882         2308           ADD     R8,#02h
               R  2309           ?SYMB   '',$,102,6
               R  2310           ?SYMB   'R8',$,100,6
                  2311   ; smspdu.c  334 
                  2312   ; smspdu.c  335                                                         //DCS   
                  2313   ; smspdu.c  336         if ( pPDUStr[PDU_Offset+1] >='0' && pPDUStr[PDU_Offset+1] <='3' )
                  2314           ?LINE   336
080A D4C07A05     2315           MOV     R12,[R0+#057AH]
080E D4D07C05     2316           MOV     R13,[R0+#057CH]
0812 08C1         2317           ADD     R12,#01h
0814 00C8         2318           ADD     R12,R8
0816 DC4D         2319           EXTP    R13,#01h
0818 A9EC     1   2320           MOVB    RL7,[R12]
081A 47FE3000     2321           CMPB    RL7,#030h
081E CD07         2322           JMPR    cc_SLT,_176
0820 DC4D         2323           EXTP    R13,#01h
0822 A9EC     1   2324           MOVB    RL7,[R12]
0824 47FE3300     2325           CMPB    RL7,#033h
0828 AD02         2326           JMPR    cc_SGT,_176
                  2327   ; smspdu.c  337                 ContextType = 0;                                // GSM 7 bits
                  2328           ?LINE   337
082A E00E         2329           MOV     R14,#00h
               R  2330           ?SYMB   'R14',$,100,2
082C 0D17         2331           JMPR    cc_UC,_182
082E              2332   _176:
               R  2333           ?SYMB   '',$,102,2
                  2334   ; smspdu.c  338         else if ( pPDUStr[PDU_Offset+1] >='4' && pPDUStr[PDU_Offset+1] <='7' )
                  2335           ?LINE   338
082E DC4D         2336           EXTP    R13,#01h
0830 A9EC     1   2337           MOVB    RL7,[R12]
0832 47FE3400     2338           CMPB    RL7,#034h
0836 CD05         2339           JMPR    cc_SLT,_177
0838 DC4D         2340           EXTP    R13,#01h
083A A9EC     1   2341           MOVB    RL7,[R12]
083C 47FE3700     2342           CMPB    RL7,#037h
0840 BD0C         2343           JMPR    cc_SLE,_180
                  2344   ; smspdu.c  339                 ContextType = 2;                                // Ascii 8 bits
                  2345           ?LINE   339
0842              2346   _177:
                  2347   ; smspdu.c  340         else if ( pPDUStr[PDU_Offset+1] >='8' && pPDUStr[PDU_Offset+1] <='B')
                  2348           ?LINE   340
0842 DC4D         2349           EXTP    R13,#01h
0844 A9EC     1   2350           MOVB    RL7,[R12]
0846 47FE3800     2351           CMPB    RL7,#038h
084A CD07         2352           JMPR    cc_SLT,_180
084C DC4D         2353           EXTP    R13,#01h
084E A9EC     1   2354           MOVB    RL7,[R12]
0850 47FE4200     2355           CMPB    RL7,#042h
0854 AD02         2356           JMPR    cc_SGT,_180
                  2357   ; smspdu.c  341                 ContextType = 1;                                // UCS2 16 bits
                  2358           ?LINE   341
0856 E01E         2359           MOV     R14,#01h
               R  2360           ?SYMB   'R14',$,100,2
0858 0D01         2361           JMPR    cc_UC,_182
085A              2362   _180:
               R  2363           ?SYMB   '',$,102,2
                  2364   ; smspdu.c  342         else
                  2365   ; smspdu.c  343                 ContextType = 2;
                  2366           ?LINE   343
085A E02E         2367           MOV     R14,#02h
               R  2368           ?SYMB   'R14',$,100,2
085C              2369   _182:
                  2370   ; smspdu.c  344 
                  2371   ; smspdu.c  345         if ( pPDUStr[PDU_Offset] == 'F' || pPDUStr[PDU_Offset] == '1' || pPDUSt
                         r[PDU_Offset] == '3')
                  2372           ?LINE   345
085C D4F07A05     2373           MOV     R15,[R0+#057AH]
0860 D4107C05     2374           MOV     R1,[R0+#057CH]
0864 00F8         2375           ADD     R15,R8
0866 DC41         2376           EXTP    R1,#01h
0868 A9EF     1   2377           MOVB    RL7,[R15]
086A 47FE4600     2378           CMPB    RL7,#046h
086E 2D0A         2379           JMPR    cc_EQ,_184
0870 DC41         2380           EXTP    R1,#01h
0872 A9EF     1   2381           MOVB    RL7,[R15]
0874 47FE3100     2382           CMPB    RL7,#031h
0878 2D05         2383           JMPR    cc_EQ,_184
087A DC41         2384           EXTP    R1,#01h
087C A9EF     1   2385           MOVB    RL7,[R15]
087E 47FE3300     2386           CMPB    RL7,#033h
0882 3D23         2387           JMPR    cc_NE,_201
0884              2388   _184:
               R  2389           ?SYMB   '',$,9,347
                  2390           ?SYMB   'dcs',1,98,2
                  2391   ; smspdu.c  346         {
                  2392   ; smspdu.c  347                 char dcs = pPDUStr[PDU_Offset+1];
                  2393           ?LINE   347
0884 DC4D         2394           EXTP    R13,#01h
0886 A92C     1   2395           MOVB    RL1,[R12]
               R  2396           ?SYMB   'RL1',$,100,1
                  2397   ; smspdu.c  348                 switch (dcs)
                  2398           ?LINE   348
0888 27F23000     2399           SUBB    RL1,#030h
               R  2400           ?SYMB   '',$,102,1
088C 47F21600     2401           CMPB    RL1,#016h
0890 ED20         2402           JMPR    cc_UGT,_206
0892 C027         2403           MOVBZ   R7,RL1
0894 5C17         2404           SHL     R7,#01h
0896 06F70000  R  2405           ADD     R7,#POF __swtable216
089A D7400000  R  2406           EXTP    #PAG __swtable216,#01h
089E A877     1   2407           MOV     R7,[R7]
08A0 9C07         2408           JMPI    cc_UC,[R7]
                  2409   ; smspdu.c  349                 {
                  2410   ; smspdu.c  350                 case '0':
                  2411   ; smspdu.c  351                 case '4':
                  2412   ; smspdu.c  352                 case '8':
                  2413   ; smspdu.c  353                 case 'C':
                  2414           ?LINE   353
08A2              2415   _188:
                  2416   ; smspdu.c  354                         pDesSMS_Read->Class = SMS_CLASS_0;
                  2417           ?LINE   354
08A2 E017         2418           MOV     R7,#01h
08A4 DC46         2419           EXTP    R6,#01h
08A6 C4790A00 1   2420           MOV     [R9+#0AH],R7
                  2421   ; smspdu.c  355                         break;
                  2422           ?LINE   355
08AA 0D13         2423           JMPR    cc_UC,_206
                  2424   ; smspdu.c  356                 case '1':
                  2425   ; smspdu.c  357                 case '5':
                  2426   ; smspdu.c  358                 case '9':
                  2427   ; smspdu.c  359                 case 'D':
                  2428           ?LINE   359
08AC              2429   _192:
                  2430   ; smspdu.c  360                         pDesSMS_Read->Class = SMS_CLASS_1;
                  2431           ?LINE   360
08AC E027         2432           MOV     R7,#02h
08AE DC46         2433           EXTP    R6,#01h
08B0 C4790A00 1   2434           MOV     [R9+#0AH],R7
                  2435   ; smspdu.c  361                         break;
                  2436           ?LINE   361
08B4 0D0E         2437           JMPR    cc_UC,_206
                  2438   ; smspdu.c  362                 case '2':
                  2439   ; smspdu.c  363                 case '6':
                  2440   ; smspdu.c  364                 case 'A':
                  2441   ; smspdu.c  365                 case 'E':
                  2442           ?LINE   365
08B6              2443   _196:
                  2444   ; smspdu.c  366                         pDesSMS_Read->Class = SMS_CLASS_2;
                  2445           ?LINE   366
08B6 E037         2446           MOV     R7,#03h
08B8 DC46         2447           EXTP    R6,#01h
08BA C4790A00 1   2448           MOV     [R9+#0AH],R7
                  2449   ; smspdu.c  367                         break;
                  2450           ?LINE   367
08BE 0D09         2451           JMPR    cc_UC,_206
                  2452   ; smspdu.c  368                 case '3':
                  2453   ; smspdu.c  369                 case '7':
                  2454   ; smspdu.c  370                 case 'B':
                  2455   ; smspdu.c  371                 case 'F':
                  2456           ?LINE   371
08C0              2457   _200:
                  2458   ; smspdu.c  372                         pDesSMS_Read->Class = SMS_CLASS_3;
                  2459           ?LINE   372
08C0 E047         2460           MOV     R7,#04h
08C2 DC46         2461           EXTP    R6,#01h
08C4 C4790A00 1   2462           MOV     [R9+#0AH],R7
               R  2463           ?SYMB   '',$,15,375
                  2464   ; smspdu.c  373                         break;
                  2465   ; smspdu.c  374                 }
                  2466   ; smspdu.c  375         }
                  2467           ?LINE   375
08C8 0D04         2468           JMPR    cc_UC,_206
08CA              2469   _201:
                  2470   ; smspdu.c  376         else
                  2471   ; smspdu.c  377                 pDesSMS_Read->Class = SMS_CLASS_NONE;
                  2472           ?LINE   377
08CA E007         2473           MOV     R7,#00h
08CC DC46         2474           EXTP    R6,#01h
08CE C4790A00 1   2475           MOV     [R9+#0AH],R7
08D2              2476   _206:
                  2477   ; smspdu.c  378 
                  2478   ; smspdu.c  379         PDU_Offset += 2;
                  2479           ?LINE   379
08D2 0882         2480           ADD     R8,#02h
               R  2481           ?SYMB   '',$,102,6
               R  2482           ?SYMB   'R8',$,100,6
                  2483   ; smspdu.c  380 
                  2484   ; smspdu.c  381         memcpy( SendTime, pPDUStr+PDU_Offset, 14 );                     // Send
                          Time
                  2485           ?LINE   381
08D4 F07E         2486           MOV     R7,R14
08D6 E0EC         2487           MOV     R12,#0Eh
08D8 88C0         2488           MOV     [-R0],R12
               R  2489           ?SYMB   '',$,96,1416
08DA E6FC1A00     2490           MOV     R12,#01Ah
08DE 00C0         2491           ADD     R12,R0
08E0 66FCFF3F     2492           AND     R12,#03FFFh
08E4 F2FD02FE     2493           MOV     R13,DPP1
08E8 D4E07C05     2494           MOV     R14,[R0+#057CH]
               R  2495           ?SYMB   '',$,102,2
08EC D4F07E05     2496           MOV     R15,[R0+#057EH]
08F0 00E8         2497           ADD     R14,R8
08F2 DA000000  R  2498           CALLS   SEG _memcpy,_memcpy
               R  2499           ?SYMB   '',$,96,1414
08F6 F0E7         2500           MOV     R14,R7
               R  2501           ?SYMB   'R14',$,100,2
                  2502   ; smspdu.c  382         SendTime[14] = 0;
                  2503           ?LINE   382
08F8 E10E         2504           MOVB    RL7,#00h
08FA E4E02800     2505           MOVB    [R0+#028H],RL7
                  2506   ; smspdu.c  383         Analyse_PhoneNum( pDesSMS_Read->SendTime, SendTime, ANALYSE_DECODE );
                  2507           ?LINE   383
08FE F07E         2508           MOV     R7,R14
0900 E01C         2509           MOV     R12,#01h
0902 B8C0         2510           MOV     [R0],R12
               R  2511           ?SYMB   '',$,96,1416
0904 F0C9         2512           MOV     R12,R9
0906 F0D6         2513           MOV     R13,R6
0908 06FC3C00     2514           ADD     R12,#03Ch
090C E6FE1A00     2515           MOV     R14,#01Ah
               R  2516           ?SYMB   '',$,102,2
0910 00E0         2517           ADD     R14,R0
0912 66FEFF3F     2518           AND     R14,#03FFFh
0916 F2FF02FE     2519           MOV     R15,DPP1
091A DA005604  R  2520           CALLS   SEG _Analyse_PhoneNum,_Analyse_PhoneNum
               R  2521           ?SYMB   '',$,96,1414
091E F0E7         2522           MOV     R14,R7
               R  2523           ?SYMB   'R14',$,100,2
                  2524   ; smspdu.c  384         PDU_Offset += 14;
                  2525           ?LINE   384
0920 06F80E00     2526           ADD     R8,#0Eh
               R  2527           ?SYMB   '',$,102,6
               R  2528           ?SYMB   'R8',$,100,6
                  2529   ; smspdu.c  385 
                  2530   ; smspdu.c  386         memcpy( ContextLen, pPDUStr+PDU_Offset, 2 );            // Context leng
                         th
                  2531           ?LINE   386
0924 F07E         2532           MOV     R7,R14
0926 E02C         2533           MOV     R12,#02h
0928 B8C0         2534           MOV     [R0],R12
               R  2535           ?SYMB   '',$,96,1416
092A E6FC7805     2536           MOV     R12,#0578h
092E 00C0         2537           ADD     R12,R0
0930 66FCFF3F     2538           AND     R12,#03FFFh
0934 F2FD02FE     2539           MOV     R13,DPP1
0938 D4E07C05     2540           MOV     R14,[R0+#057CH]
               R  2541           ?SYMB   '',$,102,2
093C D4F07E05     2542           MOV     R15,[R0+#057EH]
0940 00E8         2543           ADD     R14,R8
0942 DA000000  R  2544           CALLS   SEG _memcpy,_memcpy
               R  2545           ?SYMB   '',$,96,1414
0946 F0E7         2546           MOV     R14,R7
               R  2547           ?SYMB   'R14',$,100,2
                  2548   ; smspdu.c  387         ContextLen[2]=0;
                  2549           ?LINE   387
0948 E10E         2550           MOVB    RL7,#00h
094A E4E07A05     2551           MOVB    [R0+#057AH],RL7
                  2552   ; smspdu.c  388         Len = HexString2DWORD( ContextLen )*2;
                  2553           ?LINE   388
094E B8E0         2554           MOV     [R0],R14
               R  2555           ?SYMB   '',$,96,1416
0950 E6FC7805     2556           MOV     R12,#0578h
0954 00C0         2557           ADD     R12,R0
0956 66FCFF3F     2558           AND     R12,#03FFFh
095A F2FD02FE     2559           MOV     R13,DPP1
095E DA00C803  R  2560           CALLS   SEG _HexString2DWORD,_HexString2DWORD
               R  2561           ?SYMB   '',$,102,2
0962 F074         2562           MOV     R7,R4
0964 5C17         2563           SHL     R7,#01h
               R  2564           ?SYMB   'R7',$,100,7
0966 98E0         2565           MOV     R14,[R0+]
               R  2566           ?SYMB   '',$,96,1414
               R  2567           ?SYMB   'R14',$,100,2
                  2568   ; smspdu.c  389         if( Len > ME_SMS_PDU_LEN )
                  2569           ?LINE   389
0968 46F79402     2570           CMP     R7,#0294h
096C BD02         2571           JMPR    cc_SLE,_207
                  2572   ; smspdu.c  390                 Len =ME_SMS_PDU_LEN;
                  2573           ?LINE   390
096E E6F79402     2574           MOV     R7,#0294h
               R  2575           ?SYMB   '',$,102,7
               R  2576           ?SYMB   'R7',$,100,7
0972              2577   _207:
                  2578   ; smspdu.c  391         PDU_Offset += 2;
                  2579           ?LINE   391
0972 0882         2580           ADD     R8,#02h
               R  2581           ?SYMB   '',$,102,6
               R  2582           ?SYMB   'R8',$,100,6
                  2583   ; smspdu.c  392 
                  2584   ; smspdu.c  393         strcpy( Context, pPDUStr+PDU_Offset );                          // Cont
                         ext
                  2585           ?LINE   393
0974 88E0         2586           MOV     [-R0],R14
               R  2587           ?SYMB   '',$,96,1416
0976 E6FC4600     2588           MOV     R12,#046h
097A 00C0         2589           ADD     R12,R0
097C 66FCFF3F     2590           AND     R12,#03FFFh
0980 F2FD02FE     2591           MOV     R13,DPP1
0984 D4E07C05     2592           MOV     R14,[R0+#057CH]
               R  2593           ?SYMB   '',$,102,2
0988 D4F07E05     2594           MOV     R15,[R0+#057EH]
098C 00E8         2595           ADD     R14,R8
098E DA000000  R  2596           CALLS   SEG _strcpy,_strcpy
               R  2597           ?SYMB   '',$,102,6
0992 98E0         2598           MOV     R14,[R0+]
               R  2599           ?SYMB   '',$,96,1414
               R  2600           ?SYMB   'R14',$,100,2
                  2601   ; smspdu.c  394         if( ContextType == 1 )
                  2602           ?LINE   394
0994 48E1         2603           CMP     R14,#01h
0996 3D36         2604           JMPR    cc_NE,_208
                  2605   ; smspdu.c  395         {
                  2606   ; smspdu.c  396                 Analyse_PDUCode2WideChar( TempContext, Context ,ME_SMS_PDU_LEN)
                         ;
                  2607           ?LINE   396
0998 E6F89402     2608           MOV     R8,#0294h
099C 8880         2609           MOV     [-R0],R8
               R  2610           ?SYMB   '',$,96,1416
099E E6FCDA02     2611           MOV     R12,#02DAh
09A2 00C0         2612           ADD     R12,R0
09A4 66FCFF3F     2613           AND     R12,#03FFFh
09A8 F2FD02FE     2614           MOV     R13,DPP1
09AC E6FE4600     2615           MOV     R14,#046h
               R  2616           ?SYMB   '',$,102,2
09B0 00E0         2617           ADD     R14,R0
09B2 66FEFF3F     2618           AND     R14,#03FFFh
09B6 F2FF02FE     2619           MOV     R15,DPP1
09BA DA003E0F  R  2620           CALLS   SEG _Analyse_PDUCode2WideChar,_Analyse_PDUCode2WideChar
               R  2621           ?SYMB   '',$,96,1414
                  2622   ; smspdu.c  397                 WideCharToMultiByte( 
                  2623   ; smspdu.c  398                                 CP_ACP, 
                  2624   ; smspdu.c  399                                 0,
                  2625   ; smspdu.c  400                                 (LPCWSTR)TempContext,
                  2626   ; smspdu.c  401                                 -1,
                  2627   ; smspdu.c  402                                 (LPSTR)pDesSMS_Read->Context,
                  2628   ; smspdu.c  403                                 ME_SMS_CONTEXT_LEN,
                  2629   ; smspdu.c  404                                 0,
                  2630   ; smspdu.c  405                                 0 );
                  2631           ?LINE   405
09BE E008         2632           MOV     R8,#00h
09C0 E00C         2633           MOV     R12,#00h
09C2 B8C0         2634           MOV     [R0],R12
               R  2635           ?SYMB   '',$,96,1416
09C4 8880         2636           MOV     [-R0],R8
               R  2637           ?SYMB   '',$,96,1418
09C6 E00D         2638           MOV     R13,#00h
09C8 E00E         2639           MOV     R14,#00h
09CA 88E0         2640           MOV     [-R0],R14
               R  2641           ?SYMB   '',$,96,1420
09CC 88D0         2642           MOV     [-R0],R13
               R  2643           ?SYMB   '',$,96,1422
09CE E6FFA400     2644           MOV     R15,#0A4h
09D2 88F0         2645           MOV     [-R0],R15
               R  2646           ?SYMB   '',$,96,1424
09D4 06F96400     2647           ADD     R9,#064h
               R  2648           ?SYMB   '',$,102,5
09D8 8860         2649           MOV     [-R0],R6
               R  2650           ?SYMB   '',$,96,1426
09DA 8890         2651           MOV     [-R0],R9
               R  2652           ?SYMB   '',$,96,1428
09DC E6F1FFFF     2653           MOV     R1,#0FFFFh
09E0 8810         2654           MOV     [-R0],R1
               R  2655           ?SYMB   '',$,96,1430
09E2 E6F2E802     2656           MOV     R2,#02E8h
09E6 0020         2657           ADD     R2,R0
09E8 66F2FF3F     2658           AND     R2,#03FFFh
09EC F2F302FE     2659           MOV     R3,DPP1
09F0 8830         2660           MOV     [-R0],R3
               R  2661           ?SYMB   '',$,96,1432
09F2 8820         2662           MOV     [-R0],R2
               R  2663           ?SYMB   '',$,96,1434
09F4 E00C         2664           MOV     R12,#00h
09F6 E00D         2665           MOV     R13,#00h
09F8 E00E         2666           MOV     R14,#00h
09FA DA000000  R  2667           CALLS   SEG _WideCharToMultiByte,_WideCharToMultiByte
09FE 06F01400     2668           ADD     R0,#014h
               R  2669           ?SYMB   '',$,96,1414
                  2670   ; smspdu.c  406                 return Len;
                  2671           ?LINE   406
0A02 0D1F         2672           JMPR    cc_UC,_209
                  2673   ; smspdu.c  407         }
                  2674           ?LINE   407
0A04              2675   _208:
               R  2676           ?SYMB   'R9R6',$,100,5
               R  2677           ?SYMB   'R14',$,100,2
                  2678   ; smspdu.c  408         if( ContextType == 0 )
                  2679           ?LINE   408
0A04 48E0         2680           CMP     R14,#00h
0A06 3D20         2681           JMPR    cc_NZ,_210
                  2682   ; smspdu.c  409         {
                  2683   ; smspdu.c  410                 String2BinStr(Context, TempContext  );
                  2684           ?LINE   410
0A08 E6FC4400     2685           MOV     R12,#044h
0A0C 00C0         2686           ADD     R12,R0
0A0E 66FCFF3F     2687           AND     R12,#03FFFh
0A12 F2FD02FE     2688           MOV     R13,DPP1
0A16 E6FED802     2689           MOV     R14,#02D8h
               R  2690           ?SYMB   '',$,102,2
0A1A 00E0         2691           ADD     R14,R0
0A1C 66FEFF3F     2692           AND     R14,#03FFFh
0A20 F2FF02FE     2693           MOV     R15,DPP1
0A24 DA000000  R  2694           CALLS   SEG _String2BinStr,_String2BinStr
                  2695   ; smspdu.c  411                 GSMstr2ASCIIstr( TempContext, pDesSMS_Read->Context);
                  2696           ?LINE   411
0A28 E6FCD802     2697           MOV     R12,#02D8h
0A2C 00C0         2698           ADD     R12,R0
0A2E 66FCFF3F     2699           AND     R12,#03FFFh
0A32 F2FD02FE     2700           MOV     R13,DPP1
0A36 F0E9         2701           MOV     R14,R9
0A38 F0F6         2702           MOV     R15,R6
0A3A 06FE6400     2703           ADD     R14,#064h
0A3E DA007401  R  2704           CALLS   SEG _GSMstr2ASCIIstr,_GSMstr2ASCIIstr
               R  2705           ?SYMB   '',$,102,5
                  2706   ; smspdu.c  412                 return Len;
                  2707           ?LINE   412
0A42              2708   _209:
0A42 F047         2709           MOV     R4,R7
0A44 EA00000B  R  2710           JMPA    cc_UC,_215
                  2711   ; smspdu.c  413         }
                  2712           ?LINE   413
0A48              2713   _210:
               R  2714           ?SYMB   '',$,102,7
               R  2715           ?SYMB   'R7',$,100,7
               R  2716           ?SYMB   'R9R6',$,100,5
               R  2717           ?SYMB   'R14',$,100,2
                  2718   ; smspdu.c  414         if (ContextType == 2)
                  2719           ?LINE   414
0A48 48E2         2720           CMP     R14,#02h
0A4A EA30FE0A  R  2721           JMPA    cc_NE,_212
                  2722   ; smspdu.c  415         {
                  2723   ; smspdu.c  416                 String2BinStr(Context, pDesSMS_Read->Context);
                  2724           ?LINE   416
0A4E E6FC4400     2725           MOV     R12,#044h
0A52 00C0         2726           ADD     R12,R0
0A54 66FCFF3F     2727           AND     R12,#03FFFh
0A58 F2FD02FE     2728           MOV     R13,DPP1
0A5C F0E9         2729           MOV     R14,R9
               R  2730           ?SYMB   '',$,102,2
0A5E F0F6         2731           MOV     R15,R6
0A60 06FE6400     2732           ADD     R14,#064h
0A64 DA000000  R  2733           CALLS   SEG _String2BinStr,_String2BinStr
               R  2734           ?SYMB   '',$,102,5
                  2735   ; smspdu.c  417                 return Len/2;
                  2736           ?LINE   417
0A68 F047         2737           MOV     R4,R7
0A6A F084         2738           MOV     R8,R4
0A6C 7CF4         2739           SHR     R4,#0Fh
0A6E 0048         2740           ADD     R4,R8
0A70 BC14         2741           ASHR    R4,#01h
0A72 EA00000B  R  2742           JMPA    cc_UC,_215
                  2743           ?LINE   316
0A76              2744   _211:
               R  2745           ?SYMB   '',$,102,7
               R  2746           ?SYMB   'R8',$,100,6
               R  2747           ?SYMB   'R9R6',$,100,5
0A76 06F80E00     2748           ADD     R8,#0Eh
               R  2749           ?SYMB   '',$,102,6
               R  2750           ?SYMB   'R8',$,100,6
                  2751           ?LINE   318
0A7A E0E7         2752           MOV     R7,#0Eh
0A7C 8870         2753           MOV     [-R0],R7
               R  2754           ?SYMB   '',$,96,1416
0A7E E6FC1A00     2755           MOV     R12,#01Ah
0A82 00C0         2756           ADD     R12,R0
0A84 66FCFF3F     2757           AND     R12,#03FFFh
0A88 F2FD02FE     2758           MOV     R13,DPP1
0A8C D4E07C05     2759           MOV     R14,[R0+#057CH]
0A90 D4F07E05     2760           MOV     R15,[R0+#057EH]
0A94 00E8         2761           ADD     R14,R8
0A96 DA000000  R  2762           CALLS   SEG _memcpy,_memcpy
               R  2763           ?SYMB   '',$,96,1414
                  2764           ?LINE   319
0A9A E10E         2765           MOVB    RL7,#00h
0A9C E4E02800     2766           MOVB    [R0+#028H],RL7
                  2767           ?LINE   320
0AA0 E01C         2768           MOV     R12,#01h
0AA2 B8C0         2769           MOV     [R0],R12
               R  2770           ?SYMB   '',$,96,1416
0AA4 F0C9         2771           MOV     R12,R9
0AA6 F0D6         2772           MOV     R13,R6
0AA8 06FC3C00     2773           ADD     R12,#03Ch
0AAC E6FE1A00     2774           MOV     R14,#01Ah
0AB0 00E0         2775           ADD     R14,R0
0AB2 66FEFF3F     2776           AND     R14,#03FFFh
0AB6 F2FF02FE     2777           MOV     R15,DPP1
0ABA DA005604  R  2778           CALLS   SEG _Analyse_PhoneNum,_Analyse_PhoneNum
               R  2779           ?SYMB   '',$,96,1414
                  2780           ?LINE   322
0ABE 06F80E00     2781           ADD     R8,#0Eh
               R  2782           ?SYMB   '',$,102,6
               R  2783           ?SYMB   'R8',$,100,6
                  2784           ?LINE   324
0AC2 E027         2785           MOV     R7,#02h
0AC4 B870         2786           MOV     [R0],R7
               R  2787           ?SYMB   '',$,96,1416
0AC6 E02C         2788           MOV     R12,#02h
0AC8 00C0         2789           ADD     R12,R0
0ACA 66FCFF3F     2790           AND     R12,#03FFFh
0ACE F2FD02FE     2791           MOV     R13,DPP1
0AD2 D4E07C05     2792           MOV     R14,[R0+#057CH]
0AD6 D4F07E05     2793           MOV     R15,[R0+#057EH]
0ADA 00E8         2794           ADD     R14,R8
0ADC DA000000  R  2795           CALLS   SEG _memcpy,_memcpy
               R  2796           ?SYMB   '',$,102,6
0AE0 0802         2797           ADD     R0,#02h
               R  2798           ?SYMB   '',$,96,1414
                  2799           ?LINE   326
0AE2 E10E         2800           MOVB    RL7,#00h
0AE4 E4E00200     2801           MOVB    [R0+#02H],RL7
                  2802           ?LINE   328
0AE8 F0C0         2803           MOV     R12,R0
0AEA 66FCFF3F     2804           AND     R12,#03FFFh
0AEE F2FD02FE     2805           MOV     R13,DPP1
0AF2 DA00F000  R  2806           CALLS   SEG _HexStr2BYTE,_HexStr2BYTE
0AF6 C088         2807           MOVBZ   R8,RL4
0AF8 DC46         2808           EXTP    R6,#01h
0AFA C4890600 1   2809           MOV     [R9+#06H],R8
                  2810   ; smspdu.c  418         }
                  2811           ?LINE   418
0AFE              2812   _212:
               R  2813           ?SYMB   '',$,102,5
                  2814   ; smspdu.c  419 
                  2815   ; smspdu.c  420         return 0;
                  2816           ?LINE   420
0AFE E004         2817           MOV     R4,#00h
                  2818   ; smspdu.c  421 }
                  2819           ?LINE   421
0B00              2820   _215:
               R  2821           ?SYMB   '',$,102,9
               R  2822           ?SYMB   '',$,102,10
               R  2823           ?SYMB   '',$,102,11
               R  2824           ?SYMB   '',$,102,12
               R  2825           ?SYMB   '',$,102,13
               R  2826           ?SYMB   '',$,102,14
               R  2827           ?SYMB   '',$,102,15
0B00 06F07E05     2828           ADD     R0,#057Eh
               R  2829           ?SYMB   '',$,96,8
0B04 9860         2830           MOV     R6,[R0+]
               R  2831           ?SYMB   '',$,96,6
0B06 9870         2832           MOV     R7,[R0+]
               R  2833           ?SYMB   '',$,96,4
0B08 9880         2834           MOV     R8,[R0+]
               R  2835           ?SYMB   '',$,96,2
0B0A 9890         2836           MOV     R9,[R0+]
               R  2837           ?SYMB   '',$,96,0
0B0C DB00         2838           RETS
                  2839   _ME_RecStr_Code ENDP
               R  2840           ?SYMB   '',$,17,421
                  2841   ; smspdu.c  422 
                  2842   ; smspdu.c  423 
                  2843   ; smspdu.c  424 /*********************************************************************\ 
                  2844   ; smspdu.c  425 * Function         
                  2845   ; smspdu.c  426 * Purpose      
                  2846   ; smspdu.c  427 * Params           
                  2847   ; smspdu.c  428 * Return                   
                  2848   ; smspdu.c  429 * Remarks          
                  2849   ; smspdu.c  430 **********************************************************************/
                  2850   ; smspdu.c  431 int Analyse_WideChar2PDUCode( char* pDesStr, char* pSrcStr, int DesLen, int Src
                         Len )
                  2851   ; smspdu.c  432 {
                  2852           ?LINE   432
                  2853           PUBLIC  _Analyse_WideChar2PDUCode
               R  2854           ?SYMB   'Analyse_WideChar2PDUCode',_Analyse_WideChar2PDUCode,37,16
                  2855           ?SYMB   '',432,8,34
                  2856   _Analyse_WideChar2PDUCode       PROC    FAR
                  2857           ?SYMB   '',0300H,95,0
0B0E 8890         2858           MOV     [-R0],R9
               R  2859           ?SYMB   '',$,96,2
0B10 8880         2860           MOV     [-R0],R8
               R  2861           ?SYMB   '',$,96,4
0B12 26F09402     2862           SUB     R0,#0294h
               R  2863           ?SYMB   '',$,96,664
0B16 F09D         2864           MOV     R9,R13
0B18 F08C         2865           MOV     R8,R12
                  2866   ; Locals:
                  2867   ;     TempContext = offset 0
                  2868   ; 
                  2869   ; Statics:
                  2870   ; 
                  2871   ; CSEs:
                  2872   ;     i = R12
                  2873   ;     j = R13
                  2874   ;     pDesStr = R8R9
                  2875   ;     pDesStr + 1 = R14R15
                  2876   ;     pSrcStr = R14R15
                  2877   ;     SrcLen = offset 666
                  2878   ;     DesLen = offset 664
                  2879   ; 
                  2880           ?SYMB   'pDesStr',4,99,263
                  2881           ?SYMB   'pSrcStr',5,99,263
                  2882           ?SYMB   'DesLen',1,99,16
                  2883           ?SYMB   'SrcLen',6,99,16
                  2884           ?SYMB   'i',3,98,16
                  2885           ?SYMB   'j',2,98,16
                  2886           ?SYMB   'TempContext',7,98,567
               R  2887           ?SYMB   '-298',$,101,7
               R  2888           ?SYMB   '2',$,101,6
               R  2889           ?SYMB   'R14R15',$,100,5
               R  2890           ?SYMB   'R8R9',$,100,4
               R  2891           ?SYMB   '0',$,101,1
                  2892   ; smspdu.c  433         int             i,j;
                  2893   ; smspdu.c  434         char    TempContext[ME_SMS_PDU_LEN];
                  2894   ; smspdu.c  435 
                  2895   ; smspdu.c  436         memset( TempContext, 0, ME_SMS_PDU_LEN );
                  2896           ?LINE   436
0B1A 88E0         2897           MOV     [-R0],R14
               R  2898           ?SYMB   '',$,96,666
0B1C 88F0         2899           MOV     [-R0],R15
               R  2900           ?SYMB   '',$,96,668
0B1E E04C         2901           MOV     R12,#04h
0B20 00C0         2902           ADD     R12,R0
0B22 66FCFF3F     2903           AND     R12,#03FFFh
0B26 F2FD02FE     2904           MOV     R13,DPP1
0B2A E00E         2905           MOV     R14,#00h
               R  2906           ?SYMB   '',$,102,5
0B2C E6FF9402     2907           MOV     R15,#0294h
0B30 DA000000  R  2908           CALLS   SEG _memset,_memset
0B34 98F0         2909           MOV     R15,[R0+]
               R  2910           ?SYMB   '',$,96,666
0B36 98E0         2911           MOV     R14,[R0+]
               R  2912           ?SYMB   '',$,96,664
               R  2913           ?SYMB   'R14R15',$,100,5
                  2914   ; smspdu.c  437         BinStr2String( pSrcStr, pDesStr, SrcLen*2 );
                  2915           ?LINE   437
0B38 D4C09A02     2916           MOV     R12,[R0+#029AH]
0B3C 5C1C         2917           SHL     R12,#01h
0B3E 88C0         2918           MOV     [-R0],R12
               R  2919           ?SYMB   '',$,96,666
0B40 F0CE         2920           MOV     R12,R14
0B42 F0DF         2921           MOV     R13,R15
0B44 F0E8         2922           MOV     R14,R8
               R  2923           ?SYMB   '',$,102,5
0B46 F0F9         2924           MOV     R15,R9
0B48 DA00E00B  R  2925           CALLS   SEG _BinStr2String,_BinStr2String
0B4C 0802         2926           ADD     R0,#02h
               R  2927           ?SYMB   '',$,96,664
                  2928   ; smspdu.c  438 
                  2929   ; smspdu.c  439         for( i=0,j=2; pDesStr[i] != 0; i+=4,j+=4 )
                  2930           ?LINE   439
0B4E E00C         2931           MOV     R12,#00h
               R  2932           ?SYMB   'R12',$,100,3
0B50 E02D         2933           MOV     R13,#02h
               R  2934           ?SYMB   'R13',$,100,2
0B52 0D25         2935           JMPR    cc_UC,_218
0B54              2936   _217:
                  2937   ; smspdu.c  440         {
                  2938   ; smspdu.c  441                 TempContext[j] =        pDesStr[i];
                  2939           ?LINE   441
0B54 F0E8         2940           MOV     R14,R8
0B56 F0F9         2941           MOV     R15,R9
0B58 00EC         2942           ADD     R14,R12
0B5A DC4F         2943           EXTP    R15,#01h
0B5C A92E     1   2944           MOVB    RL1,[R14]
0B5E F0ED         2945           MOV     R14,R13
0B60 00E0         2946           ADD     R14,R0
0B62 B92E         2947           MOVB    [R14],RL1
                  2948   ; smspdu.c  442                 TempContext[j+1] =      pDesStr[i+1];
                  2949           ?LINE   442
0B64 F0E8         2950           MOV     R14,R8
0B66 F0F9         2951           MOV     R15,R9
0B68 08E1         2952           ADD     R14,#01h
0B6A F01E         2953           MOV     R1,R14
0B6C F02F         2954           MOV     R2,R15
0B6E 001C         2955           ADD     R1,R12
0B70 DC42         2956           EXTP    R2,#01h
0B72 A921     1   2957           MOVB    RL1,[R1]
0B74 F02D         2958           MOV     R2,R13
0B76 0020         2959           ADD     R2,R0
0B78 E4220100     2960           MOVB    [R2+#01H],RL1
                  2961   ; smspdu.c  443                 TempContext[i] =        pDesStr[j];
                  2962           ?LINE   443
0B7C F018         2963           MOV     R1,R8
0B7E F029         2964           MOV     R2,R9
0B80 001D         2965           ADD     R1,R13
0B82 DC42         2966           EXTP    R2,#01h
0B84 A921     1   2967           MOVB    RL1,[R1]
0B86 F02C         2968           MOV     R2,R12
0B88 0020         2969           ADD     R2,R0
0B8A B922         2970           MOVB    [R2],RL1
                  2971   ; smspdu.c  444                 TempContext[i+1] =      pDesStr[j+1];
                  2972           ?LINE   444
0B8C 00ED         2973           ADD     R14,R13
0B8E DC4F         2974           EXTP    R15,#01h
0B90 A92E     1   2975           MOVB    RL1,[R14]
0B92 F0EC         2976           MOV     R14,R12
0B94 00E0         2977           ADD     R14,R0
0B96 E42E0100     2978           MOVB    [R14+#01H],RL1
                  2979           ?LINE   439
0B9A 08C4         2980           ADD     R12,#04h
               R  2981           ?SYMB   '',$,102,3
               R  2982           ?SYMB   'R12',$,100,3
0B9C 08D4         2983           ADD     R13,#04h
               R  2984           ?SYMB   '',$,102,2
               R  2985           ?SYMB   'R13',$,100,2
0B9E              2986   _218:
0B9E F0E8         2987           MOV     R14,R8
0BA0 F0F9         2988           MOV     R15,R9
0BA2 00EC         2989           ADD     R14,R12
0BA4 DC4F         2990           EXTP    R15,#01h
0BA6 A92E     1   2991           MOVB    RL1,[R14]
0BA8 3DD5         2992           JMPR    cc_NZ,_217
                  2993   ; smspdu.c  445         }
                  2994   ; smspdu.c  446         TempContext[i] = 0;
                  2995           ?LINE   446
0BAA E102         2996           MOVB    RL1,#00h
0BAC F0DC         2997           MOV     R13,R12
               R  2998           ?SYMB   '',$,102,2
0BAE 00D0         2999           ADD     R13,R0
0BB0 B92D         3000           MOVB    [R13],RL1
                  3001   ; smspdu.c  447         TempContext[i+1] = 0;
                  3002           ?LINE   447
0BB2 00C0         3003           ADD     R12,R0
               R  3004           ?SYMB   '',$,102,3
0BB4 E42C0100     3005           MOVB    [R12+#01H],RL1
                  3006   ; smspdu.c  448 
                  3007   ; smspdu.c  449         memcpy( pDesStr, TempContext, DesLen );
                  3008           ?LINE   449
0BB8 D4C09802     3009           MOV     R12,[R0+#0298H]
0BBC 88C0         3010           MOV     [-R0],R12
               R  3011           ?SYMB   '',$,96,666
0BBE F0C8         3012           MOV     R12,R8
0BC0 F0D9         3013           MOV     R13,R9
0BC2 E02E         3014           MOV     R14,#02h
0BC4 00E0         3015           ADD     R14,R0
0BC6 66FEFF3F     3016           AND     R14,#03FFFh
0BCA F2FF02FE     3017           MOV     R15,DPP1
0BCE DA000000  R  3018           CALLS   SEG _memcpy,_memcpy
               R  3019           ?SYMB   '',$,102,4
0BD2 0802         3020           ADD     R0,#02h
               R  3021           ?SYMB   '',$,96,664
                  3022   ; smspdu.c  450 
                  3023   ; smspdu.c  451         return 0;
                  3024           ?LINE   451
0BD4 E004         3025           MOV     R4,#00h
               R  3026           ?SYMB   '',$,102,7
                  3027   ; smspdu.c  452 }
                  3028           ?LINE   452
0BD6 06F09402     3029           ADD     R0,#0294h
               R  3030           ?SYMB   '',$,96,4
0BDA 9880         3031           MOV     R8,[R0+]
               R  3032           ?SYMB   '',$,96,2
0BDC 9890         3033           MOV     R9,[R0+]
               R  3034           ?SYMB   '',$,96,0
0BDE DB00         3035           RETS
                  3036   _Analyse_WideChar2PDUCode       ENDP
               R  3037           ?SYMB   '',$,17,452
                  3038   ; smspdu.c  453 
                  3039   ; smspdu.c  454 /*********************************************************************\ 
                  3040   ; smspdu.c  455 * Function         
                  3041   ; smspdu.c  456 * Purpose      
                  3042   ; smspdu.c  457 * Params           
                  3043   ; smspdu.c  458 * Return                   
                  3044   ; smspdu.c  459 * Remarks          
                  3045   ; smspdu.c  460 **********************************************************************/
                  3046   ; smspdu.c  461 int             BinStr2String(char *pSrcStr, char *pDstStr, int Length)
                  3047   ; smspdu.c  462 {
                  3048           ?LINE   462
                  3049           PUBLIC  _BinStr2String
               R  3050           ?SYMB   'BinStr2String',_BinStr2String,37,16
                  3051           ?SYMB   '',462,8,34
                  3052   _BinStr2String  PROC    FAR
                  3053           ?SYMB   '',03c0H,95,0
0BE0 8890         3054           MOV     [-R0],R9
               R  3055           ?SYMB   '',$,96,2
0BE2 8880         3056           MOV     [-R0],R8
               R  3057           ?SYMB   '',$,96,4
0BE4 8870         3058           MOV     [-R0],R7
               R  3059           ?SYMB   '',$,96,6
0BE6 8860         3060           MOV     [-R0],R6
               R  3061           ?SYMB   '',$,96,8
0BE8 88F0         3062           MOV     [-R0],R15
               R  3063           ?SYMB   '',$,96,10
0BEA 88E0         3064           MOV     [-R0],R14
               R  3065           ?SYMB   '',$,96,12
0BEC 88D0         3066           MOV     [-R0],R13
               R  3067           ?SYMB   '',$,96,14
0BEE 88C0         3068           MOV     [-R0],R12
               R  3069           ?SYMB   '',$,96,16
0BF0 D4701000     3070           MOV     R7,[R0+#010H]
                  3071   ; Locals:
                  3072   ; 
                  3073   ; Statics:
                  3074   ; 
                  3075   ; CSEs:
                  3076   ;     i = R8
                  3077   ;     pHexStr = R9R6
                  3078   ;     Length = R7
                  3079   ;     pSrcStr = offset 0
                  3080   ;     pDstStr = offset 4
                  3081   ; 
                  3082           ?SYMB   'pSrcStr',2,99,263
                  3083           ?SYMB   'pDstStr',1,99,263
                  3084           ?SYMB   'Length',5,99,16
                  3085           ?SYMB   'i',3,98,16
                  3086           ?SYMB   'pHexStr',4,98,263
               R  3087           ?SYMB   'R7',$,100,5
               R  3088           ?SYMB   '-10',$,101,2
               R  3089           ?SYMB   '-c',$,101,1
                  3090   ; smspdu.c  463         int i;
                  3091   ; smspdu.c  464         char *pHexStr;
                  3092   ; smspdu.c  465 #if defined VME_DEBUG
                  3093   ; smspdu.c  466     debugex_nonl( "\r\nBinStr2String: malloc begin" );
                  3094           ?LINE   466
0BF4 E6FC0000  R  3095           MOV     R12,#POF _219
0BF8 E6FD0000  R  3096           MOV     R13,#PAG _219
0BFC DA000000  R  3097           CALLS   SEG _debugex_nonl,_debugex_nonl
                  3098   ; smspdu.c  467 #endif
                  3099   ; smspdu.c  468         pHexStr = (char *)malloc(Length*2+1);
                  3100           ?LINE   468
0C00 F087         3101           MOV     R8,R7
0C02 5C18         3102           SHL     R8,#01h
0C04 0881         3103           ADD     R8,#01h
0C06 F0C8         3104           MOV     R12,R8
0C08 F0DC         3105           MOV     R13,R12
0C0A BCFD         3106           ASHR    R13,#0Fh
0C0C DA000000  R  3107           CALLS   SEG _os_malloc,_os_malloc
0C10 F094         3108           MOV     R9,R4
0C12 F065         3109           MOV     R6,R5
               R  3110           ?SYMB   'R9R6',$,100,4
                  3111   ; smspdu.c  469 #if defined VME_DEBUG
                  3112   ; smspdu.c  470     debugex_nonl( "\r\nBinStr2String: malloc end" );
                  3113           ?LINE   470
0C14 E6FC0000  R  3114           MOV     R12,#POF _220
0C18 E6FD0000  R  3115           MOV     R13,#PAG _220
0C1C DA000000  R  3116           CALLS   SEG _debugex_nonl,_debugex_nonl
                  3117   ; smspdu.c  471 #endif
                  3118   ; smspdu.c  472 
                  3119   ; smspdu.c  473         for(i=0;i<Length;i++)
                  3120           ?LINE   473
0C20 E008         3121           MOV     R8,#00h
               R  3122           ?SYMB   'R8',$,100,3
0C22 0D10         3123           JMPR    cc_UC,_222
0C24              3124   _221:
                  3125   ; smspdu.c  474         {
                  3126   ; smspdu.c  475                 Byte2Str(pSrcStr[i],pHexStr+2*i);
                  3127           ?LINE   475
0C24 A8C0         3128           MOV     R12,[R0]
0C26 D4D00200     3129           MOV     R13,[R0+#02H]
0C2A 00C8         3130           ADD     R12,R8
0C2C DC4D         3131           EXTP    R13,#01h
0C2E A92C     1   3132           MOVB    RL1,[R12]
0C30 D02C         3133           MOVBS   R12,RL1
0C32 F0E8         3134           MOV     R14,R8
0C34 5C1E         3135           SHL     R14,#01h
0C36 F0FE         3136           MOV     R15,R14
0C38 F0D9         3137           MOV     R13,R9
0C3A F0E6         3138           MOV     R14,R6
0C3C 00DF         3139           ADD     R13,R15
0C3E DA00860C  R  3140           CALLS   SEG _Byte2Str,_Byte2Str
                  3141           ?LINE   473
0C42 0881         3142           ADD     R8,#01h
               R  3143           ?SYMB   '',$,102,3
               R  3144           ?SYMB   'R8',$,100,3
0C44              3145   _222:
0C44 4087         3146           CMP     R8,R7
0C46 CDEE         3147           JMPR    cc_SLT,_221
               R  3148           ?SYMB   '',$,102,2
                  3149   ; smspdu.c  476         }
                  3150   ; smspdu.c  477         pHexStr[2*Length]=0;
                  3151           ?LINE   477
0C48 E102         3152           MOVB    RL1,#00h
0C4A 5C17         3153           SHL     R7,#01h
               R  3154           ?SYMB   '',$,102,5
0C4C F089         3155           MOV     R8,R9
               R  3156           ?SYMB   '',$,102,3
0C4E F0C6         3157           MOV     R12,R6
0C50 0087         3158           ADD     R8,R7
0C52 DC4C         3159           EXTP    R12,#01h
0C54 B928     1   3160           MOVB    [R8],RL1
                  3161   ; smspdu.c  478         strcpy(pDstStr,pHexStr);
                  3162           ?LINE   478
0C56 D4C00400     3163           MOV     R12,[R0+#04H]
0C5A D4D00600     3164           MOV     R13,[R0+#06H]
0C5E F0E9         3165           MOV     R14,R9
0C60 F0F6         3166           MOV     R15,R6
0C62 DA000000  R  3167           CALLS   SEG _strcpy,_strcpy
                  3168   ; smspdu.c  479         
                  3169   ; smspdu.c  480         free(pHexStr);
                  3170           ?LINE   480
0C66 F086         3171           MOV     R8,R6
0C68 5CE8         3172           SHL     R8,#0Eh
0C6A 7098         3173           OR      R9,R8
               R  3174           ?SYMB   '',$,102,4
0C6C 7C26         3175           SHR     R6,#02h
0C6E F0C9         3176           MOV     R12,R9
0C70 F0D6         3177           MOV     R13,R6
0C72 DA000000  R  3178           CALLS   SEG _os_free,_os_free
                  3179   ; smspdu.c  481         return 0;
                  3180           ?LINE   481
0C76 E004         3181           MOV     R4,#00h
                  3182   ; smspdu.c  482 }
                  3183           ?LINE   482
0C78 06F00800     3184           ADD     R0,#08h
               R  3185           ?SYMB   '',$,96,8
0C7C 9860         3186           MOV     R6,[R0+]
               R  3187           ?SYMB   '',$,96,6
0C7E 9870         3188           MOV     R7,[R0+]
               R  3189           ?SYMB   '',$,96,4
0C80 9880         3190           MOV     R8,[R0+]
               R  3191           ?SYMB   '',$,96,2
0C82 9890         3192           MOV     R9,[R0+]
               R  3193           ?SYMB   '',$,96,0
0C84 DB00         3194           RETS
                  3195   _BinStr2String  ENDP
               R  3196           ?SYMB   '',$,17,482
                  3197   ; smspdu.c  483 
                  3198   ; smspdu.c  484 /*********************************************************************\ 
                  3199   ; smspdu.c  485 * Function         
                  3200   ; smspdu.c  486 * Purpose      
                  3201   ; smspdu.c  487 * Params           
                  3202   ; smspdu.c  488 * Return                   
                  3203   ; smspdu.c  489 * Remarks          
                  3204   ; smspdu.c  490 **********************************************************************/
                  3205   ; smspdu.c  491 int Byte2Str(BYTE code,char *str)
                  3206   ; smspdu.c  492 {
                  3207           ?LINE   492
                  3208           PUBLIC  _Byte2Str
               R  3209           ?SYMB   'Byte2Str',_Byte2Str,37,16
                  3210           ?SYMB   '',492,8,34
                  3211   _Byte2Str       PROC    FAR
                  3212           ?SYMB   '',00H,95,0
0C86 F01C         3213           MOV     R1,R12
                  3214   ; Locals:
                  3215   ; 
                  3216   ; Statics:
                  3217   ; 
                  3218   ; CSEs:
                  3219   ;     b2 = RL1
                  3220   ;     b1 = RL2
                  3221   ;     ch1 = RL2
                  3222   ;     ch2 = RL1
                  3223   ;     str = R13R14
                  3224   ;     code = RL1
                  3225   ; 
                  3226           ?SYMB   'code',6,99,266
                  3227           ?SYMB   'str',1,99,263
                  3228           ?SYMB   'b1',5,98,266
                  3229           ?SYMB   'b2',4,98,266
                  3230           ?SYMB   'ch1',3,98,2
                  3231           ?SYMB   'ch2',2,98,2
               R  3232           ?SYMB   'RL1',$,100,6
               R  3233           ?SYMB   'R13R14',$,100,1
                  3234   ; smspdu.c  493         BYTE b1,b2,byte;
                  3235   ; smspdu.c  494         
                  3236   ; smspdu.c  495         char ch1,ch2;
                  3237   ; smspdu.c  496         byte = code;
                  3238   ; smspdu.c  497         b1=(byte&0xf0)>>4;
                  3239           ?LINE   497
0C88 F162         3240           MOVB    RL3,RL1
0C8A 66F3F000     3241           AND     R3,#0F0h
0C8E BC43         3242           ASHR    R3,#04h
0C90 F146         3243           MOVB    RL2,RL3
               R  3244           ?SYMB   'RL2',$,100,5
                  3245   ; smspdu.c  498         b2=byte&0x0f;
                  3246           ?LINE   498
0C92 67F20F00     3247           ANDB    RL1,#0Fh
               R  3248           ?SYMB   '',$,102,6
0C96 F031         3249           MOV     R3,R1
0C98 F126         3250           MOVB    RL1,RL3
               R  3251           ?SYMB   'RL1',$,100,4
                  3252   ; smspdu.c  499 
                  3253   ; smspdu.c  500         if(b1>9)
                  3254           ?LINE   500
0C9A 47F40900     3255           CMPB    RL2,#09h
0C9E FD05         3256           JMPR    cc_ULE,_227
                  3257   ; smspdu.c  501                 ch1='A'+b1-10;
                  3258           ?LINE   501
0CA0 07F43700     3259           ADDB    RL2,#037h
               R  3260           ?SYMB   '',$,102,5
0CA4 F032         3261           MOV     R3,R2
0CA6 F146         3262           MOVB    RL2,RL3
               R  3263           ?SYMB   'RL2',$,100,3
0CA8 0D04         3264           JMPR    cc_UC,_228
0CAA              3265   _227:
               R  3266           ?SYMB   '',$,102,3
               R  3267           ?SYMB   'RL2',$,100,5
                  3268   ; smspdu.c  502         else
                  3269   ; smspdu.c  503                 ch1='0'+b1;
                  3270           ?LINE   503
0CAA 07F43000     3271           ADDB    RL2,#030h
               R  3272           ?SYMB   '',$,102,5
0CAE F032         3273           MOV     R3,R2
0CB0 F146         3274           MOVB    RL2,RL3
               R  3275           ?SYMB   'RL2',$,100,3
0CB2              3276   _228:
                  3277   ; smspdu.c  504 
                  3278   ; smspdu.c  505         if(b2>9)
                  3279           ?LINE   505
0CB2 47F20900     3280           CMPB    RL1,#09h
0CB6 FD05         3281           JMPR    cc_ULE,_229
                  3282   ; smspdu.c  506                 ch2='A'+b2-10;
                  3283           ?LINE   506
0CB8 07F23700     3284           ADDB    RL1,#037h
               R  3285           ?SYMB   '',$,102,4
0CBC F031         3286           MOV     R3,R1
0CBE F126         3287           MOVB    RL1,RL3
               R  3288           ?SYMB   'RL1',$,100,2
0CC0 0D04         3289           JMPR    cc_UC,_230
0CC2              3290   _229:
               R  3291           ?SYMB   '',$,102,2
               R  3292           ?SYMB   'RL1',$,100,4
                  3293   ; smspdu.c  507         else
                  3294   ; smspdu.c  508                 ch2='0'+b2;
                  3295           ?LINE   508
0CC2 07F23000     3296           ADDB    RL1,#030h
               R  3297           ?SYMB   '',$,102,4
0CC6 F031         3298           MOV     R3,R1
0CC8 F126         3299           MOVB    RL1,RL3
               R  3300           ?SYMB   'RL1',$,100,2
0CCA              3301   _230:
                  3302   ; smspdu.c  509 
                  3303   ; smspdu.c  510         str[0]=ch1;
                  3304           ?LINE   510
0CCA DC5E         3305           EXTP    R14,#02h
0CCC B94D     2   3306           MOVB    [R13],RL2
                  3307   ; smspdu.c  511         str[1]=ch2;
                  3308           ?LINE   511
0CCE E42D0100 1   3309           MOVB    [R13+#01H],RL1
                  3310   ; smspdu.c  512         
                  3311   ; smspdu.c  513         return 2;
                  3312           ?LINE   513
0CD2 E024         3313           MOV     R4,#02h
                  3314   ; smspdu.c  514         
                  3315   ; smspdu.c  515 }
                  3316           ?LINE   515
0CD4 DB00         3317           RETS
               R  3318           ?SYMB   '',$,102,1
               R  3319           ?SYMB   '',$,102,3
               R  3320           ?SYMB   '',$,102,2
                  3321   _Byte2Str       ENDP
               R  3322           ?SYMB   '',$,17,515
                  3323   ; smspdu.c  516 
                  3324   ; smspdu.c  517 /*********************************************************************\ 
                  3325   ; smspdu.c  518 * Function         
                  3326   ; smspdu.c  519 * Purpose      
                  3327   ; smspdu.c  520 * Params           
                  3328   ; smspdu.c  521 * Return                   
                  3329   ; smspdu.c  522 * Remarks          
                  3330   ; smspdu.c  523 **********************************************************************/
                  3331   ; smspdu.c  524 int ASCIIstr2GSMstr(char *pSrcStr, char *pDstStr)
                  3332   ; smspdu.c  525 {
                  3333           ?LINE   525
                  3334           PUBLIC  _ASCIIstr2GSMstr
               R  3335           ?SYMB   'ASCIIstr2GSMstr',_ASCIIstr2GSMstr,37,16
                  3336           ?SYMB   '',525,8,34
                  3337   _ASCIIstr2GSMstr        PROC    FAR
                  3338           ?SYMB   '',03c0H,95,0
0CD6 8890         3339           MOV     [-R0],R9
               R  3340           ?SYMB   '',$,96,2
0CD8 8880         3341           MOV     [-R0],R8
               R  3342           ?SYMB   '',$,96,4
0CDA 8870         3343           MOV     [-R0],R7
               R  3344           ?SYMB   '',$,96,6
0CDC 8860         3345           MOV     [-R0],R6
               R  3346           ?SYMB   '',$,96,8
0CDE 88F0         3347           MOV     [-R0],R15
               R  3348           ?SYMB   '',$,96,10
0CE0 88E0         3349           MOV     [-R0],R14
               R  3350           ?SYMB   '',$,96,12
0CE2 88D0         3351           MOV     [-R0],R13
               R  3352           ?SYMB   '',$,96,14
0CE4 88C0         3353           MOV     [-R0],R12
               R  3354           ?SYMB   '',$,96,16
0CE6 26F02400     3355           SUB     R0,#024h
               R  3356           ?SYMB   '',$,96,52
                  3357   ; Locals:
                  3358   ;     b = offset 0
                  3359   ; 
                  3360   ; Statics:
                  3361   ; 
                  3362   ; CSEs:
                  3363   ;     i = R1
                  3364   ;     j = R8
                  3365   ;     pHexStr + j * 7 = R1R2
                  3366   ;     B = R9R6
                  3367   ;     LopI = R7
                  3368   ;     pHexStr = R3R10
                  3369   ;     str_len = R8
                  3370   ;     A = offset 32
                  3371   ;     ModI = R11
                  3372   ;     pSrcStr = offset 36
                  3373   ;     pDstStr = offset 40
                  3374   ; 
                  3375           ?SYMB   'pSrcStr',10,99,263
                  3376           ?SYMB   'pDstStr',1,99,263
                  3377           ?SYMB   '',023f010fH,5,574
                  3378           ?SYMB   '',16,47,575
                  3379           ?SYMB   '',0,30,0
                  3380           ?SYMB   '',7,49,0
                  3381           ?SYMB   'b',11,98,574
               R  3382           ?SYMB   '-34',$,101,11
                  3383           ?SYMB   'A',3,98,271
                  3384           ?SYMB   'B',2,98,271
                  3385           ?SYMB   'i',4,98,16
                  3386           ?SYMB   'j',5,98,16
                  3387           ?SYMB   'str_len',9,98,16
                  3388           ?SYMB   'LopI',7,98,16
                  3389           ?SYMB   'ModI',6,98,16
                  3390           ?SYMB   'pHexStr',8,98,263
               R  3391           ?SYMB   '-10',$,101,10
               R  3392           ?SYMB   '-c',$,101,1
                  3393   ; smspdu.c  526         DWORD b[8], A, B;
                  3394   ; smspdu.c  527         int i,j, str_len, LopI, ModI;
                  3395   ; smspdu.c  528         char *pHexStr;
                  3396   ; smspdu.c  529 
                  3397   ; smspdu.c  530         str_len = strlen(pSrcStr);
                  3398           ?LINE   530
0CEA DA000000  R  3399           CALLS   SEG _strlen,_strlen
0CEE F084         3400           MOV     R8,R4
               R  3401           ?SYMB   'R8',$,100,9
                  3402   ; smspdu.c  531 #if defined VME_DEBUG
                  3403   ; smspdu.c  532     debugex_nonl( "\r\nASCIIstr2GSMstr: malloc begin" );
                  3404           ?LINE   532
0CF0 E6FC0000  R  3405           MOV     R12,#POF _231
0CF4 E6FD0000  R  3406           MOV     R13,#PAG _231
0CF8 DA000000  R  3407           CALLS   SEG _debugex_nonl,_debugex_nonl
                  3408   ; smspdu.c  533     debugex_nonl( "\r\nSrcstr = \"%s\"", pSrcStr );
                  3409           ?LINE   533
0CFC D4902400     3410           MOV     R9,[R0+#024H]
0D00 D4602600     3411           MOV     R6,[R0+#026H]
0D04 8860         3412           MOV     [-R0],R6
               R  3413           ?SYMB   '',$,96,54
0D06 8890         3414           MOV     [-R0],R9
               R  3415           ?SYMB   '',$,96,56
0D08 E6FC0000  R  3416           MOV     R12,#POF _232
0D0C E6FD0000  R  3417           MOV     R13,#PAG _232
0D10 DA000000  R  3418           CALLS   SEG _debugex_nonl,_debugex_nonl
0D14 0804         3419           ADD     R0,#04h
               R  3420           ?SYMB   '',$,96,52
                  3421   ; smspdu.c  534     debugex_nonl( "\r\nstr_len = %d", str_len );
                  3422           ?LINE   534
0D16 8880         3423           MOV     [-R0],R8
               R  3424           ?SYMB   '',$,96,54
0D18 E6FC0000  R  3425           MOV     R12,#POF _233
0D1C E6FD0000  R  3426           MOV     R13,#PAG _233
0D20 DA000000  R  3427           CALLS   SEG _debugex_nonl,_debugex_nonl
0D24 0802         3428           ADD     R0,#02h
               R  3429           ?SYMB   '',$,96,52
                  3430   ; smspdu.c  535 #endif
                  3431   ; smspdu.c  536         pHexStr = (char *)malloc(str_len+7);
                  3432           ?LINE   536
0D26 E079         3433           MOV     R9,#07h
0D28 0098         3434           ADD     R9,R8
0D2A F0C9         3435           MOV     R12,R9
0D2C F0DC         3436           MOV     R13,R12
0D2E BCFD         3437           ASHR    R13,#0Fh
0D30 DA000000  R  3438           CALLS   SEG _os_malloc,_os_malloc
0D34 F034         3439           MOV     R3,R4
0D36 F0A5         3440           MOV     R10,R5
               R  3441           ?SYMB   'R3R10',$,100,8
                  3442   ; smspdu.c  537 #if defined VME_DEBUG
                  3443   ; smspdu.c  538     debugex_nonl( "\r\nASCIIstr2GSMstr: malloc end" );
                  3444           ?LINE   538
0D38 F093         3445           MOV     R9,R3
0D3A F06A         3446           MOV     R6,R10
0D3C E6FC0000  R  3447           MOV     R12,#POF _234
0D40 E6FD0000  R  3448           MOV     R13,#PAG _234
0D44 DA000000  R  3449           CALLS   SEG _debugex_nonl,_debugex_nonl
               R  3450           ?SYMB   '',$,102,8
0D48 F0A6         3451           MOV     R10,R6
0D4A F039         3452           MOV     R3,R9
               R  3453           ?SYMB   'R3R10',$,100,8
                  3454   ; smspdu.c  539 #endif
                  3455   ; smspdu.c  540 
                  3456   ; smspdu.c  541         LopI= str_len/8;
                  3457           ?LINE   541
0D4C F078         3458           MOV     R7,R8
0D4E F097         3459           MOV     R9,R7
0D50 BC27         3460           ASHR    R7,#02h
0D52 7CD7         3461           SHR     R7,#0Dh
0D54 0079         3462           ADD     R7,R9
0D56 BC37         3463           ASHR    R7,#03h
               R  3464           ?SYMB   'R7',$,100,7
                  3465   ; smspdu.c  542 
                  3466   ; smspdu.c  543         ModI= str_len%8;
                  3467           ?LINE   543
0D58 F0B8         3468           MOV     R11,R8
               R  3469           ?SYMB   '',$,102,9
0D5A BC2B         3470           ASHR    R11,#02h
0D5C 7CDB         3471           SHR     R11,#0Dh
0D5E 00B8         3472           ADD     R11,R8
0D60 66FBF8FF     3473           AND     R11,#0FFF8h
0D64 81B0         3474           NEG     R11
0D66 00B8         3475           ADD     R11,R8
               R  3476           ?SYMB   'R11',$,100,6
                  3477   ; smspdu.c  544         if(ModI)
                  3478           ?LINE   544
0D68 2D01         3479           JMPR    cc_Z,_243
                  3480   ; smspdu.c  545                 LopI++;
                  3481           ?LINE   545
0D6A 0871         3482           ADD     R7,#01h
               R  3483           ?SYMB   '',$,102,7
               R  3484           ?SYMB   'R7',$,100,7
0D6C              3485   _243:
                  3486   ; smspdu.c  546         
                  3487   ; smspdu.c  547         for(j=0; j<LopI; j++)
                  3488           ?LINE   547
0D6C E008         3489           MOV     R8,#00h
               R  3490           ?SYMB   'R8',$,100,5
0D6E EA00E80E  R  3491           JMPA    cc_UC,_250
0D72              3492   _244:
                  3493   ; smspdu.c  548         {
                  3494   ; smspdu.c  549                 A=B=0;
                  3495   ; smspdu.c  550                 for(i=0;i<8;i++)
                  3496           ?LINE   550
0D72 E001         3497           MOV     R1,#00h
               R  3498           ?SYMB   'R1',$,100,4
0D74              3499   _245:
                  3500   ; smspdu.c  551                 {
                  3501   ; smspdu.c  552                         if(ModI && j==LopI-1 && i>= ModI)
                  3502           ?LINE   552
0D74 48B0         3503           CMP     R11,#00h
0D76 2D0F         3504           JMPR    cc_Z,_248
0D78 F097         3505           MOV     R9,R7
0D7A 2891         3506           SUB     R9,#01h
0D7C 4098         3507           CMP     R9,R8
0D7E 3D0B         3508           JMPR    cc_NE,_248
0D80 401B         3509           CMP     R1,R11
0D82 CD09         3510           JMPR    cc_SLT,_248
                  3511   ; smspdu.c  553                                 b[i]=0;
                  3512           ?LINE   553
0D84 E009         3513           MOV     R9,#00h
0D86 E006         3514           MOV     R6,#00h
0D88 F0C1         3515           MOV     R12,R1
0D8A 5C2C         3516           SHL     R12,#02h
0D8C 00C0         3517           ADD     R12,R0
0D8E B89C         3518           MOV     [R12],R9
0D90 C46C0200     3519           MOV     [R12+#02H],R6
0D94 0D13         3520           JMPR    cc_UC,_249
0D96              3521   _248:
                  3522   ; smspdu.c  554                         else
                  3523   ; smspdu.c  555                                 b[i]=(char)pSrcStr[8*j+i];
                  3524           ?LINE   555
0D96 F098         3525           MOV     R9,R8
0D98 5C39         3526           SHL     R9,#03h
0D9A 0091         3527           ADD     R9,R1
0D9C D4602400     3528           MOV     R6,[R0+#024H]
0DA0 D4C02600     3529           MOV     R12,[R0+#026H]
0DA4 0069         3530           ADD     R6,R9
0DA6 DC4C         3531           EXTP    R12,#01h
0DA8 A9C6     1   3532           MOVB    RL6,[R6]
0DAA D0C6         3533           MOVBS   R6,RL6
0DAC F096         3534           MOV     R9,R6
0DAE BCF9         3535           ASHR    R9,#0Fh
0DB0 F0D1         3536           MOV     R13,R1
0DB2 5C2D         3537           SHL     R13,#02h
0DB4 00D0         3538           ADD     R13,R0
0DB6 B86D         3539           MOV     [R13],R6
0DB8 C49D0200     3540           MOV     [R13+#02H],R9
0DBC              3541   _249:
               R  3542           ?SYMB   '',$,102,4
               R  3543           ?SYMB   'R1',$,100,4
                  3544           ?LINE   550
0DBC 8071         3545           CMPI1   R1,#07h
0DBE CDDA         3546           JMPR    cc_SLT,_245
                  3547   ; smspdu.c  556                 }
                  3548   ; smspdu.c  557                 A = b[0] + (b[1]<<7) + (b[2]<<14) + (b[3]<<21) + (b[4]<<28);
                  3549           ?LINE   557
0DC0 A890         3550           MOV     R9,[R0]
0DC2 D4600200     3551           MOV     R6,[R0+#02H]
0DC6 D4C00400     3552           MOV     R12,[R0+#04H]
0DCA D4D00600     3553           MOV     R13,[R0+#06H]
0DCE F0EC         3554           MOV     R14,R12
0DD0 5C7C         3555           SHL     R12,#07h
0DD2 5C7D         3556           SHL     R13,#07h
0DD4 7C9E         3557           SHR     R14,#09h
0DD6 70DE         3558           OR      R13,R14
0DD8 009C         3559           ADD     R9,R12
0DDA 106D         3560           ADDC    R6,R13
0DDC D4C00800     3561           MOV     R12,[R0+#08H]
0DE0 D4D00A00     3562           MOV     R13,[R0+#0AH]
0DE4 F0EC         3563           MOV     R14,R12
0DE6 5CEC         3564           SHL     R12,#0Eh
0DE8 5CED         3565           SHL     R13,#0Eh
0DEA 7C2E         3566           SHR     R14,#02h
0DEC 70DE         3567           OR      R13,R14
0DEE 009C         3568           ADD     R9,R12
0DF0 106D         3569           ADDC    R6,R13
0DF2 D4C00C00     3570           MOV     R12,[R0+#0CH]
0DF6 D4D00E00     3571           MOV     R13,[R0+#0EH]
0DFA F0DC         3572           MOV     R13,R12
0DFC 5C5D         3573           SHL     R13,#05h
0DFE E00C         3574           MOV     R12,#00h
0E00 009C         3575           ADD     R9,R12
0E02 106D         3576           ADDC    R6,R13
0E04 D4D01000     3577           MOV     R13,[R0+#010H]
0E08 D4E01200     3578           MOV     R14,[R0+#012H]
0E0C F0ED         3579           MOV     R14,R13
0E0E 5CCE         3580           SHL     R14,#0Ch
0E10 E00D         3581           MOV     R13,#00h
0E12 009D         3582           ADD     R9,R13
0E14 106E         3583           ADDC    R6,R14
0E16 C4902000     3584           MOV     [R0+#020H],R9
0E1A C4602200     3585           MOV     [R0+#022H],R6
               R  3586           ?SYMB   '-14',$,101,3
                  3587   ; smspdu.c  558                 B = b[4] + (b[5]<<7) + (b[6]<<14) + (b[7]<<21);
                  3588           ?LINE   558
0E1E D4901000     3589           MOV     R9,[R0+#010H]
0E22 D4601200     3590           MOV     R6,[R0+#012H]
0E26 D4E01400     3591           MOV     R14,[R0+#014H]
0E2A D4F01600     3592           MOV     R15,[R0+#016H]
0E2E F01E         3593           MOV     R1,R14
               R  3594           ?SYMB   '',$,102,4
0E30 5C7E         3595           SHL     R14,#07h
0E32 5C7F         3596           SHL     R15,#07h
0E34 7C91         3597           SHR     R1,#09h
0E36 70F1         3598           OR      R15,R1
0E38 009E         3599           ADD     R9,R14
0E3A 106F         3600           ADDC    R6,R15
0E3C D4E01800     3601           MOV     R14,[R0+#018H]
0E40 D4F01A00     3602           MOV     R15,[R0+#01AH]
0E44 F01E         3603           MOV     R1,R14
0E46 5CEE         3604           SHL     R14,#0Eh
0E48 5CEF         3605           SHL     R15,#0Eh
0E4A 7C21         3606           SHR     R1,#02h
0E4C 70F1         3607           OR      R15,R1
0E4E 009E         3608           ADD     R9,R14
0E50 106F         3609           ADDC    R6,R15
0E52 D4E01C00     3610           MOV     R14,[R0+#01CH]
0E56 D4F01E00     3611           MOV     R15,[R0+#01EH]
0E5A F0FE         3612           MOV     R15,R14
0E5C 5C5F         3613           SHL     R15,#05h
0E5E E00E         3614           MOV     R14,#00h
0E60 009E         3615           ADD     R9,R14
0E62 106F         3616           ADDC    R6,R15
               R  3617           ?SYMB   'R9R6',$,100,2
                  3618   ; smspdu.c  559                 B = B>>4;
                  3619           ?LINE   559
0E64 F0F6         3620           MOV     R15,R6
0E66 7C49         3621           SHR     R9,#04h
               R  3622           ?SYMB   '',$,102,2
0E68 7C46         3623           SHR     R6,#04h
0E6A 5CCF         3624           SHL     R15,#0Ch
0E6C 709F         3625           OR      R9,R15
               R  3626           ?SYMB   'R9R6',$,100,2
                  3627   ; smspdu.c  560                 pHexStr[7*j] = (char)A;
                  3628           ?LINE   560
0E6E F4802000     3629           MOVB    RL4,[R0+#020H]
0E72 F0F8         3630           MOV     R15,R8
0E74 5C3F         3631           SHL     R15,#03h
0E76 20F8         3632           SUB     R15,R8
0E78 F013         3633           MOV     R1,R3
0E7A F02A         3634           MOV     R2,R10
0E7C 001F         3635           ADD     R1,R15
0E7E DC42         3636           EXTP    R2,#01h
0E80 B981     1   3637           MOVB    [R1],RL4
                  3638   ; smspdu.c  561                 pHexStr[7*j+1] = (char)(A>>8);
                  3639           ?LINE   561
0E82 D4F02000     3640           MOV     R15,[R0+#020H]
0E86 D4502200     3641           MOV     R5,[R0+#022H]
0E8A F0C5         3642           MOV     R12,R5
0E8C 7C8F         3643           SHR     R15,#08h
0E8E 7C85         3644           SHR     R5,#08h
0E90 5C8C         3645           SHL     R12,#08h
0E92 70FC         3646           OR      R15,R12
0E94 F04F         3647           MOV     R4,R15
0E96 DC42         3648           EXTP    R2,#01h
0E98 E4810100 1   3649           MOVB    [R1+#01H],RL4
                  3650   ; smspdu.c  562                 pHexStr[7*j+2] = (char)(A>>16);
                  3651           ?LINE   562
0E9C D4C02000     3652           MOV     R12,[R0+#020H]
0EA0 D4C02200     3653           MOV     R12,[R0+#022H]
0EA4 E00F         3654           MOV     R15,#00h
0EA6 F04C         3655           MOV     R4,R12
0EA8 DC42         3656           EXTP    R2,#01h
0EAA E4810200 1   3657           MOVB    [R1+#02H],RL4
                  3658   ; smspdu.c  563                 pHexStr[7*j+3] = (char)(A>>24);
                  3659           ?LINE   563
0EAE D4502000     3660           MOV     R5,[R0+#020H]
0EB2 F05C         3661           MOV     R5,R12
0EB4 7C85         3662           SHR     R5,#08h
0EB6 E00C         3663           MOV     R12,#00h
0EB8 DC42         3664           EXTP    R2,#01h
0EBA E4A10300 1   3665           MOVB    [R1+#03H],RL5
                  3666   ; smspdu.c  564                 pHexStr[7*j+4] = (char)B;
                  3667           ?LINE   564
0EBE F059         3668           MOV     R5,R9
0EC0 DC42         3669           EXTP    R2,#01h
0EC2 E4A10400 1   3670           MOVB    [R1+#04H],RL5
                  3671   ; smspdu.c  565                 pHexStr[7*j+5] = (char)(B>>8);
                  3672           ?LINE   565
0EC6 F059         3673           MOV     R5,R9
0EC8 F0C6         3674           MOV     R12,R6
0ECA F0DC         3675           MOV     R13,R12
0ECC 7C85         3676           SHR     R5,#08h
0ECE 7C8C         3677           SHR     R12,#08h
0ED0 5C8D         3678           SHL     R13,#08h
0ED2 705D         3679           OR      R5,R13
0ED4 DC42         3680           EXTP    R2,#01h
0ED6 E4A10500 1   3681           MOVB    [R1+#05H],RL5
                  3682   ; smspdu.c  566                 pHexStr[7*j+6] = (char)(B>>16);
                  3683           ?LINE   566
0EDA F096         3684           MOV     R9,R6
               R  3685           ?SYMB   '',$,102,2
0EDC E006         3686           MOV     R6,#00h
0EDE F059         3687           MOV     R5,R9
0EE0 DC42         3688           EXTP    R2,#01h
0EE2 E4A10600 1   3689           MOVB    [R1+#06H],RL5
                  3690           ?LINE   547
0EE6 0881         3691           ADD     R8,#01h
               R  3692           ?SYMB   '',$,102,5
               R  3693           ?SYMB   'R8',$,100,5
0EE8              3694   _250:
0EE8 4087         3695           CMP     R8,R7
0EEA EAC0720D  R  3696           JMPA    cc_SLT,_244
               R  3697           ?SYMB   '',$,102,10
                  3698   ; smspdu.c  567         }
                  3699   ; smspdu.c  568         pHexStr[7*j+7]=0;
                  3700           ?LINE   568
0EEE E10C         3701           MOVB    RL6,#00h
0EF0 F098         3702           MOV     R9,R8
0EF2 5C39         3703           SHL     R9,#03h
0EF4 2098         3704           SUB     R9,R8
0EF6 F083         3705           MOV     R8,R3
               R  3706           ?SYMB   '',$,102,5
0EF8 F07A         3707           MOV     R7,R10
               R  3708           ?SYMB   '',$,102,7
0EFA 0089         3709           ADD     R8,R9
0EFC DC47         3710           EXTP    R7,#01h
0EFE E4C80700 1   3711           MOVB    [R8+#07H],RL6
                  3712   ; smspdu.c  569         strcpy(pDstStr,pHexStr);
                  3713           ?LINE   569
0F02 F08A         3714           MOV     R8,R10
0F04 F093         3715           MOV     R9,R3
0F06 D4C02800     3716           MOV     R12,[R0+#028H]
0F0A D4D02A00     3717           MOV     R13,[R0+#02AH]
0F0E F0F8         3718           MOV     R15,R8
0F10 F0E9         3719           MOV     R14,R9
0F12 DA000000  R  3720           CALLS   SEG _strcpy,_strcpy
               R  3721           ?SYMB   '',$,102,8
               R  3722           ?SYMB   '',$,102,6
0F16 F039         3723           MOV     R3,R9
0F18 F0A8         3724           MOV     R10,R8
               R  3725           ?SYMB   'R3R10',$,100,8
                  3726   ; smspdu.c  570         free(pHexStr);
                  3727           ?LINE   570
0F1A F083         3728           MOV     R8,R3
0F1C F09A         3729           MOV     R9,R10
0F1E F0D9         3730           MOV     R13,R9
0F20 F0C8         3731           MOV     R12,R8
0F22 F08D         3732           MOV     R8,R13
0F24 5CE8         3733           SHL     R8,#0Eh
0F26 70C8         3734           OR      R12,R8
0F28 7C2D         3735           SHR     R13,#02h
0F2A DA000000  R  3736           CALLS   SEG _os_free,_os_free
               R  3737           ?SYMB   '',$,102,8
                  3738   ; smspdu.c  571         return 0;
                  3739           ?LINE   571
0F2E E004         3740           MOV     R4,#00h
               R  3741           ?SYMB   '',$,102,11
                  3742   ; smspdu.c  572 }
                  3743           ?LINE   572
0F30 06F02C00     3744           ADD     R0,#02Ch
               R  3745           ?SYMB   '',$,96,8
0F34 9860         3746           MOV     R6,[R0+]
               R  3747           ?SYMB   '',$,96,6
0F36 9870         3748           MOV     R7,[R0+]
               R  3749           ?SYMB   '',$,96,4
0F38 9880         3750           MOV     R8,[R0+]
               R  3751           ?SYMB   '',$,96,2
0F3A 9890         3752           MOV     R9,[R0+]
               R  3753           ?SYMB   '',$,96,0
0F3C DB00         3754           RETS
                  3755   _ASCIIstr2GSMstr        ENDP
               R  3756           ?SYMB   '',$,17,572
                  3757   ; smspdu.c  573 
                  3758   ; smspdu.c  574 
                  3759   ; smspdu.c  575 /*********************************************************************\ 
                  3760   ; smspdu.c  576 * Function         
                  3761   ; smspdu.c  577 * Purpose      
                  3762   ; smspdu.c  578 * Params           
                  3763   ; smspdu.c  579 * Return                   
                  3764   ; smspdu.c  580 * Remarks          
                  3765   ; smspdu.c  581 **********************************************************************/
                  3766   ; smspdu.c  582 int     Analyse_PDUCode2WideChar(  char* pDesStr, char* pSrcStr, int BufLen )
                  3767   ; smspdu.c  583 {
                  3768           ?LINE   583
                  3769           PUBLIC  _Analyse_PDUCode2WideChar
               R  3770           ?SYMB   'Analyse_PDUCode2WideChar',_Analyse_PDUCode2WideChar,37,16
                  3771           ?SYMB   '',583,8,34
                  3772   _Analyse_PDUCode2WideChar       PROC    FAR
                  3773           ?SYMB   '',03c0H,95,0
0F3E 8890         3774           MOV     [-R0],R9
               R  3775           ?SYMB   '',$,96,2
0F40 8880         3776           MOV     [-R0],R8
               R  3777           ?SYMB   '',$,96,4
0F42 8870         3778           MOV     [-R0],R7
               R  3779           ?SYMB   '',$,96,6
0F44 8860         3780           MOV     [-R0],R6
               R  3781           ?SYMB   '',$,96,8
0F46 26F09802     3782           SUB     R0,#0298h
               R  3783           ?SYMB   '',$,96,672
0F4A F07D         3784           MOV     R7,R13
0F4C F06C         3785           MOV     R6,R12
                  3786   ; Locals:
                  3787   ;     TempContext = offset 0
                  3788   ;     TempStr = offset 660
                  3789   ; 
                  3790   ; Statics:
                  3791   ; 
                  3792   ; CSEs:
                  3793   ;     i = R8
                  3794   ;     j = R9
                  3795   ;     pDesStr = R6R7
                  3796   ;     pSrcStr = R14R15
                  3797   ;     pSrcStr + 1 = R12R13
                  3798   ;     TempVal = R12
                  3799   ;     pDesStr + 1 = R1R2
                  3800   ;     BufLen = offset 672
                  3801   ; 
                  3802           ?SYMB   'pDesStr',3,99,263
                  3803           ?SYMB   'pSrcStr',4,99,263
                  3804           ?SYMB   'BufLen',1,99,16
                  3805           ?SYMB   'TempContext',8,98,567
               R  3806           ?SYMB   '-2a0',$,101,8
                  3807           ?SYMB   'TempStr',7,98,562
               R  3808           ?SYMB   '-c',$,101,7
                  3809           ?SYMB   'i',6,98,16
                  3810           ?SYMB   'j',5,98,16
                  3811           ?SYMB   'TempVal',2,98,16
               R  3812           ?SYMB   'R14R15',$,100,4
               R  3813           ?SYMB   'R6R7',$,100,3
               R  3814           ?SYMB   '0',$,101,1
                  3815   ; smspdu.c  584         char    TempContext[ME_SMS_PDU_LEN];
                  3816   ; smspdu.c  585         char    TempStr[4];
                  3817   ; smspdu.c  586         int             i,j,TempVal;
                  3818   ; smspdu.c  587 
                  3819   ; smspdu.c  588         memset(TempContext, 0, ME_SMS_PDU_LEN);
                  3820           ?LINE   588
0F4E F08E         3821           MOV     R8,R14
0F50 F09F         3822           MOV     R9,R15
0F52 F0C0         3823           MOV     R12,R0
0F54 66FCFF3F     3824           AND     R12,#03FFFh
0F58 F2FD02FE     3825           MOV     R13,DPP1
0F5C E00E         3826           MOV     R14,#00h
               R  3827           ?SYMB   '',$,102,4
0F5E E6FF9402     3828           MOV     R15,#0294h
0F62 DA000000  R  3829           CALLS   SEG _memset,_memset
0F66 F0F9         3830           MOV     R15,R9
0F68 F0E8         3831           MOV     R14,R8
               R  3832           ?SYMB   'R14R15',$,100,4
                  3833   ; smspdu.c  589         for( i=0,j=2; pSrcStr[i] != 0; i+=4,j+=4 )
                  3834           ?LINE   589
0F6A E008         3835           MOV     R8,#00h
               R  3836           ?SYMB   'R8',$,100,6
0F6C E029         3837           MOV     R9,#02h
               R  3838           ?SYMB   'R9',$,100,5
0F6E 0D2C         3839           JMPR    cc_UC,_252
0F70              3840   _251:
                  3841   ; smspdu.c  590         {
                  3842   ; smspdu.c  591                 pDesStr[j] = pSrcStr[i];
                  3843           ?LINE   591
0F70 F0CE         3844           MOV     R12,R14
0F72 F0DF         3845           MOV     R13,R15
0F74 00C8         3846           ADD     R12,R8
0F76 DC4D         3847           EXTP    R13,#01h
0F78 A92C     1   3848           MOVB    RL1,[R12]
0F7A F0C6         3849           MOV     R12,R6
0F7C F0D7         3850           MOV     R13,R7
0F7E 00C9         3851           ADD     R12,R9
0F80 DC4D         3852           EXTP    R13,#01h
0F82 B92C     1   3853           MOVB    [R12],RL1
                  3854   ; smspdu.c  592                 pDesStr[j+1] = pSrcStr[i+1];
                  3855           ?LINE   592
0F84 F0CE         3856           MOV     R12,R14
0F86 F0DF         3857           MOV     R13,R15
0F88 08C1         3858           ADD     R12,#01h
0F8A F03C         3859           MOV     R3,R12
0F8C F04D         3860           MOV     R4,R13
0F8E 0038         3861           ADD     R3,R8
0F90 DC44         3862           EXTP    R4,#01h
0F92 A963     1   3863           MOVB    RL3,[R3]
0F94 F016         3864           MOV     R1,R6
0F96 F027         3865           MOV     R2,R7
0F98 0811         3866           ADD     R1,#01h
0F9A F041         3867           MOV     R4,R1
0F9C F052         3868           MOV     R5,R2
0F9E 0049         3869           ADD     R4,R9
0FA0 DC45         3870           EXTP    R5,#01h
0FA2 B964     1   3871           MOVB    [R4],RL3
                  3872   ; smspdu.c  593                 pDesStr[i] = pSrcStr[j];
                  3873           ?LINE   593
0FA4 F03E         3874           MOV     R3,R14
0FA6 F04F         3875           MOV     R4,R15
0FA8 0039         3876           ADD     R3,R9
0FAA DC44         3877           EXTP    R4,#01h
0FAC A963     1   3878           MOVB    RL3,[R3]
0FAE F046         3879           MOV     R4,R6
0FB0 F057         3880           MOV     R5,R7
0FB2 0048         3881           ADD     R4,R8
0FB4 DC45         3882           EXTP    R5,#01h
0FB6 B964     1   3883           MOVB    [R4],RL3
                  3884   ; smspdu.c  594                 pDesStr[i+1] = pSrcStr[j+1];
                  3885           ?LINE   594
0FB8 00C9         3886           ADD     R12,R9
0FBA DC4D         3887           EXTP    R13,#01h
0FBC A96C     1   3888           MOVB    RL3,[R12]
0FBE 0018         3889           ADD     R1,R8
0FC0 DC42         3890           EXTP    R2,#01h
0FC2 B961     1   3891           MOVB    [R1],RL3
                  3892           ?LINE   589
0FC4 0884         3893           ADD     R8,#04h
               R  3894           ?SYMB   '',$,102,6
               R  3895           ?SYMB   'R8',$,100,6
0FC6 0894         3896           ADD     R9,#04h
               R  3897           ?SYMB   '',$,102,5
               R  3898           ?SYMB   'R9',$,100,5
0FC8              3899   _252:
0FC8 F0CE         3900           MOV     R12,R14
0FCA F0DF         3901           MOV     R13,R15
0FCC 00C8         3902           ADD     R12,R8
0FCE DC4D         3903           EXTP    R13,#01h
0FD0 A92C     1   3904           MOVB    RL1,[R12]
0FD2 3DCE         3905           JMPR    cc_NZ,_251
                  3906   ; smspdu.c  595         }
                  3907   ; smspdu.c  596         pDesStr[i] = 0;
                  3908           ?LINE   596
0FD4 E102         3909           MOVB    RL1,#00h
0FD6 F096         3910           MOV     R9,R6
               R  3911           ?SYMB   '',$,102,5
0FD8 F0C7         3912           MOV     R12,R7
0FDA 0098         3913           ADD     R9,R8
0FDC DC4C         3914           EXTP    R12,#01h
0FDE B929     1   3915           MOVB    [R9],RL1
                  3916   ; smspdu.c  597 
                  3917   ; smspdu.c  598         for( i=0,j=0 ; pSrcStr[i] != 0; i+=2,j++ )
                  3918           ?LINE   598
0FE0 E008         3919           MOV     R8,#00h
               R  3920           ?SYMB   '',$,102,6
               R  3921           ?SYMB   'R8',$,100,6
0FE2 E009         3922           MOV     R9,#00h
               R  3923           ?SYMB   'R9',$,100,5
0FE4 0D36         3924           JMPR    cc_UC,_254
0FE6              3925   _253:
                  3926   ; smspdu.c  599         {
                  3927   ; smspdu.c  600                 memset( TempStr, 0, 4 );
                  3928           ?LINE   600
0FE6 88F0         3929           MOV     [-R0],R15
               R  3930           ?SYMB   '',$,96,674
0FE8 88E0         3931           MOV     [-R0],R14
               R  3932           ?SYMB   '',$,96,676
0FEA E6FC9802     3933           MOV     R12,#0298h
0FEE 00C0         3934           ADD     R12,R0
0FF0 66FCFF3F     3935           AND     R12,#03FFFh
0FF4 F2FD02FE     3936           MOV     R13,DPP1
0FF8 E00E         3937           MOV     R14,#00h
               R  3938           ?SYMB   '',$,102,4
0FFA E04F         3939           MOV     R15,#04h
0FFC DA000000  R  3940           CALLS   SEG _memset,_memset
1000 98E0         3941           MOV     R14,[R0+]
               R  3942           ?SYMB   '',$,96,674
1002 98F0         3943           MOV     R15,[R0+]
               R  3944           ?SYMB   '',$,96,672
               R  3945           ?SYMB   'R14R15',$,100,4
                  3946   ; smspdu.c  601                 strncpy( TempStr, pDesStr+i, 2 );
                  3947           ?LINE   601
1004 88E0         3948           MOV     [-R0],R14
               R  3949           ?SYMB   '',$,96,674
1006 88F0         3950           MOV     [-R0],R15
               R  3951           ?SYMB   '',$,96,676
1008 E02C         3952           MOV     R12,#02h
100A 88C0         3953           MOV     [-R0],R12
               R  3954           ?SYMB   '',$,96,678
100C E6FC9A02     3955           MOV     R12,#029Ah
1010 00C0         3956           ADD     R12,R0
1012 66FCFF3F     3957           AND     R12,#03FFFh
1016 F2FD02FE     3958           MOV     R13,DPP1
101A F0E6         3959           MOV     R14,R6
               R  3960           ?SYMB   '',$,102,4
101C F0F7         3961           MOV     R15,R7
101E 00E8         3962           ADD     R14,R8
1020 DA000000  R  3963           CALLS   SEG _strncpy,_strncpy
1024 0802         3964           ADD     R0,#02h
               R  3965           ?SYMB   '',$,96,676
1026 98F0         3966           MOV     R15,[R0+]
               R  3967           ?SYMB   '',$,96,674
1028 98E0         3968           MOV     R14,[R0+]
               R  3969           ?SYMB   '',$,96,672
               R  3970           ?SYMB   'R14R15',$,100,4
                  3971   ; smspdu.c  602                 TempVal = HexString2DWORD( TempStr );
                  3972           ?LINE   602
102A 88E0         3973           MOV     [-R0],R14
               R  3974           ?SYMB   '',$,96,674
102C 88F0         3975           MOV     [-R0],R15
               R  3976           ?SYMB   '',$,96,676
102E E6FC9802     3977           MOV     R12,#0298h
1032 00C0         3978           ADD     R12,R0
1034 66FCFF3F     3979           AND     R12,#03FFFh
1038 F2FD02FE     3980           MOV     R13,DPP1
103C DA00C803  R  3981           CALLS   SEG _HexString2DWORD,_HexString2DWORD
               R  3982           ?SYMB   '',$,102,4
1040 F0C4         3983           MOV     R12,R4
               R  3984           ?SYMB   'R12',$,100,2
1042 98F0         3985           MOV     R15,[R0+]
               R  3986           ?SYMB   '',$,96,674
1044 98E0         3987           MOV     R14,[R0+]
               R  3988           ?SYMB   '',$,96,672
               R  3989           ?SYMB   'R14R15',$,100,4
                  3990   ; smspdu.c  603                 TempContext[j] = TempVal;
                  3991           ?LINE   603
1046 F01C         3992           MOV     R1,R12
1048 F0C9         3993           MOV     R12,R9
               R  3994           ?SYMB   '',$,102,2
104A 00C0         3995           ADD     R12,R0
104C B92C         3996           MOVB    [R12],RL1
                  3997           ?LINE   598
104E 0882         3998           ADD     R8,#02h
               R  3999           ?SYMB   '',$,102,6
               R  4000           ?SYMB   'R8',$,100,6
1050 0891         4001           ADD     R9,#01h
               R  4002           ?SYMB   '',$,102,5
               R  4003           ?SYMB   'R9',$,100,5
1052              4004   _254:
1052 F0CE         4005           MOV     R12,R14
1054 F0DF         4006           MOV     R13,R15
1056 00C8         4007           ADD     R12,R8
1058 DC4D         4008           EXTP    R13,#01h
105A A92C     1   4009           MOVB    RL1,[R12]
105C 3DC4         4010           JMPR    cc_NZ,_253
                  4011   ; smspdu.c  604         }
                  4012   ; smspdu.c  605         TempContext[j] = 0;             // Double '\0'
                  4013           ?LINE   605
105E E102         4014           MOVB    RL1,#00h
1060 F089         4015           MOV     R8,R9
               R  4016           ?SYMB   '',$,102,6
1062 0080         4017           ADD     R8,R0
1064 B928         4018           MOVB    [R8],RL1
                  4019   ; smspdu.c  606         TempContext[j+1] = 0;
                  4020           ?LINE   606
1066 0090         4021           ADD     R9,R0
               R  4022           ?SYMB   '',$,102,5
1068 E4290100     4023           MOVB    [R9+#01H],RL1
                  4024   ; smspdu.c  607         memcpy( pDesStr, TempContext, BufLen );
                  4025           ?LINE   607
106C D480A002     4026           MOV     R8,[R0+#02A0H]
1070 8880         4027           MOV     [-R0],R8
               R  4028           ?SYMB   '',$,96,674
1072 F0C6         4029           MOV     R12,R6
1074 F0D7         4030           MOV     R13,R7
1076 E02E         4031           MOV     R14,#02h
               R  4032           ?SYMB   '',$,102,4
1078 00E0         4033           ADD     R14,R0
107A 66FEFF3F     4034           AND     R14,#03FFFh
107E F2FF02FE     4035           MOV     R15,DPP1
1082 DA000000  R  4036           CALLS   SEG _memcpy,_memcpy
               R  4037           ?SYMB   '',$,102,3
1086 0802         4038           ADD     R0,#02h
               R  4039           ?SYMB   '',$,96,672
                  4040   ; smspdu.c  608         return 0;
                  4041           ?LINE   608
1088 E004         4042           MOV     R4,#00h
               R  4043           ?SYMB   '',$,102,7
               R  4044           ?SYMB   '',$,102,8
                  4045   ; smspdu.c  609 }
                  4046           ?LINE   609
108A 06F09802     4047           ADD     R0,#0298h
               R  4048           ?SYMB   '',$,96,8
108E 9860         4049           MOV     R6,[R0+]
               R  4050           ?SYMB   '',$,96,6
1090 9870         4051           MOV     R7,[R0+]
               R  4052           ?SYMB   '',$,96,4
1092 9880         4053           MOV     R8,[R0+]
               R  4054           ?SYMB   '',$,96,2
1094 9890         4055           MOV     R9,[R0+]
               R  4056           ?SYMB   '',$,96,0
1096 DB00         4057           RETS
                  4058   _Analyse_PDUCode2WideChar       ENDP
               R  4059           ?SYMB   '',$,17,609
                  4060   ; smspdu.c  610 
                  4061   ; smspdu.c  611 /*********************************************************************\ 
                  4062   ; smspdu.c  612 * Function
                  4063   ; smspdu.c  613 * Purpose
                  4064   ; smspdu.c  614 * Params
                  4065   ; smspdu.c  615 * Return
                  4066   ; smspdu.c  616 * Remarks
                  4067   ; smspdu.c  617 **********************************************************************/
                  4068   ; smspdu.c  618 int String2BinStr(char *pSrcStr, char *pDstStr)
                  4069   ; smspdu.c  619 {
                  4070           ?LINE   619
                  4071           PUBLIC  _String2BinStr
               R  4072           ?SYMB   'String2BinStr',_String2BinStr,37,16
                  4073           ?SYMB   '',619,8,34
                  4074   SMSPDU_1_PR     ENDS
                  4075   
                  4076   SMSPDU_3_PR     SECTION CODE WORD PUBLIC 'CPROGRAM'
                  4077   _String2BinStr  PROC    FAR
                  4078           ?SYMB   '',0340H,95,0
0000 8890         4079           MOV     [-R0],R9
               R  4080           ?SYMB   '',$,96,2
0002 8880         4081           MOV     [-R0],R8
               R  4082           ?SYMB   '',$,96,4
0004 8860         4083           MOV     [-R0],R6
               R  4084           ?SYMB   '',$,96,6
0006 F06D         4085           MOV     R6,R13
0008 F09C         4086           MOV     R9,R12
                  4087   ; Locals:
                  4088   ; 
                  4089   ; Statics:
                  4090   ; 
                  4091   ; CSEs:
                  4092   ;     i = R12
                  4093   ;     str_len = R8
                  4094   ;     pSrcStr = R9R6
                  4095   ;     pDstStr = R14R15
                  4096   ; 
                  4097           ?SYMB   'pSrcStr',4,99,263
                  4098           ?SYMB   'pDstStr',1,99,263
                  4099           ?SYMB   'i',2,98,16
                  4100           ?SYMB   'str_len',3,98,16
               R  4101           ?SYMB   'R9R6',$,100,4
               R  4102           ?SYMB   'R14R15',$,100,1
                  4103   ; smspdu.c  620         int i, str_len;
                  4104   ; smspdu.c  621         str_len = strlen(pSrcStr);
                  4105           ?LINE   621
000A 88E0         4106           MOV     [-R0],R14
               R  4107           ?SYMB   '',$,96,8
000C 88F0         4108           MOV     [-R0],R15
               R  4109           ?SYMB   '',$,96,10
000E F0C9         4110           MOV     R12,R9
0010 F0D6         4111           MOV     R13,R6
0012 DA000000  R  4112           CALLS   SEG _strlen,_strlen
               R  4113           ?SYMB   '',$,102,1
0016 F084         4114           MOV     R8,R4
               R  4115           ?SYMB   'R8',$,100,3
0018 98F0         4116           MOV     R15,[R0+]
               R  4117           ?SYMB   '',$,96,8
001A 98E0         4118           MOV     R14,[R0+]
               R  4119           ?SYMB   '',$,96,6
               R  4120           ?SYMB   'R14R15',$,100,1
                  4121   ; smspdu.c  622 
                  4122   ; smspdu.c  623         for(i=0;i<str_len;i+=2)
                  4123           ?LINE   623
001C E00C         4124           MOV     R12,#00h
               R  4125           ?SYMB   'R12',$,100,2
001E 0D16         4126           JMPR    cc_UC,_256
0020              4127   _255:
                  4128   ; smspdu.c  624         {
                  4129   ; smspdu.c  625                 pDstStr[i/2] = HexStr2BYTE(pSrcStr+i);
                  4130           ?LINE   625
0020 88F0         4131           MOV     [-R0],R15
               R  4132           ?SYMB   '',$,96,8
0022 88E0         4133           MOV     [-R0],R14
               R  4134           ?SYMB   '',$,96,10
0024 88C0         4135           MOV     [-R0],R12
               R  4136           ?SYMB   '',$,96,12
0026 F0C9         4137           MOV     R12,R9
               R  4138           ?SYMB   '',$,102,2
0028 F0D6         4139           MOV     R13,R6
002A A810         4140           MOV     R1,[R0]
002C 00C1         4141           ADD     R12,R1
002E DA00F000  R  4142           CALLS   SEG _HexStr2BYTE,_HexStr2BYTE
               R  4143           ?SYMB   '',$,102,1
0032 A8C0         4144           MOV     R12,[R0]
0034 7C1C         4145           SHR     R12,#01h
0036 D4E00200     4146           MOV     R14,[R0+#02H]
003A D4F00400     4147           MOV     R15,[R0+#04H]
003E 00EC         4148           ADD     R14,R12
0040 DC4F         4149           EXTP    R15,#01h
0042 B98E     1   4150           MOVB    [R14],RL4
0044 98C0         4151           MOV     R12,[R0+]
               R  4152           ?SYMB   '',$,96,10
               R  4153           ?SYMB   'R12',$,100,2
0046 98E0         4154           MOV     R14,[R0+]
               R  4155           ?SYMB   '',$,96,8
0048 98F0         4156           MOV     R15,[R0+]
               R  4157           ?SYMB   '',$,96,6
               R  4158           ?SYMB   'R14R15',$,100,1
                  4159           ?LINE   623
004A 08C2         4160           ADD     R12,#02h
               R  4161           ?SYMB   '',$,102,2
               R  4162           ?SYMB   'R12',$,100,2
004C              4163   _256:
004C 40C8         4164           CMP     R12,R8
004E CDE8         4165           JMPR    cc_SLT,_255
                  4166   ; smspdu.c  626         }
                  4167   ; smspdu.c  627         pDstStr[i/2]=0;
                  4168           ?LINE   627
0050 E10C         4169           MOVB    RL6,#00h
               R  4170           ?SYMB   '',$,102,4
0052 7C1C         4171           SHR     R12,#01h
               R  4172           ?SYMB   '',$,102,2
0054 00EC         4173           ADD     R14,R12
               R  4174           ?SYMB   '',$,102,1
0056 DC4F         4175           EXTP    R15,#01h
0058 B9CE     1   4176           MOVB    [R14],RL6
                  4177   ; smspdu.c  628 
                  4178   ; smspdu.c  629         return 0;
                  4179           ?LINE   629
005A E004         4180           MOV     R4,#00h
                  4181   ; smspdu.c  630 }
                  4182           ?LINE   630
005C 9860         4183           MOV     R6,[R0+]
               R  4184           ?SYMB   '',$,96,4
005E 9880         4185           MOV     R8,[R0+]
               R  4186           ?SYMB   '',$,102,3
               R  4187           ?SYMB   '',$,96,2
0060 9890         4188           MOV     R9,[R0+]
               R  4189           ?SYMB   '',$,96,0
0062 DB00         4190           RETS
                  4191   _String2BinStr  ENDP
               R  4192           ?SYMB   '',$,17,630
                  4193   ; smspdu.c  631 
                  4194   ; smspdu.c  632 /*********************************************************************\ 
                  4195   ; smspdu.c  633 * Function         
                  4196   ; smspdu.c  634 * Purpose    0255PDU  
                  4197   ; smspdu.c  635 * Params           
                  4198   ; smspdu.c  636 * Return                   
                  4199   ; smspdu.c  637 * Remarks          
                  4200   ; smspdu.c  638 **********************************************************************/
                  4201   ; smspdu.c  639 int DecNum2HexStr(int vp, char* vpstr)
                  4202   ; smspdu.c  640 {
                  4203           ?LINE   640
                  4204           PUBLIC  _DecNum2HexStr
               R  4205           ?SYMB   'DecNum2HexStr',_DecNum2HexStr,37,16
                  4206           ?SYMB   '',640,8,34
                  4207   _DecNum2HexStr  PROC    FAR
                  4208           ?SYMB   '',00H,95,0
                  4209   ; Locals:
                  4210   ; 
                  4211   ; Statics:
                  4212   ; 
                  4213   ; CSEs:
                  4214   ;     quot = R15
                  4215   ;     rem = R12
                  4216   ;     vpstr = R13R14
                  4217   ;     vp = R12
                  4218   ; 
                  4219           ?SYMB   'vp',4,99,16
                  4220           ?SYMB   'vpstr',1,99,263
                  4221           ?SYMB   'quot',3,98,16
                  4222           ?SYMB   'rem',2,98,16
               R  4223           ?SYMB   'R12',$,100,4
               R  4224           ?SYMB   'R13R14',$,100,1
                  4225   ; smspdu.c  641         int quot,rem;
                  4226   ; smspdu.c  642         quot = vp/16;
                  4227           ?LINE   642
0064 F0FC         4228           MOV     R15,R12
0066 F01F         4229           MOV     R1,R15
0068 BC3F         4230           ASHR    R15,#03h
006A 7CCF         4231           SHR     R15,#0Ch
006C 00F1         4232           ADD     R15,R1
006E BC4F         4233           ASHR    R15,#04h
               R  4234           ?SYMB   'R15',$,100,3
                  4235   ; smspdu.c  643         rem = vp%16;
                  4236           ?LINE   643
0070 F01C         4237           MOV     R1,R12
0072 BC31         4238           ASHR    R1,#03h
0074 7CC1         4239           SHR     R1,#0Ch
0076 001C         4240           ADD     R1,R12
0078 66F1F0FF     4241           AND     R1,#0FFF0h
007C 8110         4242           NEG     R1
007E 001C         4243           ADD     R1,R12
0080 F0C1         4244           MOV     R12,R1
               R  4245           ?SYMB   '',$,102,4
               R  4246           ?SYMB   'R12',$,100,2
                  4247   ; smspdu.c  644 
                  4248   ; smspdu.c  645         if(quot>=0 && quot<=9)
                  4249           ?LINE   645
0082 48F0         4250           CMP     R15,#00h
0084 CD09         4251           JMPR    cc_SLT,_270
0086 46FF0900     4252           CMP     R15,#09h
008A AD06         4253           JMPR    cc_SGT,_270
                  4254   ; smspdu.c  646                 vpstr[0] = quot+'0';
                  4255           ?LINE   646
008C 06FF3000     4256           ADD     R15,#030h
               R  4257           ?SYMB   '',$,102,3
0090 F01F         4258           MOV     R1,R15
0092 DC4E         4259           EXTP    R14,#01h
0094 B92D     1   4260           MOVB    [R13],RL1
0096 0D0B         4261           JMPR    cc_UC,_271
0098              4262   _270:
               R  4263           ?SYMB   'R15',$,100,3
                  4264   ; smspdu.c  647         else if(quot>=10 && quot<=15)
                  4265           ?LINE   647
0098 46FF0A00     4266           CMP     R15,#0Ah
009C CD1A         4267           JMPR    cc_SLT,_276
009E 46FF0F00     4268           CMP     R15,#0Fh
00A2 AD17         4269           JMPR    cc_SGT,_276
                  4270   ; smspdu.c  648                 vpstr[0] = quot+'A'-10;
                  4271           ?LINE   648
00A4 06FF3700     4272           ADD     R15,#037h
               R  4273           ?SYMB   '',$,102,3
00A8 F01F         4274           MOV     R1,R15
00AA DC4E         4275           EXTP    R14,#01h
00AC B92D     1   4276           MOVB    [R13],RL1
                  4277   ; smspdu.c  649         else 
                  4278   ; smspdu.c  650                 return -1;
                  4279           ?LINE   650
00AE              4280   _271:
                  4281   ; smspdu.c  651         
                  4282   ; smspdu.c  652         if(rem>=0 && rem<=9)
                  4283           ?LINE   652
00AE 48C0         4284           CMP     R12,#00h
00B0 CD0A         4285           JMPR    cc_SLT,_273
00B2 46FC0900     4286           CMP     R12,#09h
00B6 AD07         4287           JMPR    cc_SGT,_273
                  4288   ; smspdu.c  653                 vpstr[1] = rem+'0';
                  4289           ?LINE   653
00B8 06FC3000     4290           ADD     R12,#030h
               R  4291           ?SYMB   '',$,102,2
00BC F01C         4292           MOV     R1,R12
00BE DC4E         4293           EXTP    R14,#01h
00C0 E42D0100 1   4294           MOVB    [R13+#01H],RL1
00C4 0D0F         4295           JMPR    cc_UC,_278
00C6              4296   _273:
               R  4297           ?SYMB   'R12',$,100,2
                  4298   ; smspdu.c  654         else if(rem>=10 && rem<=15)
                  4299           ?LINE   654
00C6 46FC0A00     4300           CMP     R12,#0Ah
00CA CD03         4301           JMPR    cc_SLT,_276
00CC 46FC0F00     4302           CMP     R12,#0Fh
00D0 BD03         4303           JMPR    cc_SLE,_277
                  4304   ; smspdu.c  655                 vpstr[1] = rem+'A'-10;
                  4305           ?LINE   655
00D2              4306   _276:
               R  4307           ?SYMB   '',$,102,1
               R  4308           ?SYMB   '',$,102,2
                  4309   ; smspdu.c  656         else 
                  4310   ; smspdu.c  657                 return -1;
                  4311           ?LINE   657
00D2 E6F4FFFF     4312           MOV     R4,#0FFFFh
00D6 DB00         4313           RETS
                  4314           ?LINE   655
00D8              4315   _277:
               R  4316           ?SYMB   'R12',$,100,2
               R  4317           ?SYMB   'R13R14',$,100,1
00D8 06FC3700     4318           ADD     R12,#037h
               R  4319           ?SYMB   '',$,102,2
00DC F01C         4320           MOV     R1,R12
00DE DC4E         4321           EXTP    R14,#01h
00E0 E42D0100 1   4322           MOVB    [R13+#01H],RL1
                  4323           ?LINE   657
00E4              4324   _278:
                  4325   ; smspdu.c  658         
                  4326   ; smspdu.c  659         vpstr[2] = '\0';
                  4327           ?LINE   659
00E4 E102         4328           MOVB    RL1,#00h
00E6 DC4E         4329           EXTP    R14,#01h
00E8 E42D0200 1   4330           MOVB    [R13+#02H],RL1
                  4331   ; smspdu.c  660         return 0;
                  4332           ?LINE   660
00EC E004         4333           MOV     R4,#00h
                  4334   ; smspdu.c  661 }
                  4335           ?LINE   661
00EE              4336   _279:
               R  4337           ?SYMB   '',$,102,1
00EE DB00         4338           RETS
                  4339   _DecNum2HexStr  ENDP
               R  4340           ?SYMB   '',$,17,661
                  4341   ; smspdu.c  662 
                  4342   ; smspdu.c  663 /*------------------------------------------------------------
                  4343   ; smspdu.c  664  *
                  4344   ; smspdu.c  665  * Usage: decode a Hex value: char *str("1C")-> return BYTE=0X1C
                  4345   ; smspdu.c  666  * rule: str lenght =2
                  4346   ; smspdu.c  667  * example: String2BinStr()
                  4347   ; smspdu.c  668  *
                  4348   ; smspdu.c  669  *-------------------------------------------------------*/
                  4349   ; smspdu.c  670 
                  4350   ; smspdu.c  671 /*********************************************************************\ 
                  4351   ; smspdu.c  672 * Function         
                  4352   ; smspdu.c  673 * Purpose      
                  4353   ; smspdu.c  674 * Params           
                  4354   ; smspdu.c  675 * Return                   
                  4355   ; smspdu.c  676 * Remarks          
                  4356   ; smspdu.c  677 **********************************************************************/
                  4357   ; smspdu.c  678 BYTE HexStr2BYTE(char *str)
                  4358   ; smspdu.c  679 {
                  4359           ?LINE   679
                  4360           PUBLIC  _HexStr2BYTE
               R  4361           ?SYMB   'HexStr2BYTE',_HexStr2BYTE,37,266
                  4362           ?SYMB   '',679,8,34
                  4363   _HexStr2BYTE    PROC    FAR
                  4364           ?SYMB   '',00H,95,0
                  4365   ; Locals:
                  4366   ; 
                  4367   ; Statics:
                  4368   ; 
                  4369   ; CSEs:
                  4370   ;     ch = RL1
                  4371   ;     b1 = RL2
                  4372   ;     code = RL3
                  4373   ;     str = R12R13
                  4374   ; 
                  4375           ?SYMB   'str',3,99,263
                  4376           ?SYMB   'b1',4,98,266
               R  4377           ?SYMB   'R12R13',$,100,3
                  4378   ; smspdu.c  680         BYTE    b1='0', ch;
                  4379           ?LINE   680
00F0 E7F43000     4380           MOVB    RL2,#030h
               R  4381           ?SYMB   'RL2',$,100,4
                  4382           ?SYMB   'ch',2,98,266
                  4383           ?SYMB   'code',1,98,266
                  4384   ; smspdu.c  681         BYTE    code;
                  4385   ; smspdu.c  682         
                  4386   ; smspdu.c  683         ch = str[0];
                  4387           ?LINE   683
00F4 DC4D         4388           EXTP    R13,#01h
00F6 A92C     1   4389           MOVB    RL1,[R12]
               R  4390           ?SYMB   'RL1',$,100,2
                  4391   ; smspdu.c  684                 
                  4392   ; smspdu.c  685         if(ch>='A' && ch<='F')
                  4393           ?LINE   685
00F8 47F24100     4394           CMPB    RL1,#041h
00FC 8D06         4395           JMPR    cc_ULT,_281
00FE 47F24600     4396           CMPB    RL1,#046h
0102 ED03         4397           JMPR    cc_UGT,_281
                  4398   ; smspdu.c  686         {
                  4399   ; smspdu.c  687                 b1=ch-'A'+10;
                  4400           ?LINE   687
0104 F142         4401           MOVB    RL2,RL1
               R  4402           ?SYMB   '',$,102,4
0106 27F43700     4403           SUBB    RL2,#037h
               R  4404           ?SYMB   'RL2',$,100,4
                  4405   ; smspdu.c  688         }
                  4406           ?LINE   688
010A              4407   _281:
                  4408   ; smspdu.c  689         if(ch>='a' && ch<='f')
                  4409           ?LINE   689
010A 47F26100     4410           CMPB    RL1,#061h
010E 8D06         4411           JMPR    cc_ULT,_283
0110 47F26600     4412           CMPB    RL1,#066h
0114 ED03         4413           JMPR    cc_UGT,_283
                  4414   ; smspdu.c  690         {
                  4415   ; smspdu.c  691                 b1=ch-'a'+10;
                  4416           ?LINE   691
0116 F142         4417           MOVB    RL2,RL1
               R  4418           ?SYMB   '',$,102,4
0118 27F45700     4419           SUBB    RL2,#057h
               R  4420           ?SYMB   'RL2',$,100,4
                  4421   ; smspdu.c  692         }
                  4422           ?LINE   692
011C              4423   _283:
                  4424   ; smspdu.c  693         if(ch>='0' && ch<='9')
                  4425           ?LINE   693
011C 47F23000     4426           CMPB    RL1,#030h
0120 8D06         4427           JMPR    cc_ULT,_285
0122 47F23900     4428           CMPB    RL1,#039h
0126 ED03         4429           JMPR    cc_UGT,_285
                  4430   ; smspdu.c  694         {
                  4431   ; smspdu.c  695                 b1=ch-'0';
                  4432           ?LINE   695
0128 F142         4433           MOVB    RL2,RL1
               R  4434           ?SYMB   '',$,102,4
012A 27F43000     4435           SUBB    RL2,#030h
               R  4436           ?SYMB   'RL2',$,100,4
                  4437   ; smspdu.c  696         }
                  4438           ?LINE   696
012E              4439   _285:
               R  4440           ?SYMB   '',$,102,2
                  4441   ; smspdu.c  697 
                  4442   ; smspdu.c  698         code = (b1<<4);
                  4443           ?LINE   698
012E C043         4444           MOVBZ   R3,RL2
0130 5C43         4445           SHL     R3,#04h
               R  4446           ?SYMB   'RL3',$,100,1
                  4447   ; smspdu.c  699 
                  4448   ; smspdu.c  700         ch = str[1];
                  4449           ?LINE   700
0132 DC4D         4450           EXTP    R13,#01h
0134 F42C0100 1   4451           MOVB    RL1,[R12+#01H]
               R  4452           ?SYMB   'RL1',$,100,2
                  4453   ; smspdu.c  701         
                  4454   ; smspdu.c  702         if(ch>='A' && ch<='F')
                  4455           ?LINE   702
0138 47F24100     4456           CMPB    RL1,#041h
013C 8D06         4457           JMPR    cc_ULT,_287
013E 47F24600     4458           CMPB    RL1,#046h
0142 ED03         4459           JMPR    cc_UGT,_287
                  4460   ; smspdu.c  703         {
                  4461   ; smspdu.c  704                 b1=ch-'A'+10;
                  4462           ?LINE   704
0144 F142         4463           MOVB    RL2,RL1
               R  4464           ?SYMB   '',$,102,4
0146 27F43700     4465           SUBB    RL2,#037h
               R  4466           ?SYMB   'RL2',$,100,4
                  4467   ; smspdu.c  705         }
                  4468           ?LINE   705
014A              4469   _287:
               R  4470           ?SYMB   '',$,102,3
                  4471   ; smspdu.c  706         if(ch>='a' && ch<='f')
                  4472           ?LINE   706
014A 47F26100     4473           CMPB    RL1,#061h
014E 8D06         4474           JMPR    cc_ULT,_289
0150 47F26600     4475           CMPB    RL1,#066h
0154 ED03         4476           JMPR    cc_UGT,_289
                  4477   ; smspdu.c  707         {
                  4478   ; smspdu.c  708                 b1=ch-'a'+10;
                  4479           ?LINE   708
0156 F142         4480           MOVB    RL2,RL1
               R  4481           ?SYMB   '',$,102,4
0158 27F45700     4482           SUBB    RL2,#057h
               R  4483           ?SYMB   'RL2',$,100,4
                  4484   ; smspdu.c  709         }
                  4485           ?LINE   709
015C              4486   _289:
                  4487   ; smspdu.c  710         if(ch>='0' && ch<='9')
                  4488           ?LINE   710
015C 47F23000     4489           CMPB    RL1,#030h
0160 8D06         4490           JMPR    cc_ULT,_291
0162 47F23900     4491           CMPB    RL1,#039h
0166 ED03         4492           JMPR    cc_UGT,_291
                  4493   ; smspdu.c  711         {
                  4494   ; smspdu.c  712                 b1=ch-'0';
                  4495           ?LINE   712
0168 F142         4496           MOVB    RL2,RL1
               R  4497           ?SYMB   '',$,102,4
016A 27F43000     4498           SUBB    RL2,#030h
               R  4499           ?SYMB   'RL2',$,100,4
                  4500   ; smspdu.c  713         }
                  4501           ?LINE   713
016E              4502   _291:
               R  4503           ?SYMB   '',$,102,2
                  4504   ; smspdu.c  714         code += b1;
                  4505           ?LINE   714
016E 0164         4506           ADDB    RL3,RL2
               R  4507           ?SYMB   '',$,102,1
               R  4508           ?SYMB   'RL3',$,100,1
                  4509   ; smspdu.c  715                 
                  4510   ; smspdu.c  716 
                  4511   ; smspdu.c  717         return code;
                  4512           ?LINE   717
0170 F186         4513           MOVB    RL4,RL3
                  4514   ; smspdu.c  718         
                  4515   ; smspdu.c  719 }
                  4516           ?LINE   719
0172 DB00         4517           RETS
               R  4518           ?SYMB   '',$,102,4
               R  4519           ?SYMB   '',$,102,1
                  4520   _HexStr2BYTE    ENDP
               R  4521           ?SYMB   '',$,17,719
                  4522   ; smspdu.c  720 
                  4523   ; smspdu.c  721 /*********************************************************************\ 
                  4524   ; smspdu.c  722 * Function         
                  4525   ; smspdu.c  723 * Purpose      
                  4526   ; smspdu.c  724 * Params           
                  4527   ; smspdu.c  725 * Return                   
                  4528   ; smspdu.c  726 * Remarks          
                  4529   ; smspdu.c  727 **********************************************************************/
                  4530   ; smspdu.c  728 int GSMstr2ASCIIstr(char *pSrcStr, char *pDstStr)
                  4531   ; smspdu.c  729 {
                  4532           ?LINE   729
                  4533           PUBLIC  _GSMstr2ASCIIstr
               R  4534           ?SYMB   'GSMstr2ASCIIstr',_GSMstr2ASCIIstr,37,16
                  4535           ?SYMB   '',729,8,34
                  4536   _GSMstr2ASCIIstr        PROC    FAR
                  4537           ?SYMB   '',03c0H,95,0
0174 8890         4538           MOV     [-R0],R9
               R  4539           ?SYMB   '',$,96,2
0176 8880         4540           MOV     [-R0],R8
               R  4541           ?SYMB   '',$,96,4
0178 8870         4542           MOV     [-R0],R7
               R  4543           ?SYMB   '',$,96,6
017A 8860         4544           MOV     [-R0],R6
               R  4545           ?SYMB   '',$,96,8
017C 88F0         4546           MOV     [-R0],R15
               R  4547           ?SYMB   '',$,96,10
017E 88E0         4548           MOV     [-R0],R14
               R  4549           ?SYMB   '',$,96,12
0180 88D0         4550           MOV     [-R0],R13
               R  4551           ?SYMB   '',$,96,14
0182 88C0         4552           MOV     [-R0],R12
               R  4553           ?SYMB   '',$,96,16
0184 26F02400     4554           SUB     R0,#024h
               R  4555           ?SYMB   '',$,96,52
                  4556   ; Locals:
                  4557   ;     b = offset 0
                  4558   ; 
                  4559   ; Statics:
                  4560   ; 
                  4561   ; CSEs:
                  4562   ;     pHexStr + j * 8 = R1R2
                  4563   ;     i = R1
                  4564   ;     j = R8
                  4565   ;     B = R9R6
                  4566   ;     LopI = R7
                  4567   ;     A = R3R10
                  4568   ;     pHexStr = offset 32
                  4569   ;     ModI = R11
                  4570   ;     str_len = R8
                  4571   ;     pSrcStr = offset 36
                  4572   ;     pDstStr = offset 40
                  4573   ; 
                  4574           ?SYMB   'pSrcStr',10,99,263
                  4575           ?SYMB   'pDstStr',1,99,263
                  4576           ?SYMB   'b',11,98,574
               R  4577           ?SYMB   '-34',$,101,11
                  4578           ?SYMB   'A',3,98,271
                  4579           ?SYMB   'B',2,98,271
                  4580           ?SYMB   'i',4,98,16
                  4581           ?SYMB   'j',5,98,16
                  4582           ?SYMB   'str_len',9,98,16
                  4583           ?SYMB   'LopI',8,98,16
                  4584           ?SYMB   'ModI',7,98,16
                  4585           ?SYMB   'pHexStr',6,98,263
               R  4586           ?SYMB   '-10',$,101,10
               R  4587           ?SYMB   '-c',$,101,1
                  4588   ; smspdu.c  730         DWORD b[8], A, B;
                  4589   ; smspdu.c  731         int i,j, str_len, LopI, ModI;
                  4590   ; smspdu.c  732         char *pHexStr;
                  4591   ; smspdu.c  733 
                  4592   ; smspdu.c  734         str_len = strlen(pSrcStr);
                  4593           ?LINE   734
0188 DA000000  R  4594           CALLS   SEG _strlen,_strlen
018C F084         4595           MOV     R8,R4
               R  4596           ?SYMB   'R8',$,100,9
                  4597   ; smspdu.c  735         
                  4598   ; smspdu.c  736 
                  4599   ; smspdu.c  737         LopI= str_len/7;
                  4600           ?LINE   737
018E F078         4601           MOV     R7,R8
0190 E079         4602           MOV     R9,#07h
0192 F6F70EFE     4603           MOV     MDL,R7
0196 D110         4604           ATOMIC  #02h
0198 4B99     2   4605           DIV     R9
019A CC00     1   4606           NOP
019C F2F70EFE     4607           MOV     R7,MDL
               R  4608           ?SYMB   'R7',$,100,8
                  4609   ; smspdu.c  738 
                  4610   ; smspdu.c  739         ModI= str_len%7;
                  4611           ?LINE   739
01A0 F6F80EFE     4612           MOV     MDL,R8
01A4 D110         4613           ATOMIC  #02h
01A6 4B99     2   4614           DIV     R9
01A8 CC00     1   4615           NOP
01AA F2FB0CFE     4616           MOV     R11,MDH
               R  4617           ?SYMB   'R11',$,100,7
                  4618   ; smspdu.c  740         if(ModI)
                  4619           ?LINE   740
01AE 2D01         4620           JMPR    cc_Z,_302
                  4621   ; smspdu.c  741                 LopI++;
                  4622           ?LINE   741
01B0 0871         4623           ADD     R7,#01h
               R  4624           ?SYMB   '',$,102,8
               R  4625           ?SYMB   'R7',$,100,8
01B2              4626   _302:
               R  4627           ?SYMB   '',$,102,9
                  4628   ; smspdu.c  742 
                  4629   ; smspdu.c  743 #if defined VME_DEBUG
                  4630   ; smspdu.c  744     debugex_nonl( "\r\nGSMstr2ASCIIstr: malloc begin" );
                  4631           ?LINE   744
01B2 F08B         4632           MOV     R8,R11
01B4 E6FC0000  R  4633           MOV     R12,#POF _292
01B8 E6FD0000  R  4634           MOV     R13,#PAG _292
01BC DA000000  R  4635           CALLS   SEG _debugex_nonl,_debugex_nonl
               R  4636           ?SYMB   '',$,102,7
01C0 F0B8         4637           MOV     R11,R8
               R  4638           ?SYMB   'R11',$,100,7
                  4639   ; smspdu.c  745 #endif
                  4640   ; smspdu.c  746         pHexStr = (char *)malloc(LopI*8);
                  4641           ?LINE   746
01C2 F097         4642           MOV     R9,R7
01C4 5C39         4643           SHL     R9,#03h
01C6 F0C9         4644           MOV     R12,R9
01C8 F0DC         4645           MOV     R13,R12
01CA BCFD         4646           ASHR    R13,#0Fh
01CC DA000000  R  4647           CALLS   SEG _os_malloc,_os_malloc
               R  4648           ?SYMB   '',$,102,7
01D0 C4402000     4649           MOV     [R0+#020H],R4
01D4 C4502200     4650           MOV     [R0+#022H],R5
               R  4651           ?SYMB   '-14',$,101,6
01D8 F0B8         4652           MOV     R11,R8
               R  4653           ?SYMB   'R11',$,100,7
                  4654   ; smspdu.c  747 #if defined VME_DEBUG
                  4655   ; smspdu.c  748     debugex_nonl( "\r\nGSMstr2ASCIIstr: malloc end" );
                  4656           ?LINE   748
01DA E6FC0000  R  4657           MOV     R12,#POF _293
01DE E6FD0000  R  4658           MOV     R13,#PAG _293
01E2 DA000000  R  4659           CALLS   SEG _debugex_nonl,_debugex_nonl
               R  4660           ?SYMB   '',$,102,7
01E6 F0B8         4661           MOV     R11,R8
               R  4662           ?SYMB   'R11',$,100,7
                  4663   ; smspdu.c  749 #endif
                  4664   ; smspdu.c  750         
                  4665   ; smspdu.c  751         for(j=0; j<LopI; j++)
                  4666           ?LINE   751
01E8 E008         4667           MOV     R8,#00h
               R  4668           ?SYMB   'R8',$,100,5
01EA EA008A03  R  4669           JMPA    cc_UC,_309
01EE              4670   _303:
                  4671   ; smspdu.c  752         {
                  4672   ; smspdu.c  753                 A=B=0;
                  4673   ; smspdu.c  754                 for(i=0;i<7;i++)
                  4674           ?LINE   754
01EE E001         4675           MOV     R1,#00h
               R  4676           ?SYMB   'R1',$,100,4
01F0              4677   _304:
                  4678   ; smspdu.c  755                 {
                  4679   ; smspdu.c  756                         if(ModI && j==LopI-1 && i>= ModI)
                  4680           ?LINE   756
01F0 48B0         4681           CMP     R11,#00h
01F2 2D0F         4682           JMPR    cc_Z,_307
01F4 F097         4683           MOV     R9,R7
01F6 2891         4684           SUB     R9,#01h
01F8 4098         4685           CMP     R9,R8
01FA 3D0B         4686           JMPR    cc_NE,_307
01FC 401B         4687           CMP     R1,R11
01FE CD09         4688           JMPR    cc_SLT,_307
                  4689   ; smspdu.c  757                                 b[i]=0;
                  4690           ?LINE   757
0200 E009         4691           MOV     R9,#00h
0202 E006         4692           MOV     R6,#00h
0204 F0C1         4693           MOV     R12,R1
0206 5C2C         4694           SHL     R12,#02h
0208 00C0         4695           ADD     R12,R0
020A B89C         4696           MOV     [R12],R9
020C C46C0200     4697           MOV     [R12+#02H],R6
0210 0D13         4698           JMPR    cc_UC,_308
0212              4699   _307:
                  4700   ; smspdu.c  758                         else
                  4701   ; smspdu.c  759                                 b[i]=(BYTE)pSrcStr[7*j+i];
                  4702           ?LINE   759
0212 F098         4703           MOV     R9,R8
0214 5C39         4704           SHL     R9,#03h
0216 2098         4705           SUB     R9,R8
0218 0091         4706           ADD     R9,R1
021A D4602400     4707           MOV     R6,[R0+#024H]
021E D4C02600     4708           MOV     R12,[R0+#026H]
0222 0069         4709           ADD     R6,R9
0224 DC4C         4710           EXTP    R12,#01h
0226 A9C6     1   4711           MOVB    RL6,[R6]
0228 C0C6         4712           MOVBZ   R6,RL6
022A E009         4713           MOV     R9,#00h
022C F0D1         4714           MOV     R13,R1
022E 5C2D         4715           SHL     R13,#02h
0230 00D0         4716           ADD     R13,R0
0232 B86D         4717           MOV     [R13],R6
0234 C49D0200     4718           MOV     [R13+#02H],R9
0238              4719   _308:
               R  4720           ?SYMB   '',$,102,4
               R  4721           ?SYMB   'R1',$,100,4
                  4722           ?LINE   754
0238 8061         4723           CMPI1   R1,#06h
023A CDDA         4724           JMPR    cc_SLT,_304
                  4725   ; smspdu.c  760                 }
                  4726   ; smspdu.c  761                 
                  4727   ; smspdu.c  762                 A = b[0] + (b[1]<<8) + (b[2]<<16) + (b[3]<<24);
                  4728           ?LINE   762
023C A830         4729           MOV     R3,[R0]
023E D4A00200     4730           MOV     R10,[R0+#02H]
0242 D4900400     4731           MOV     R9,[R0+#04H]
0246 D4600600     4732           MOV     R6,[R0+#06H]
024A F0C9         4733           MOV     R12,R9
024C 5C89         4734           SHL     R9,#08h
024E 5C86         4735           SHL     R6,#08h
0250 7C8C         4736           SHR     R12,#08h
0252 706C         4737           OR      R6,R12
0254 0039         4738           ADD     R3,R9
0256 10A6         4739           ADDC    R10,R6
0258 D4900800     4740           MOV     R9,[R0+#08H]
025C D4600A00     4741           MOV     R6,[R0+#0AH]
0260 F069         4742           MOV     R6,R9
0262 E009         4743           MOV     R9,#00h
0264 0039         4744           ADD     R3,R9
0266 10A6         4745           ADDC    R10,R6
0268 D4C00C00     4746           MOV     R12,[R0+#0CH]
026C D4D00E00     4747           MOV     R13,[R0+#0EH]
0270 F0DC         4748           MOV     R13,R12
0272 5C8D         4749           SHL     R13,#08h
0274 E00C         4750           MOV     R12,#00h
0276 003C         4751           ADD     R3,R12
0278 10AD         4752           ADDC    R10,R13
               R  4753           ?SYMB   'R3R10',$,100,3
                  4754   ; smspdu.c  763                 B = b[3] + (b[4]<<8) + (b[5]<<16) + (b[6]<<24);
                  4755           ?LINE   763
027A D4900C00     4756           MOV     R9,[R0+#0CH]
027E D4600E00     4757           MOV     R6,[R0+#0EH]
0282 D4D01000     4758           MOV     R13,[R0+#010H]
0286 D4E01200     4759           MOV     R14,[R0+#012H]
028A F0FD         4760           MOV     R15,R13
028C 5C8D         4761           SHL     R13,#08h
028E 5C8E         4762           SHL     R14,#08h
0290 7C8F         4763           SHR     R15,#08h
0292 70EF         4764           OR      R14,R15
0294 009D         4765           ADD     R9,R13
0296 106E         4766           ADDC    R6,R14
0298 D4D01400     4767           MOV     R13,[R0+#014H]
029C D4E01600     4768           MOV     R14,[R0+#016H]
02A0 F0ED         4769           MOV     R14,R13
02A2 E00D         4770           MOV     R13,#00h
02A4 009D         4771           ADD     R9,R13
02A6 106E         4772           ADDC    R6,R14
02A8 D4F01800     4773           MOV     R15,[R0+#018H]
02AC D4101A00     4774           MOV     R1,[R0+#01AH]
               R  4775           ?SYMB   '',$,102,4
02B0 F01F         4776           MOV     R1,R15
02B2 5C81         4777           SHL     R1,#08h
02B4 E00F         4778           MOV     R15,#00h
02B6 009F         4779           ADD     R9,R15
02B8 1061         4780           ADDC    R6,R1
               R  4781           ?SYMB   'R9R6',$,100,2
                  4782   ; smspdu.c  764                 B = B>>4;
                  4783           ?LINE   764
02BA F016         4784           MOV     R1,R6
02BC 7C49         4785           SHR     R9,#04h
               R  4786           ?SYMB   '',$,102,2
02BE 7C46         4787           SHR     R6,#04h
02C0 5CC1         4788           SHL     R1,#0Ch
02C2 7091         4789           OR      R9,R1
               R  4790           ?SYMB   'R9R6',$,100,2
                  4791   ; smspdu.c  765 
                  4792   ; smspdu.c  766                 pHexStr[8*j]   = (char)(A&0x7F);
                  4793           ?LINE   766
02C4 E6F47F00     4794           MOV     R4,#07Fh
02C8 E005         4795           MOV     R5,#00h
02CA 6043         4796           AND     R4,R3
02CC 605A         4797           AND     R5,R10
02CE F018         4798           MOV     R1,R8
02D0 5C31         4799           SHL     R1,#03h
02D2 F051         4800           MOV     R5,R1
02D4 D4102000     4801           MOV     R1,[R0+#020H]
02D8 D4202200     4802           MOV     R2,[R0+#022H]
02DC 0015         4803           ADD     R1,R5
02DE DC42         4804           EXTP    R2,#01h
02E0 B981     1   4805           MOVB    [R1],RL4
                  4806   ; smspdu.c  767                 pHexStr[8*j+1] = (char)((A>>7 )&0x7F);
                  4807           ?LINE   767
02E2 F043         4808           MOV     R4,R3
02E4 F05A         4809           MOV     R5,R10
02E6 F0C5         4810           MOV     R12,R5
02E8 7C74         4811           SHR     R4,#07h
02EA 7C75         4812           SHR     R5,#07h
02EC 5C9C         4813           SHL     R12,#09h
02EE 704C         4814           OR      R4,R12
02F0 66F47F00     4815           AND     R4,#07Fh
02F4 6850         4816           AND     R5,#00h
02F6 DC42         4817           EXTP    R2,#01h
02F8 E4810100 1   4818           MOVB    [R1+#01H],RL4
                  4819   ; smspdu.c  768                 pHexStr[8*j+2] = (char)((A>>14)&0x7F);
                  4820           ?LINE   768
02FC F0C3         4821           MOV     R12,R3
02FE F04A         4822           MOV     R4,R10
0300 F054         4823           MOV     R5,R4
0302 7CEC         4824           SHR     R12,#0Eh
0304 7CE4         4825           SHR     R4,#0Eh
0306 5C25         4826           SHL     R5,#02h
0308 70C5         4827           OR      R12,R5
030A 66FC7F00     4828           AND     R12,#07Fh
030E 6840         4829           AND     R4,#00h
0310 F05C         4830           MOV     R5,R12
0312 DC42         4831           EXTP    R2,#01h
0314 E4A10200 1   4832           MOVB    [R1+#02H],RL5
                  4833   ; smspdu.c  769                 pHexStr[8*j+3] = (char)((A>>21)&0x7F);
                  4834           ?LINE   769
0318 F03A         4835           MOV     R3,R10
               R  4836           ?SYMB   '',$,102,3
031A 7C53         4837           SHR     R3,#05h
031C E00A         4838           MOV     R10,#00h
031E 66F37F00     4839           AND     R3,#07Fh
0322 68A0         4840           AND     R10,#00h
0324 DC42         4841           EXTP    R2,#01h
0326 E4610300 1   4842           MOVB    [R1+#03H],RL3
                  4843   ; smspdu.c  770                 pHexStr[8*j+4] = (char)(B&0x7F);
                  4844           ?LINE   770
032A E6FC7F00     4845           MOV     R12,#07Fh
032E E003         4846           MOV     R3,#00h
0330 60C9         4847           AND     R12,R9
0332 6036         4848           AND     R3,R6
0334 F04C         4849           MOV     R4,R12
0336 DC42         4850           EXTP    R2,#01h
0338 E4810400 1   4851           MOVB    [R1+#04H],RL4
                  4852   ; smspdu.c  771                 pHexStr[8*j+5] = (char)((B>>7 )&0x7F);
                  4853           ?LINE   771
033C F0C9         4854           MOV     R12,R9
033E F036         4855           MOV     R3,R6
0340 F043         4856           MOV     R4,R3
0342 7C7C         4857           SHR     R12,#07h
0344 7C73         4858           SHR     R3,#07h
0346 5C94         4859           SHL     R4,#09h
0348 70C4         4860           OR      R12,R4
034A 66FC7F00     4861           AND     R12,#07Fh
034E 6830         4862           AND     R3,#00h
0350 F04C         4863           MOV     R4,R12
0352 DC42         4864           EXTP    R2,#01h
0354 E4810500 1   4865           MOVB    [R1+#05H],RL4
                  4866   ; smspdu.c  772                 pHexStr[8*j+6] = (char)((B>>14)&0x7F);
                  4867           ?LINE   772
0358 F0C9         4868           MOV     R12,R9
035A F036         4869           MOV     R3,R6
035C F043         4870           MOV     R4,R3
035E 7CEC         4871           SHR     R12,#0Eh
0360 7CE3         4872           SHR     R3,#0Eh
0362 5C24         4873           SHL     R4,#02h
0364 70C4         4874           OR      R12,R4
0366 66FC7F00     4875           AND     R12,#07Fh
036A 6830         4876           AND     R3,#00h
036C F04C         4877           MOV     R4,R12
036E DC42         4878           EXTP    R2,#01h
0370 E4810600 1   4879           MOVB    [R1+#06H],RL4
                  4880   ; smspdu.c  773                 pHexStr[8*j+7] = (char)((B>>21)&0x7F);
                  4881           ?LINE   773
0374 F096         4882           MOV     R9,R6
               R  4883           ?SYMB   '',$,102,2
0376 7C59         4884           SHR     R9,#05h
0378 E006         4885           MOV     R6,#00h
037A 66F97F00     4886           AND     R9,#07Fh
037E 6860         4887           AND     R6,#00h
0380 F039         4888           MOV     R3,R9
0382 DC42         4889           EXTP    R2,#01h
0384 E4610700 1   4890           MOVB    [R1+#07H],RL3
                  4891           ?LINE   751
0388 0881         4892           ADD     R8,#01h
               R  4893           ?SYMB   '',$,102,5
               R  4894           ?SYMB   'R8',$,100,5
038A              4895   _309:
038A 4087         4896           CMP     R8,R7
038C EAC0EE01  R  4897           JMPA    cc_SLT,_303
               R  4898           ?SYMB   '',$,102,10
                  4899   ; smspdu.c  774         }
                  4900   ; smspdu.c  775         strcpy(pDstStr,pHexStr);
                  4901           ?LINE   775
0390 D4C02800     4902           MOV     R12,[R0+#028H]
0394 D4D02A00     4903           MOV     R13,[R0+#02AH]
0398 D4E02000     4904           MOV     R14,[R0+#020H]
039C D4F02200     4905           MOV     R15,[R0+#022H]
03A0 DA000000  R  4906           CALLS   SEG _strcpy,_strcpy
               R  4907           ?SYMB   '',$,102,8
               R  4908           ?SYMB   '',$,102,7
               R  4909           ?SYMB   '',$,102,5
                  4910   ; smspdu.c  776         free(pHexStr);
                  4911           ?LINE   776
03A4 D4C02000     4912           MOV     R12,[R0+#020H]
03A8 D4D02200     4913           MOV     R13,[R0+#022H]
03AC F08D         4914           MOV     R8,R13
03AE 5CE8         4915           SHL     R8,#0Eh
03B0 70C8         4916           OR      R12,R8
03B2 7C2D         4917           SHR     R13,#02h
03B4 DA000000  R  4918           CALLS   SEG _os_free,_os_free
                  4919   ; smspdu.c  777         return 0;
                  4920           ?LINE   777
03B8 E004         4921           MOV     R4,#00h
               R  4922           ?SYMB   '',$,102,11
                  4923   ; smspdu.c  778 }
                  4924           ?LINE   778
03BA 06F02C00     4925           ADD     R0,#02Ch
               R  4926           ?SYMB   '',$,96,8
03BE 9860         4927           MOV     R6,[R0+]
               R  4928           ?SYMB   '',$,96,6
03C0 9870         4929           MOV     R7,[R0+]
               R  4930           ?SYMB   '',$,96,4
03C2 9880         4931           MOV     R8,[R0+]
               R  4932           ?SYMB   '',$,96,2
03C4 9890         4933           MOV     R9,[R0+]
               R  4934           ?SYMB   '',$,96,0
03C6 DB00         4935           RETS
                  4936   _GSMstr2ASCIIstr        ENDP
               R  4937           ?SYMB   '',$,17,778
                  4938   ; smspdu.c  779 
                  4939   ; smspdu.c  780 
                  4940   ; smspdu.c  781 /*--------------------------------------------------------------------
                  4941   ; smspdu.c  782  *
                  4942   ; smspdu.c  783  * Usage: decode a length value: char *str("0A")-> return int=10
                  4943   ; smspdu.c  784  * rule: str lenght =2
                  4944   ; smspdu.c  785  * example:telephone length
                  4945   ; smspdu.c  786  *
                  4946   ; smspdu.c  787  *-----------------------------------------------------------------*/
                  4947   ; smspdu.c  788 
                  4948   ; smspdu.c  789 /*********************************************************************\ 
                  4949   ; smspdu.c  790 * Function         
                  4950   ; smspdu.c  791 * Purpose      
                  4951   ; smspdu.c  792 * Params           
                  4952   ; smspdu.c  793 * Return                   
                  4953   ; smspdu.c  794 * Remarks          
                  4954   ; smspdu.c  795 **********************************************************************/
                  4955   ; smspdu.c  796 int HexString2DWORD(char *str)
                  4956   ; smspdu.c  797 {
                  4957           ?LINE   797
                  4958           PUBLIC  _HexString2DWORD
               R  4959           ?SYMB   'HexString2DWORD',_HexString2DWORD,37,16
                  4960           ?SYMB   '',797,8,34
                  4961   _HexString2DWORD        PROC    FAR
                  4962           ?SYMB   '',040H,95,0
03C8 8860         4963           MOV     [-R0],R6
               R  4964           ?SYMB   '',$,96,2
                  4965   ; Locals:
                  4966   ; 
                  4967   ; Statics:
                  4968   ; 
                  4969   ; CSEs:
                  4970   ;     ch = RL1
                  4971   ;     i = R14
                  4972   ;     b1 = RL6
                  4973   ;     ret = R15
                  4974   ;     len = R14
                  4975   ;     len - 1 = R2
                  4976   ;     code = R1
                  4977   ;     str = R12R13
                  4978   ; 
                  4979           ?SYMB   'str',5,99,263
                  4980           ?SYMB   'b1',7,98,266
               R  4981           ?SYMB   'R12R13',$,100,5
                  4982   ; smspdu.c  798         BYTE    b1='0', ch;
                  4983           ?LINE   798
03CA E7FC3000     4984           MOVB    RL6,#030h
               R  4985           ?SYMB   'RL6',$,100,7
                  4986           ?SYMB   'ch',2,98,266
                  4987           ?SYMB   'i',3,98,16
                  4988           ?SYMB   'ret',6,98,16
                  4989           ?SYMB   'code',1,98,16
                  4990           ?SYMB   'len',4,98,16
                  4991   ; smspdu.c  799         int             i;
                  4992   ; smspdu.c  800         int             ret,code,len;
                  4993   ; smspdu.c  801         
                  4994   ; smspdu.c  802         ret = 0;
                  4995           ?LINE   802
03CE E00F         4996           MOV     R15,#00h
               R  4997           ?SYMB   'R15',$,100,6
                  4998   ; smspdu.c  803 
                  4999   ; smspdu.c  804         len = strlen(str);
                  5000           ?LINE   804
03D0 88C0         5001           MOV     [-R0],R12
               R  5002           ?SYMB   '',$,96,4
03D2 88D0         5003           MOV     [-R0],R13
               R  5004           ?SYMB   '',$,96,6
03D4 88F0         5005           MOV     [-R0],R15
               R  5006           ?SYMB   '',$,96,8
03D6 DA000000  R  5007           CALLS   SEG _strlen,_strlen
               R  5008           ?SYMB   '',$,102,5
               R  5009           ?SYMB   '',$,102,6
03DA F0E4         5010           MOV     R14,R4
               R  5011           ?SYMB   'R14',$,100,4
03DC 98F0         5012           MOV     R15,[R0+]
               R  5013           ?SYMB   '',$,96,6
               R  5014           ?SYMB   'R15',$,100,6
03DE 98D0         5015           MOV     R13,[R0+]
               R  5016           ?SYMB   '',$,96,4
03E0 98C0         5017           MOV     R12,[R0+]
               R  5018           ?SYMB   '',$,96,2
               R  5019           ?SYMB   'R12R13',$,100,5
                  5020   ; smspdu.c  805 
                  5021   ; smspdu.c  806         if(len>2)
                  5022           ?LINE   806
03E2 48E2         5023           CMP     R14,#02h
03E4 BD02         5024           JMPR    cc_SLE,_310
                  5025   ; smspdu.c  807                 return 0;
                  5026           ?LINE   807
03E6 E004         5027           MOV     R4,#00h
03E8 0D34         5028           JMPR    cc_UC,_321
03EA              5029   _310:
               R  5030           ?SYMB   '',$,102,7
               R  5031           ?SYMB   '',$,102,4
               R  5032           ?SYMB   '',$,102,6
               R  5033           ?SYMB   '',$,102,5
               R  5034           ?SYMB   'RL6',$,100,7
               R  5035           ?SYMB   'R15',$,100,6
               R  5036           ?SYMB   'R12R13',$,100,5
               R  5037           ?SYMB   'R14',$,100,4
                  5038   ; smspdu.c  808 
                  5039   ; smspdu.c  809         i=len-1;
                  5040           ?LINE   809
03EA F02E         5041           MOV     R2,R14
03EC 2821         5042           SUB     R2,#01h
03EE F0E2         5043           MOV     R14,R2
               R  5044           ?SYMB   '',$,102,4
               R  5045           ?SYMB   'R14',$,100,3
                  5046   ; smspdu.c  810         while(i>=0)
                  5047           ?LINE   810
03F0 0D2D         5048           JMPR    cc_UC,_318
03F2              5049   _311:
                  5050   ; smspdu.c  811         {
                  5051   ; smspdu.c  812                 ch = str[i];
                  5052           ?LINE   812
03F2 F03C         5053           MOV     R3,R12
03F4 F04D         5054           MOV     R4,R13
03F6 003E         5055           ADD     R3,R14
03F8 DC44         5056           EXTP    R4,#01h
03FA A923     1   5057           MOVB    RL1,[R3]
               R  5058           ?SYMB   'RL1',$,100,2
                  5059   ; smspdu.c  813                 if(ch=='x'||ch=='X')  // no use in this condition, just ensure
                  5060           ?LINE   813
03FC 47F27800     5061           CMPB    RL1,#078h
0400 2D27         5062           JMPR    cc_EQ,_320
0402 47F25800     5063           CMPB    RL1,#058h
0406 2D24         5064           JMPR    cc_EQ,_320
                  5065   ; smspdu.c  814                         break;
                  5066   ; smspdu.c  815 
                  5067   ; smspdu.c  816                 if(ch>='A' && ch<='F')
                  5068           ?LINE   816
0408 47F24100     5069           CMPB    RL1,#041h
040C 8D06         5070           JMPR    cc_ULT,_313
040E 47F24600     5071           CMPB    RL1,#046h
0412 ED03         5072           JMPR    cc_UGT,_313
                  5073   ; smspdu.c  817                 {
                  5074   ; smspdu.c  818                         b1=ch-'A'+10;
                  5075           ?LINE   818
0414 F1C2         5076           MOVB    RL6,RL1
               R  5077           ?SYMB   '',$,102,7
0416 27FC3700     5078           SUBB    RL6,#037h
               R  5079           ?SYMB   'RL6',$,100,7
                  5080   ; smspdu.c  819                 }
                  5081           ?LINE   819
041A              5082   _313:
                  5083   ; smspdu.c  820                 if(ch>='a' && ch<='f')
                  5084           ?LINE   820
041A 47F26100     5085           CMPB    RL1,#061h
041E 8D06         5086           JMPR    cc_ULT,_315
0420 47F26600     5087           CMPB    RL1,#066h
0424 ED03         5088           JMPR    cc_UGT,_315
                  5089   ; smspdu.c  821                 {
                  5090   ; smspdu.c  822                         b1=ch-'a'+10;
                  5091           ?LINE   822
0426 F1C2         5092           MOVB    RL6,RL1
               R  5093           ?SYMB   '',$,102,7
0428 27FC5700     5094           SUBB    RL6,#057h
               R  5095           ?SYMB   'RL6',$,100,7
                  5096   ; smspdu.c  823                 }
                  5097           ?LINE   823
042C              5098   _315:
                  5099   ; smspdu.c  824                 if(ch>='0' && ch<='9')
                  5100           ?LINE   824
042C 47F23000     5101           CMPB    RL1,#030h
0430 8D06         5102           JMPR    cc_ULT,_317
0432 47F23900     5103           CMPB    RL1,#039h
0436 ED03         5104           JMPR    cc_UGT,_317
                  5105   ; smspdu.c  825                 {
                  5106   ; smspdu.c  826                         b1=ch-'0';
                  5107           ?LINE   826
0438 F1C2         5108           MOVB    RL6,RL1
               R  5109           ?SYMB   '',$,102,7
043A 27FC3000     5110           SUBB    RL6,#030h
               R  5111           ?SYMB   'RL6',$,100,7
                  5112   ; smspdu.c  827                 }
                  5113           ?LINE   827
043E              5114   _317:
               R  5115           ?SYMB   '',$,102,2
                  5116   ; smspdu.c  828                 code = b1;
                  5117           ?LINE   828
043E C0C1         5118           MOVBZ   R1,RL6
               R  5119           ?SYMB   'R1',$,100,1
                  5120   ; smspdu.c  829                 ret+=code<<  ((len-1-i)*4);
                  5121           ?LINE   829
0440 F032         5122           MOV     R3,R2
0442 203E         5123           SUB     R3,R14
0444 5C23         5124           SHL     R3,#02h
0446 4C13         5125           SHL     R1,R3
               R  5126           ?SYMB   '',$,102,1
0448 00F1         5127           ADD     R15,R1
               R  5128           ?SYMB   '',$,102,6
               R  5129           ?SYMB   'R15',$,100,6
                  5130   ; smspdu.c  830                 i--;
                  5131           ?LINE   830
044A 28E1         5132           SUB     R14,#01h
               R  5133           ?SYMB   '',$,102,3
               R  5134           ?SYMB   'R14',$,100,3
                  5135           ?LINE   810
044C              5136   _318:
044C 48E0         5137           CMP     R14,#00h
044E DDD1         5138           JMPR    cc_SGE,_311
                  5139   ; smspdu.c  831         }
                  5140           ?LINE   831
0450              5141   _320:
               R  5142           ?SYMB   '',$,102,5
               R  5143           ?SYMB   '',$,102,7
               R  5144           ?SYMB   '',$,102,3
                  5145   ; smspdu.c  832         return ret;
                  5146           ?LINE   832
0450 F04F         5147           MOV     R4,R15
                  5148   ; smspdu.c  833         
                  5149   ; smspdu.c  834 }
                  5150           ?LINE   834
0452              5151   _321:
               R  5152           ?SYMB   '',$,102,6
0452 9860         5153           MOV     R6,[R0+]
               R  5154           ?SYMB   '',$,96,0
0454 DB00         5155           RETS
                  5156   _HexString2DWORD        ENDP
               R  5157           ?SYMB   '',$,17,834
                  5158   ; smspdu.c  835 
                  5159   ; smspdu.c  836 
                  5160   ; smspdu.c  837 /*--------------------------------------------------------
                  5161   ; smspdu.c  838  *
                  5162   ; smspdu.c  839  * Analyse telephone number decode/code
                  5163   ; smspdu.c  840  *
                  5164   ; smspdu.c  841  *------------------------------------------------------*/
                  5165   ; smspdu.c  842 
                  5166   ; smspdu.c  843 /*********************************************************************\ 
                  5167   ; smspdu.c  844 * Function         
                  5168   ; smspdu.c  845 * Purpose      
                  5169   ; smspdu.c  846 * Params           
                  5170   ; smspdu.c  847 * Return                   
                  5171   ; smspdu.c  848 * Remarks          
                  5172   ; smspdu.c  849 **********************************************************************/
                  5173   ; smspdu.c  850 int     Analyse_PhoneNum( char *pContext, char *pPDUStr, int type )
                  5174   ; smspdu.c  851 {
                  5175           ?LINE   851
                  5176           PUBLIC  _Analyse_PhoneNum
               R  5177           ?SYMB   'Analyse_PhoneNum',_Analyse_PhoneNum,37,16
                  5178           ?SYMB   '',851,8,34
                  5179   _Analyse_PhoneNum       PROC    FAR
                  5180           ?SYMB   '',00H,95,0
                  5181   ; Locals:
                  5182   ; 
                  5183   ; Statics:
                  5184   ; 
                  5185   ; CSEs:
                  5186   ;     i = R1
                  5187   ;     pPDUStr = R14R15
                  5188   ;     pContext = R12R13
                  5189   ;     pContext + i = R2R3
                  5190   ;     pContext + 1 + i = R2R3
                  5191   ;     pPDUStr + i = R2R3
                  5192   ;     pPDUStr + 1 + i = R10R11
                  5193   ;     pContext - 1 = R10R11
                  5194   ;     type = offset 0
                  5195   ; 
                  5196           ?SYMB   'pContext',2,99,263
                  5197           ?SYMB   'pPDUStr',1,99,263
                  5198           ?SYMB   'type',4,99,16
                  5199           ?SYMB   'i',3,98,16
               R  5200           ?SYMB   '0',$,101,4
               R  5201           ?SYMB   'R12R13',$,100,2
               R  5202           ?SYMB   'R14R15',$,100,1
                  5203   ; smspdu.c  852         int i;
                  5204   ; smspdu.c  853         switch( type )
                  5205           ?LINE   853
0456 A810         5206           MOV     R1,[R0]
0458 2D05         5207           JMPR    cc_EQ,_322
045A 4811         5208           CMP     R1,#01h
045C EA20E005  R  5209           JMPA    cc_EQ,_346
0460 EA005C07  R  5210           JMPA    cc_UC,_373
                  5211   ; smspdu.c  854         {
                  5212   ; smspdu.c  855         case ANALYSE_CODE:              //pContext->pPDUStr
                  5213           ?LINE   855
0464              5214   _322:
                  5215   ; smspdu.c  856                 for( i=0; ;i+=2 )
                  5216           ?LINE   856
0464 E001         5217           MOV     R1,#00h
               R  5218           ?SYMB   'R1',$,100,3
0466              5219   _323:
                  5220   ; smspdu.c  857                 {
                  5221   ; smspdu.c  858                         if( pContext[i] == 0 )
                  5222           ?LINE   858
0466 F02C         5223           MOV     R2,R12
0468 F03D         5224           MOV     R3,R13
046A 0021         5225           ADD     R2,R1
046C DC43         5226           EXTP    R3,#01h
046E A982     1   5227           MOVB    RL4,[R2]
0470 EA20D405  R  5228           JMPA    cc_Z,_345
                  5229   ; smspdu.c  859                         {
                  5230   ; smspdu.c  860                                 pPDUStr[i]=0;
                  5231   ; smspdu.c  861                                 break;
                  5232   ; smspdu.c  862                         }
                  5233   ; smspdu.c  863                         if ( pContext[i] == '*' )
                  5234           ?LINE   863
0474 DC43         5235           EXTP    R3,#01h
0476 A982     1   5236           MOVB    RL4,[R2]
0478 47F82A00     5237           CMPB    RL4,#02Ah
047C 3D0A         5238           JMPR    cc_NE,_324
                  5239   ; smspdu.c  864                                 pPDUStr[i+1] = 'A';
                  5240           ?LINE   864
047E E7F44100     5241           MOVB    RL2,#041h
0482 F03E         5242           MOV     R3,R14
0484 F04F         5243           MOV     R4,R15
0486 0831         5244           ADD     R3,#01h
0488 0031         5245           ADD     R3,R1
048A DC44         5246           EXTP    R4,#01h
048C B943     1   5247           MOVB    [R3],RL2
048E EA001205  R  5248           JMPA    cc_UC,_333
0492              5249   _324:
                  5250   ; smspdu.c  865                         else if ( pContext[i] == '#' )
                  5251           ?LINE   865
0492 DC43         5252           EXTP    R3,#01h
0494 A982     1   5253           MOVB    RL4,[R2]
0496 47F82300     5254           CMPB    RL4,#023h
049A 3D09         5255           JMPR    cc_NE,_325
                  5256   ; smspdu.c  866                                 pPDUStr[i+1] = 'B';
                  5257           ?LINE   866
049C E7F44200     5258           MOVB    RL2,#042h
04A0 F03E         5259           MOV     R3,R14
04A2 F04F         5260           MOV     R4,R15
04A4 0831         5261           ADD     R3,#01h
04A6 0031         5262           ADD     R3,R1
04A8 DC44         5263           EXTP    R4,#01h
04AA B943     1   5264           MOVB    [R3],RL2
04AC 0D32         5265           JMPR    cc_UC,_333
04AE              5266   _325:
                  5267   ; smspdu.c  867                         else if ( pContext[i] == 'a' )
                  5268           ?LINE   867
04AE DC43         5269           EXTP    R3,#01h
04B0 A982     1   5270           MOVB    RL4,[R2]
04B2 47F86100     5271           CMPB    RL4,#061h
04B6 3D09         5272           JMPR    cc_NE,_326
                  5273   ; smspdu.c  868                                 pPDUStr[i+1] = 'C';
                  5274           ?LINE   868
04B8 E7F44300     5275           MOVB    RL2,#043h
04BC F03E         5276           MOV     R3,R14
04BE F04F         5277           MOV     R4,R15
04C0 0831         5278           ADD     R3,#01h
04C2 0031         5279           ADD     R3,R1
04C4 DC44         5280           EXTP    R4,#01h
04C6 B943     1   5281           MOVB    [R3],RL2
04C8 0D24         5282           JMPR    cc_UC,_333
04CA              5283   _326:
                  5284   ; smspdu.c  869                         else if ( pContext[i] == 'b' )
                  5285           ?LINE   869
04CA DC43         5286           EXTP    R3,#01h
04CC A982     1   5287           MOVB    RL4,[R2]
04CE 47F86200     5288           CMPB    RL4,#062h
04D2 3D09         5289           JMPR    cc_NE,_327
                  5290   ; smspdu.c  870                                 pPDUStr[i+1] = 'D';
                  5291           ?LINE   870
04D4 E7F44400     5292           MOVB    RL2,#044h
04D8 F03E         5293           MOV     R3,R14
04DA F04F         5294           MOV     R4,R15
04DC 0831         5295           ADD     R3,#01h
04DE 0031         5296           ADD     R3,R1
04E0 DC44         5297           EXTP    R4,#01h
04E2 B943     1   5298           MOVB    [R3],RL2
04E4 0D16         5299           JMPR    cc_UC,_333
04E6              5300   _327:
                  5301   ; smspdu.c  871                         else if ( pContext[i] == 'c' )
                  5302           ?LINE   871
04E6 DC43         5303           EXTP    R3,#01h
04E8 A982     1   5304           MOVB    RL4,[R2]
04EA 47F86300     5305           CMPB    RL4,#063h
04EE 3D09         5306           JMPR    cc_NE,_328
                  5307   ; smspdu.c  872                                 pPDUStr[i+1] = 'E';
                  5308           ?LINE   872
04F0 E7F44500     5309           MOVB    RL2,#045h
04F4 F03E         5310           MOV     R3,R14
04F6 F04F         5311           MOV     R4,R15
04F8 0831         5312           ADD     R3,#01h
04FA 0031         5313           ADD     R3,R1
04FC DC44         5314           EXTP    R4,#01h
04FE B943     1   5315           MOVB    [R3],RL2
0500 0D08         5316           JMPR    cc_UC,_333
0502              5317   _328:
                  5318   ; smspdu.c  873                         else
                  5319   ; smspdu.c  874                                 pPDUStr[i+1] = pContext[i];
                  5320           ?LINE   874
0502 DC43         5321           EXTP    R3,#01h
0504 A942     1   5322           MOVB    RL2,[R2]
0506 F03E         5323           MOV     R3,R14
0508 F04F         5324           MOV     R4,R15
050A 0831         5325           ADD     R3,#01h
050C 0031         5326           ADD     R3,R1
050E DC44         5327           EXTP    R4,#01h
0510 B943     1   5328           MOVB    [R3],RL2
0512              5329   _333:
                  5330   ; smspdu.c  875 
                  5331   ; smspdu.c  876                         // when strlen == odd len
                  5332   ; smspdu.c  877                         if( pContext[i+1] == 0 )
                  5333           ?LINE   877
0512 F02C         5334           MOV     R2,R12
0514 F03D         5335           MOV     R3,R13
0516 0821         5336           ADD     R2,#01h
0518 0021         5337           ADD     R2,R1
051A DC43         5338           EXTP    R3,#01h
051C A982     1   5339           MOVB    RL4,[R2]
051E 3D0E         5340           JMPR    cc_NZ,_334
                  5341   ; smspdu.c  878                         {
                  5342   ; smspdu.c  879                                 pPDUStr[i] = 'F';
                  5343           ?LINE   879
0520 E7F44600     5344           MOVB    RL2,#046h
0524 F0CE         5345           MOV     R12,R14
               R  5346           ?SYMB   '',$,102,2
0526 F0DF         5347           MOV     R13,R15
0528 00C1         5348           ADD     R12,R1
052A DC4D         5349           EXTP    R13,#01h
052C B94C     1   5350           MOVB    [R12],RL2
                  5351   ; smspdu.c  880                                 pPDUStr[i+2] =  0;
                  5352           ?LINE   880
052E E106         5353           MOVB    RL3,#00h
0530 08E2         5354           ADD     R14,#02h
               R  5355           ?SYMB   '',$,102,1
0532 00E1         5356           ADD     R14,R1
0534 DC4F         5357           EXTP    R15,#01h
0536 B96E     1   5358           MOVB    [R14],RL3
                  5359   ; smspdu.c  881                                 break;
                  5360           ?LINE   881
0538 EA005C07  R  5361           JMPA    cc_UC,_373
                  5362   ; smspdu.c  882                         }
                  5363           ?LINE   882
053C              5364   _334:
               R  5365           ?SYMB   '',$,102,3
               R  5366           ?SYMB   'R1',$,100,3
               R  5367           ?SYMB   'R12R13',$,100,2
               R  5368           ?SYMB   'R14R15',$,100,1
                  5369   ; smspdu.c  883                         if ( pContext[i+1] == '*' )
                  5370           ?LINE   883
053C DC43         5371           EXTP    R3,#01h
053E A982     1   5372           MOVB    RL4,[R2]
0540 47F82A00     5373           CMPB    RL4,#02Ah
0544 3D09         5374           JMPR    cc_NE,_335
                  5375   ; smspdu.c  884                                 pPDUStr[i] = 'A';
                  5376           ?LINE   884
0546 E7F44100     5377           MOVB    RL2,#041h
054A F03E         5378           MOV     R3,R14
054C F04F         5379           MOV     R4,R15
054E 0031         5380           ADD     R3,R1
0550 DC44         5381           EXTP    R4,#01h
0552 B943     1   5382           MOVB    [R3],RL2
0554 EA00CE05  R  5383           JMPA    cc_UC,_344
0558              5384   _335:
                  5385   ; smspdu.c  885                         else if ( pContext[i+1] == '#' )
                  5386           ?LINE   885
0558 DC43         5387           EXTP    R3,#01h
055A A982     1   5388           MOVB    RL4,[R2]
055C 47F82300     5389           CMPB    RL4,#023h
0560 3D08         5390           JMPR    cc_NE,_336
                  5391   ; smspdu.c  886                                 pPDUStr[i] = 'B';
                  5392           ?LINE   886
0562 E7F44200     5393           MOVB    RL2,#042h
0566 F03E         5394           MOV     R3,R14
0568 F04F         5395           MOV     R4,R15
056A 0031         5396           ADD     R3,R1
056C DC44         5397           EXTP    R4,#01h
056E B943     1   5398           MOVB    [R3],RL2
0570 0D2E         5399           JMPR    cc_UC,_344
0572              5400   _336:
                  5401   ; smspdu.c  887                         else if ( pContext[i+1] == 'a' )
                  5402           ?LINE   887
0572 DC43         5403           EXTP    R3,#01h
0574 A982     1   5404           MOVB    RL4,[R2]
0576 47F86100     5405           CMPB    RL4,#061h
057A 3D08         5406           JMPR    cc_NE,_337
                  5407   ; smspdu.c  888                                 pPDUStr[i] = 'C';
                  5408           ?LINE   888
057C E7F44300     5409           MOVB    RL2,#043h
0580 F03E         5410           MOV     R3,R14
0582 F04F         5411           MOV     R4,R15
0584 0031         5412           ADD     R3,R1
0586 DC44         5413           EXTP    R4,#01h
0588 B943     1   5414           MOVB    [R3],RL2
058A 0D21         5415           JMPR    cc_UC,_344
058C              5416   _337:
                  5417   ; smspdu.c  889                         else if ( pContext[i+1] == 'b' )
                  5418           ?LINE   889
058C DC43         5419           EXTP    R3,#01h
058E A982     1   5420           MOVB    RL4,[R2]
0590 47F86200     5421           CMPB    RL4,#062h
0594 3D08         5422           JMPR    cc_NE,_338
                  5423   ; smspdu.c  890                                 pPDUStr[i] = 'D';
                  5424           ?LINE   890
0596 E7F44400     5425           MOVB    RL2,#044h
059A F03E         5426           MOV     R3,R14
059C F04F         5427           MOV     R4,R15
059E 0031         5428           ADD     R3,R1
05A0 DC44         5429           EXTP    R4,#01h
05A2 B943     1   5430           MOVB    [R3],RL2
05A4 0D14         5431           JMPR    cc_UC,_344
05A6              5432   _338:
                  5433   ; smspdu.c  891                         else if ( pContext[i+1] == 'c' )
                  5434           ?LINE   891
05A6 DC43         5435           EXTP    R3,#01h
05A8 A982     1   5436           MOVB    RL4,[R2]
05AA 47F86300     5437           CMPB    RL4,#063h
05AE 3D08         5438           JMPR    cc_NE,_339
                  5439   ; smspdu.c  892                                 pPDUStr[i] = 'E';
                  5440           ?LINE   892
05B0 E7F44500     5441           MOVB    RL2,#045h
05B4 F03E         5442           MOV     R3,R14
05B6 F04F         5443           MOV     R4,R15
05B8 0031         5444           ADD     R3,R1
05BA DC44         5445           EXTP    R4,#01h
05BC B943     1   5446           MOVB    [R3],RL2
05BE 0D07         5447           JMPR    cc_UC,_344
05C0              5448   _339:
                  5449   ; smspdu.c  893                         else
                  5450   ; smspdu.c  894                                 pPDUStr[i] = pContext[i+1];
                  5451           ?LINE   894
05C0 DC43         5452           EXTP    R3,#01h
05C2 A942     1   5453           MOVB    RL2,[R2]
05C4 F03E         5454           MOV     R3,R14
05C6 F04F         5455           MOV     R4,R15
05C8 0031         5456           ADD     R3,R1
05CA DC44         5457           EXTP    R4,#01h
05CC B943     1   5458           MOVB    [R3],RL2
05CE              5459   _344:
                  5460           ?LINE   856
05CE 0812         5461           ADD     R1,#02h
               R  5462           ?SYMB   '',$,102,3
               R  5463           ?SYMB   'R1',$,100,3
05D0 EA006604  R  5464           JMPA    cc_UC,_323
                  5465           ?LINE   860
05D4              5466   _345:
               R  5467           ?SYMB   '',$,102,2
05D4 E104         5468           MOVB    RL2,#00h
05D6 00E1         5469           ADD     R14,R1
               R  5470           ?SYMB   '',$,102,1
05D8 DC4F         5471           EXTP    R15,#01h
05DA B94E     1   5472           MOVB    [R14],RL2
                  5473   ; smspdu.c  895                 }
                  5474   ; smspdu.c  896                 break;
                  5475           ?LINE   896
05DC EA005C07  R  5476           JMPA    cc_UC,_373
                  5477   ; smspdu.c  897 
                  5478   ; smspdu.c  898         case ANALYSE_DECODE:
                  5479           ?LINE   898
05E0              5480   _346:
               R  5481           ?SYMB   '',$,102,3
               R  5482           ?SYMB   'R12R13',$,100,2
               R  5483           ?SYMB   'R14R15',$,100,1
                  5484   ; smspdu.c  899                 for( i=0; ;i+=2 )
                  5485           ?LINE   899
05E0 E001         5486           MOV     R1,#00h
               R  5487           ?SYMB   'R1',$,100,3
05E2              5488   _347:
                  5489   ; smspdu.c  900                 {
                  5490   ; smspdu.c  901                         if( pPDUStr[i] == 0 )
                  5491           ?LINE   901
05E2 F02E         5492           MOV     R2,R14
05E4 F03F         5493           MOV     R3,R15
05E6 0021         5494           ADD     R2,R1
05E8 DC43         5495           EXTP    R3,#01h
05EA A982     1   5496           MOVB    RL4,[R2]
05EC 3D14         5497           JMPR    cc_NZ,_348
                  5498   ; smspdu.c  902                         {
                  5499   ; smspdu.c  903                                 pContext[i] = 0;
                  5500           ?LINE   903
05EE E104         5501           MOVB    RL2,#00h
05F0 F0EC         5502           MOV     R14,R12
               R  5503           ?SYMB   '',$,102,1
05F2 F0FD         5504           MOV     R15,R13
05F4 00E1         5505           ADD     R14,R1
05F6 DC4F         5506           EXTP    R15,#01h
05F8 B94E     1   5507           MOVB    [R14],RL2
                  5508   ; smspdu.c  904                                 if( pContext[i-1]=='F')
                  5509           ?LINE   904
05FA F0AC         5510           MOV     R10,R12
05FC F0BD         5511           MOV     R11,R13
05FE 28A1         5512           SUB     R10,#01h
0600 F0CA         5513           MOV     R12,R10
               R  5514           ?SYMB   '',$,102,2
0602 F0DB         5515           MOV     R13,R11
0604 00C1         5516           ADD     R12,R1
0606 DC4D         5517           EXTP    R13,#01h
0608 A96C     1   5518           MOVB    RL3,[R12]
060A 47F64600     5519           CMPB    RL3,#046h
060E EA305C07  R  5520           JMPA    cc_NE,_373
                  5521   ; smspdu.c  905                                         pContext[i-1] = 0;
                  5522   ; smspdu.c  906                                 break;
                  5523           ?LINE   906
0612 EA005407  R  5524           JMPA    cc_UC,_369
                  5525   ; smspdu.c  907                         }
                  5526           ?LINE   907
0616              5527   _348:
               R  5528           ?SYMB   'R12R13',$,100,2
               R  5529           ?SYMB   'R14R15',$,100,1
                  5530   ; smspdu.c  908                         if ( pPDUStr[i+1] == 'A' )
                  5531           ?LINE   908
0616 F0AE         5532           MOV     R10,R14
0618 F0BF         5533           MOV     R11,R15
061A 08A1         5534           ADD     R10,#01h
061C 00A1         5535           ADD     R10,R1
061E DC4B         5536           EXTP    R11,#01h
0620 A98A     1   5537           MOVB    RL4,[R10]
0622 47F84100     5538           CMPB    RL4,#041h
0626 3D09         5539           JMPR    cc_NE,_349
                  5540   ; smspdu.c  909                                 pContext[i] = '*';
                  5541           ?LINE   909
0628 E7F82A00     5542           MOVB    RL4,#02Ah
062C F05C         5543           MOV     R5,R12
062E F0AD         5544           MOV     R10,R13
0630 0051         5545           ADD     R5,R1
0632 DC4A         5546           EXTP    R10,#01h
0634 B985     1   5547           MOVB    [R5],RL4
0636 EA00B006  R  5548           JMPA    cc_UC,_358
063A              5549   _349:
                  5550   ; smspdu.c  910                         else if ( pPDUStr[i+1] == 'B' )
                  5551           ?LINE   910
063A DC4B         5552           EXTP    R11,#01h
063C A98A     1   5553           MOVB    RL4,[R10]
063E 47F84200     5554           CMPB    RL4,#042h
0642 3D08         5555           JMPR    cc_NE,_350
                  5556   ; smspdu.c  911                                 pContext[i] = '#';
                  5557           ?LINE   911
0644 E7F82300     5558           MOVB    RL4,#023h
0648 F05C         5559           MOV     R5,R12
064A F0AD         5560           MOV     R10,R13
064C 0051         5561           ADD     R5,R1
064E DC4A         5562           EXTP    R10,#01h
0650 B985     1   5563           MOVB    [R5],RL4
0652 0D2E         5564           JMPR    cc_UC,_358
0654              5565   _350:
                  5566   ; smspdu.c  912                         else if ( pPDUStr[i+1] == 'C' )
                  5567           ?LINE   912
0654 DC4B         5568           EXTP    R11,#01h
0656 A98A     1   5569           MOVB    RL4,[R10]
0658 47F84300     5570           CMPB    RL4,#043h
065C 3D08         5571           JMPR    cc_NE,_351
                  5572   ; smspdu.c  913                                 pContext[i] = 'a';
                  5573           ?LINE   913
065E E7F86100     5574           MOVB    RL4,#061h
0662 F05C         5575           MOV     R5,R12
0664 F0AD         5576           MOV     R10,R13
0666 0051         5577           ADD     R5,R1
0668 DC4A         5578           EXTP    R10,#01h
066A B985     1   5579           MOVB    [R5],RL4
066C 0D21         5580           JMPR    cc_UC,_358
066E              5581   _351:
                  5582   ; smspdu.c  914                         else if ( pPDUStr[i+1] == 'D' )
                  5583           ?LINE   914
066E DC4B         5584           EXTP    R11,#01h
0670 A98A     1   5585           MOVB    RL4,[R10]
0672 47F84400     5586           CMPB    RL4,#044h
0676 3D08         5587           JMPR    cc_NE,_352
                  5588   ; smspdu.c  915                                 pContext[i] = 'b';
                  5589           ?LINE   915
0678 E7F86200     5590           MOVB    RL4,#062h
067C F05C         5591           MOV     R5,R12
067E F0AD         5592           MOV     R10,R13
0680 0051         5593           ADD     R5,R1
0682 DC4A         5594           EXTP    R10,#01h
0684 B985     1   5595           MOVB    [R5],RL4
0686 0D14         5596           JMPR    cc_UC,_358
0688              5597   _352:
                  5598   ; smspdu.c  916                         else if ( pPDUStr[i+1] == 'E' )
                  5599           ?LINE   916
0688 DC4B         5600           EXTP    R11,#01h
068A A98A     1   5601           MOVB    RL4,[R10]
068C 47F84500     5602           CMPB    RL4,#045h
0690 3D08         5603           JMPR    cc_NE,_353
                  5604   ; smspdu.c  917                                 pContext[i] = 'c';
                  5605           ?LINE   917
0692 E7F86300     5606           MOVB    RL4,#063h
0696 F05C         5607           MOV     R5,R12
0698 F0AD         5608           MOV     R10,R13
069A 0051         5609           ADD     R5,R1
069C DC4A         5610           EXTP    R10,#01h
069E B985     1   5611           MOVB    [R5],RL4
06A0 0D07         5612           JMPR    cc_UC,_358
06A2              5613   _353:
                  5614   ; smspdu.c  918                         else
                  5615   ; smspdu.c  919                                 pContext[i] = pPDUStr[i+1];
                  5616           ?LINE   919
06A2 DC4B         5617           EXTP    R11,#01h
06A4 A98A     1   5618           MOVB    RL4,[R10]
06A6 F05C         5619           MOV     R5,R12
06A8 F0AD         5620           MOV     R10,R13
06AA 0051         5621           ADD     R5,R1
06AC DC4A         5622           EXTP    R10,#01h
06AE B985     1   5623           MOVB    [R5],RL4
06B0              5624   _358:
                  5625   ; smspdu.c  920 
                  5626   ; smspdu.c  921                         if ( pPDUStr[i] == 'A' )
                  5627           ?LINE   921
06B0 DC43         5628           EXTP    R3,#01h
06B2 A982     1   5629           MOVB    RL4,[R2]
06B4 47F84100     5630           CMPB    RL4,#041h
06B8 3D0A         5631           JMPR    cc_NE,_359
                  5632   ; smspdu.c  922                                 pContext[i+1] = '*';
                  5633           ?LINE   922
06BA E7F42A00     5634           MOVB    RL2,#02Ah
06BE F03C         5635           MOV     R3,R12
06C0 F04D         5636           MOV     R4,R13
06C2 0831         5637           ADD     R3,#01h
06C4 0031         5638           ADD     R3,R1
06C6 DC44         5639           EXTP    R4,#01h
06C8 B943     1   5640           MOVB    [R3],RL2
06CA EA004E07  R  5641           JMPA    cc_UC,_368
06CE              5642   _359:
                  5643   ; smspdu.c  923                         else if ( pPDUStr[i] == 'B' )
                  5644           ?LINE   923
06CE DC43         5645           EXTP    R3,#01h
06D0 A982     1   5646           MOVB    RL4,[R2]
06D2 47F84200     5647           CMPB    RL4,#042h
06D6 3D09         5648           JMPR    cc_NE,_360
                  5649   ; smspdu.c  924                                 pContext[i+1] = '#';
                  5650           ?LINE   924
06D8 E7F42300     5651           MOVB    RL2,#023h
06DC F03C         5652           MOV     R3,R12
06DE F04D         5653           MOV     R4,R13
06E0 0831         5654           ADD     R3,#01h
06E2 0031         5655           ADD     R3,R1
06E4 DC44         5656           EXTP    R4,#01h
06E6 B943     1   5657           MOVB    [R3],RL2
06E8 0D32         5658           JMPR    cc_UC,_368
06EA              5659   _360:
                  5660   ; smspdu.c  925                         else if ( pPDUStr[i] == 'C' )
                  5661           ?LINE   925
06EA DC43         5662           EXTP    R3,#01h
06EC A982     1   5663           MOVB    RL4,[R2]
06EE 47F84300     5664           CMPB    RL4,#043h
06F2 3D09         5665           JMPR    cc_NE,_361
                  5666   ; smspdu.c  926                                 pContext[i+1] = 'a';
                  5667           ?LINE   926
06F4 E7F46100     5668           MOVB    RL2,#061h
06F8 F03C         5669           MOV     R3,R12
06FA F04D         5670           MOV     R4,R13
06FC 0831         5671           ADD     R3,#01h
06FE 0031         5672           ADD     R3,R1
0700 DC44         5673           EXTP    R4,#01h
0702 B943     1   5674           MOVB    [R3],RL2
0704 0D24         5675           JMPR    cc_UC,_368
0706              5676   _361:
                  5677   ; smspdu.c  927                         else if ( pPDUStr[i] == 'D' )
                  5678           ?LINE   927
0706 DC43         5679           EXTP    R3,#01h
0708 A982     1   5680           MOVB    RL4,[R2]
070A 47F84400     5681           CMPB    RL4,#044h
070E 3D09         5682           JMPR    cc_NE,_362
                  5683   ; smspdu.c  928                                 pContext[i+1] = 'b';
                  5684           ?LINE   928
0710 E7F46200     5685           MOVB    RL2,#062h
0714 F03C         5686           MOV     R3,R12
0716 F04D         5687           MOV     R4,R13
0718 0831         5688           ADD     R3,#01h
071A 0031         5689           ADD     R3,R1
071C DC44         5690           EXTP    R4,#01h
071E B943     1   5691           MOVB    [R3],RL2
0720 0D16         5692           JMPR    cc_UC,_368
0722              5693   _362:
                  5694   ; smspdu.c  929                         else if ( pPDUStr[i] == 'E' )
                  5695           ?LINE   929
0722 DC43         5696           EXTP    R3,#01h
0724 A982     1   5697           MOVB    RL4,[R2]
0726 47F84500     5698           CMPB    RL4,#045h
072A 3D09         5699           JMPR    cc_NE,_363
                  5700   ; smspdu.c  930                                 pContext[i+1] = 'c';
                  5701           ?LINE   930
072C E7F46300     5702           MOVB    RL2,#063h
0730 F03C         5703           MOV     R3,R12
0732 F04D         5704           MOV     R4,R13
0734 0831         5705           ADD     R3,#01h
0736 0031         5706           ADD     R3,R1
0738 DC44         5707           EXTP    R4,#01h
073A B943     1   5708           MOVB    [R3],RL2
073C 0D08         5709           JMPR    cc_UC,_368
073E              5710   _363:
                  5711   ; smspdu.c  931                         else
                  5712   ; smspdu.c  932                                 pContext[i+1] = pPDUStr[i];
                  5713           ?LINE   932
073E DC43         5714           EXTP    R3,#01h
0740 A942     1   5715           MOVB    RL2,[R2]
0742 F03C         5716           MOV     R3,R12
0744 F04D         5717           MOV     R4,R13
0746 0831         5718           ADD     R3,#01h
0748 0031         5719           ADD     R3,R1
074A DC44         5720           EXTP    R4,#01h
074C B943     1   5721           MOVB    [R3],RL2
074E              5722   _368:
                  5723           ?LINE   899
074E 0812         5724           ADD     R1,#02h
               R  5725           ?SYMB   '',$,102,3
               R  5726           ?SYMB   'R1',$,100,3
0750 EA00E205  R  5727           JMPA    cc_UC,_347
                  5728           ?LINE   905
0754              5729   _369:
               R  5730           ?SYMB   '',$,102,2
               R  5731           ?SYMB   '',$,102,1
0754 E104         5732           MOVB    RL2,#00h
0756 00A1         5733           ADD     R10,R1
0758 DC4B         5734           EXTP    R11,#01h
075A B94A     1   5735           MOVB    [R10],RL2
                  5736   ; smspdu.c  933                 }
                  5737   ; smspdu.c  934                 break;
                  5738   ; smspdu.c  935         }
                  5739           ?LINE   935
075C              5740   _373:
               R  5741           ?SYMB   '',$,102,3
                  5742   ; smspdu.c  936         return 0;
                  5743           ?LINE   936
075C E004         5744           MOV     R4,#00h
                  5745   ; smspdu.c  937 }
                  5746           ?LINE   937
075E DB00         5747           RETS
                  5748   _Analyse_PhoneNum       ENDP
               R  5749           ?SYMB   '',$,17,937
                  5750   ; smspdu.c  938 
                  5751   ; smspdu.c  939 /*********************************************************************\ 
                  5752   ; smspdu.c  940 * Function         
                  5753   ; smspdu.c  941 * Purpose      
                  5754   ; smspdu.c  942 * Params           
                  5755   ; smspdu.c  943 * Return 
                  5756   ; smspdu.c  944 * Remarks          
                  5757   ; smspdu.c  945 **********************************************************************/
                  5758   ; smspdu.c  946 int FOData_Decode( BYTE src, struct SMS_FO* dst )
                  5759   ; smspdu.c  947 {
                  5760           ?LINE   947
                  5761           PUBLIC  _FOData_Decode
               R  5762           ?SYMB   'FOData_Decode',_FOData_Decode,37,16
                  5763           ?SYMB   '',947,8,34
                  5764   _FOData_Decode  PROC    FAR
                  5765           ?SYMB   '',040H,95,0
0760 8860         5766           MOV     [-R0],R6
               R  5767           ?SYMB   '',$,96,2
0762 F06C         5768           MOV     R6,R12
                  5769   ; Locals:
                  5770   ; 
                  5771   ; Statics:
                  5772   ; 
                  5773   ; CSEs:
                  5774   ;     dst = R13R14
                  5775   ;     src = RL6
                  5776   ;     ret = R12
                  5777   ; 
                  5778           ?SYMB   'src',2,99,266
                  5779           ?SYMB   '',01a0239H,38,585
                  5780           ?SYMB   'dst',3,99,585
                  5781           ?SYMB   'ret',1,98,16
               R  5782           ?SYMB   'R13R14',$,100,3
               R  5783           ?SYMB   'RL6',$,100,2
                  5784   ; smspdu.c  948         int ret;
                  5785   ; smspdu.c  949 
                  5786   ; smspdu.c  950         memset( dst, 0, sizeof(struct SMS_FO) );
                  5787           ?LINE   950
0764 88D0         5788           MOV     [-R0],R13
               R  5789           ?SYMB   '',$,96,4
0766 88E0         5790           MOV     [-R0],R14
               R  5791           ?SYMB   '',$,96,6
0768 A8D0         5792           MOV     R13,[R0]
               R  5793           ?SYMB   '',$,102,3
076A D4C00200     5794           MOV     R12,[R0+#02H]
076E E00E         5795           MOV     R14,#00h
0770 E0AF         5796           MOV     R15,#0Ah
0772 DA000000  R  5797           CALLS   SEG _memset,_memset
0776 98E0         5798           MOV     R14,[R0+]
               R  5799           ?SYMB   '',$,96,4
0778 98D0         5800           MOV     R13,[R0+]
               R  5801           ?SYMB   '',$,96,2
               R  5802           ?SYMB   'R13R14',$,100,3
                  5803   ; smspdu.c  951 
                  5804   ; smspdu.c  952         dst->MTI = src&0x03;//00000011
                  5805           ?LINE   952
077A F12C         5806           MOVB    RL1,RL6
077C 6923         5807           ANDB    RL1,#03h
077E DC5E         5808           EXTP    R14,#02h
0780 B92D     2   5809           MOVB    [R13],RL1
                  5810   ; smspdu.c  953 
                  5811   ; smspdu.c  954         if ( dst->MTI == 2 )
                  5812           ?LINE   954
0782 A92D     1   5813           MOVB    RL1,[R13]
0784 4922         5814           CMPB    RL1,#02h
0786 3D0D         5815           JMPR    cc_NE,_378
                  5816   ; smspdu.c  955         {
                  5817   ; smspdu.c  956                 ret = STATUS_REPORT;
                  5818           ?LINE   956
0788 E02C         5819           MOV     R12,#02h
               R  5820           ?SYMB   'R12',$,100,1
                  5821   ; smspdu.c  957                 dst->SRQ = src&0x20;//00100000
                  5822           ?LINE   957
078A F12C         5823           MOVB    RL1,RL6
078C 67F22000     5824           ANDB    RL1,#020h
0790 DC4E         5825           EXTP    R14,#01h
0792 E42D0600 1   5826           MOVB    [R13+#06H],RL1
                  5827   ; smspdu.c  958                 dst->MMS = src&0x04;//00000100
                  5828           ?LINE   958
0796 F12C         5829           MOVB    RL1,RL6
0798 6924         5830           ANDB    RL1,#04h
079A DC4E         5831           EXTP    R14,#01h
079C E42D0200 1   5832           MOVB    [R13+#02H],RL1
                  5833   ; smspdu.c  959                 dst->UDHI = src&0x40;//01000000
                  5834           ?LINE   959
07A0 0D05         5835           JMPR    cc_UC,_379
                  5836   ; smspdu.c  960         }
                  5837           ?LINE   960
07A2              5838   _378:
               R  5839           ?SYMB   '',$,102,1
                  5840   ; smspdu.c  961         else if ( dst->MTI == 1 )
                  5841           ?LINE   961
07A2 DC4E         5842           EXTP    R14,#01h
07A4 A92D     1   5843           MOVB    RL1,[R13]
07A6 4921         5844           CMPB    RL1,#01h
07A8 3D07         5845           JMPR    cc_NE,_380
                  5846   ; smspdu.c  962         {
                  5847   ; smspdu.c  963                 ret = SUBMIT_REPORT;
                  5848           ?LINE   963
07AA E03C         5849           MOV     R12,#03h
               R  5850           ?SYMB   'R12',$,100,1
                  5851   ; smspdu.c  964                 dst->UDHI = src&0x40;//01000000
                  5852           ?LINE   964
07AC              5853   _379:
07AC 67FC4000     5854           ANDB    RL6,#040h
               R  5855           ?SYMB   '',$,102,2
07B0 DC4E         5856           EXTP    R14,#01h
07B2 E4CD0700 1   5857           MOVB    [R13+#07H],RL6
                  5858   ; smspdu.c  965         }
                  5859           ?LINE   965
07B6 0D17         5860           JMPR    cc_UC,_381
07B8              5861   _380:
               R  5862           ?SYMB   '',$,102,3
               R  5863           ?SYMB   '',$,102,1
               R  5864           ?SYMB   'R13R14',$,100,3
               R  5865           ?SYMB   'RL6',$,100,2
                  5866   ; smspdu.c  966         else
                  5867   ; smspdu.c  967         {
                  5868   ; smspdu.c  968                 ret = SMS_DELIVER;
                  5869           ?LINE   968
07B8 E04C         5870           MOV     R12,#04h
               R  5871           ?SYMB   'R12',$,100,1
                  5872   ; smspdu.c  969                 dst->MMS = src&0x04;//00000100
                  5873           ?LINE   969
07BA F12C         5874           MOVB    RL1,RL6
07BC 6924         5875           ANDB    RL1,#04h
07BE DC4E         5876           EXTP    R14,#01h
07C0 E42D0200 1   5877           MOVB    [R13+#02H],RL1
                  5878   ; smspdu.c  970                 dst->SRI = src&0x20;//00100000
                  5879           ?LINE   970
07C4 F12C         5880           MOVB    RL1,RL6
07C6 67F22000     5881           ANDB    RL1,#020h
07CA DC4E         5882           EXTP    R14,#01h
07CC E42D0500 1   5883           MOVB    [R13+#05H],RL1
                  5884   ; smspdu.c  971                 dst->UDHI = src&0x40;//01000000
                  5885           ?LINE   971
07D0 F12C         5886           MOVB    RL1,RL6
07D2 67F24000     5887           ANDB    RL1,#040h
07D6 DC4E         5888           EXTP    R14,#01h
07D8 E42D0700 1   5889           MOVB    [R13+#07H],RL1
                  5890   ; smspdu.c  972                 dst->RP = src&0x80;//10000000
                  5891           ?LINE   972
07DC 67FC8000     5892           ANDB    RL6,#080h
               R  5893           ?SYMB   '',$,102,2
07E0 DC4E         5894           EXTP    R14,#01h
07E2 E4CD0800 1   5895           MOVB    [R13+#08H],RL6
                  5896   ; smspdu.c  973         }
                  5897           ?LINE   973
07E6              5898   _381:
               R  5899           ?SYMB   '',$,102,3
                  5900   ; smspdu.c  974 
                  5901   ; smspdu.c  975         return ret;
                  5902           ?LINE   975
07E6 F04C         5903           MOV     R4,R12
                  5904   ; smspdu.c  976 }
                  5905           ?LINE   976
07E8 9860         5906           MOV     R6,[R0+]
               R  5907           ?SYMB   '',$,96,0
07EA DB00         5908           RETS
               R  5909           ?SYMB   '',$,102,1
                  5910   _FOData_Decode  ENDP
               R  5911           ?SYMB   '',$,17,976
                  5912   ; smspdu.c  977 
                  5913   ; smspdu.c  978 /*********************************************************************\ 
                  5914   ; smspdu.c  979 * Function         
                  5915   ; smspdu.c  980 * Purpose      
                  5916   ; smspdu.c  981 * Params           
                  5917   ; smspdu.c  982 * Return                   
                  5918   ; smspdu.c  983 * Remarks          
                  5919   ; smspdu.c  984 **********************************************************************/
                  5920   ; smspdu.c  985 int ME_RecStr_Flag( PSMS_INFO pSMSRead, char* SMS_Prompt )
                  5921   ; smspdu.c  986 {
                  5922           ?LINE   986
                  5923           PUBLIC  _ME_RecStr_Flag
               R  5924           ?SYMB   'ME_RecStr_Flag',_ME_RecStr_Flag,37,16
                  5925           ?SYMB   '',986,8,34
                  5926   _ME_RecStr_Flag PROC    FAR
                  5927           ?SYMB   '',03c0H,95,0
07EC 8890         5928           MOV     [-R0],R9
               R  5929           ?SYMB   '',$,96,2
07EE 8880         5930           MOV     [-R0],R8
               R  5931           ?SYMB   '',$,96,4
07F0 8870         5932           MOV     [-R0],R7
               R  5933           ?SYMB   '',$,96,6
07F2 8860         5934           MOV     [-R0],R6
               R  5935           ?SYMB   '',$,96,8
07F4 F09F         5936           MOV     R9,R15
07F6 F08E         5937           MOV     R8,R14
07F8 F07D         5938           MOV     R7,R13
07FA F06C         5939           MOV     R6,R12
                  5940   ; Locals:
                  5941   ; 
                  5942   ; Statics:
                  5943   ; 
                  5944   ; CSEs:
                  5945   ;     SMS_Prompt = R8R9
                  5946   ;     tag = R12
                  5947   ;     pSMSRead = R6R7
                  5948   ; 
                  5949           ?SYMB   'pSMSRead',1,99,558
                  5950           ?SYMB   'SMS_Prompt',3,99,263
                  5951           ?SYMB   'tag',2,98,16
               R  5952           ?SYMB   'R8R9',$,100,3
               R  5953           ?SYMB   'R6R7',$,100,1
                  5954   ; smspdu.c  987         // +CMGR: 1,,22
                  5955   ; smspdu.c  988         int tag;
                  5956   ; smspdu.c  989 
                  5957   ; smspdu.c  990         if( strlen(SMS_Prompt)== 0 )
                  5958           ?LINE   990
07FC F0C8         5959           MOV     R12,R8
07FE F0D9         5960           MOV     R13,R9
0800 DA000000  R  5961           CALLS   SEG _strlen,_strlen
0804 4840         5962           CMP     R4,#00h
0806 2D16         5963           JMPR    cc_Z,_393
                  5964   ; smspdu.c  991                 return -1;
                  5965   ; smspdu.c  992 
                  5966   ; smspdu.c  993         if ( strstr( SMS_Prompt, "+CMGR:" ) != NULL )
                  5967           ?LINE   993
0808 F0C8         5968           MOV     R12,R8
080A F0D9         5969           MOV     R13,R9
080C E6FE0000  R  5970           MOV     R14,#POF _382
0810 E6FF0000  R  5971           MOV     R15,#PAG _382
0814 DA000000  R  5972           CALLS   SEG _strstr,_strstr
0818 7045         5973           OR      R4,R5
081A 2D02         5974           JMPR    cc_Z,_392
                  5975   ; smspdu.c  994                 tag = 0;
                  5976           ?LINE   994
081C E00C         5977           MOV     R12,#00h
               R  5978           ?SYMB   'R12',$,100,2
081E 0D0E         5979           JMPR    cc_UC,_395
0820              5980   _392:
               R  5981           ?SYMB   '',$,102,2
                  5982   ; smspdu.c  995         else if ( strstr( SMS_Prompt, "^SMGR:" ) != NULL )
                  5983           ?LINE   995
0820 F0C8         5984           MOV     R12,R8
0822 F0D9         5985           MOV     R13,R9
0824 E6FE0000  R  5986           MOV     R14,#POF _383
0828 E6FF0000  R  5987           MOV     R15,#PAG _383
082C DA000000  R  5988           CALLS   SEG _strstr,_strstr
0830 7045         5989           OR      R4,R5
0832 3D03         5990           JMPR    cc_NZ,_394
                  5991   ; smspdu.c  996                 tag = 1;
                  5992   ; smspdu.c  997         else
                  5993   ; smspdu.c  998                 return -1;
                  5994           ?LINE   998
0834              5995   _393:
               R  5996           ?SYMB   '',$,102,3
               R  5997           ?SYMB   '',$,102,1
0834 E6F4FFFF     5998           MOV     R4,#0FFFFh
0838 0D23         5999           JMPR    cc_UC,_398
                  6000           ?LINE   996
083A              6001   _394:
               R  6002           ?SYMB   'R8R9',$,100,3
               R  6003           ?SYMB   'R6R7',$,100,1
083A E01C         6004           MOV     R12,#01h
               R  6005           ?SYMB   'R12',$,100,2
                  6006           ?LINE   998
083C              6007   _395:
                  6008   ; smspdu.c  999 
                  6009   ; smspdu.c 1000         if ( tag == 0 )
                  6010           ?LINE   1000
083C 48C0         6011           CMP     R12,#00h
083E 3D0F         6012           JMPR    cc_NZ,_396
                  6013   ; smspdu.c 1001                 pSMSRead->Stat = ME_GetIntSection( SMS_Prompt, "+CMGR:", 1 );
                  6014           ?LINE   1001
0840 E01C         6015           MOV     R12,#01h
               R  6016           ?SYMB   '',$,102,2
0842 88C0         6017           MOV     [-R0],R12
               R  6018           ?SYMB   '',$,96,10
0844 F0C8         6019           MOV     R12,R8
0846 F0D9         6020           MOV     R13,R9
0848 E6FE0000  R  6021           MOV     R14,#POF _382
084C E6FF0000  R  6022           MOV     R15,#PAG _382
0850 DA000000  R  6023           CALLS   SEG _ME_GetIntSection,_ME_GetIntSection
               R  6024           ?SYMB   '',$,102,3
0854 0802         6025           ADD     R0,#02h
               R  6026           ?SYMB   '',$,96,8
0856 DC47         6027           EXTP    R7,#01h
0858 C4460200 1   6028           MOV     [R6+#02H],R4
085C 0D0E         6029           JMPR    cc_UC,_397
085E              6030   _396:
               R  6031           ?SYMB   'R8R9',$,100,3
                  6032   ; smspdu.c 1002         else
                  6033   ; smspdu.c 1003                 pSMSRead->Stat = ME_GetIntSection( SMS_Prompt, "^SMGR:", 1 );
                  6034           ?LINE   1003
085E E01C         6035           MOV     R12,#01h
0860 88C0         6036           MOV     [-R0],R12
               R  6037           ?SYMB   '',$,96,10
0862 F0C8         6038           MOV     R12,R8
0864 F0D9         6039           MOV     R13,R9
0866 E6FE0000  R  6040           MOV     R14,#POF _383
086A E6FF0000  R  6041           MOV     R15,#PAG _383
086E DA000000  R  6042           CALLS   SEG _ME_GetIntSection,_ME_GetIntSection
               R  6043           ?SYMB   '',$,102,3
0872 0802         6044           ADD     R0,#02h
               R  6045           ?SYMB   '',$,96,8
0874 DC47         6046           EXTP    R7,#01h
0876 C4460200 1   6047           MOV     [R6+#02H],R4
087A              6048   _397:
                  6049   ; smspdu.c 1004 
                  6050   ; smspdu.c 1005         return pSMSRead->Stat;
                  6051           ?LINE   1005
087A DC47         6052           EXTP    R7,#01h
087C D4460200 1   6053           MOV     R4,[R6+#02H]
                  6054   ; smspdu.c 1006 }
                  6055           ?LINE   1006
0880              6056   _398:
               R  6057           ?SYMB   '',$,102,1
0880 9860         6058           MOV     R6,[R0+]
               R  6059           ?SYMB   '',$,96,6
0882 9870         6060           MOV     R7,[R0+]
               R  6061           ?SYMB   '',$,96,4
0884 9880         6062           MOV     R8,[R0+]
               R  6063           ?SYMB   '',$,96,2
0886 9890         6064           MOV     R9,[R0+]
               R  6065           ?SYMB   '',$,96,0
0888 DB00         6066           RETS
                  6067   _ME_RecStr_Flag ENDP
               R  6068           ?SYMB   '',$,17,1006
                  6069   ; smspdu.c 1007 
                  6070   ; smspdu.c 1008 /*********************************************************************\ 
                  6071   ; smspdu.c 1009 * Function
                  6072   ; smspdu.c 1010 * Purpose
                  6073   ; smspdu.c 1011 * Params
                  6074   ; smspdu.c 1012 * Return
                  6075   ; smspdu.c 1013 * Remarks
                  6076   ; smspdu.c 1014 **********************************************************************/
                  6077   ; smspdu.c 1015 int ME_RecLstStr_Code( PSMS_INFO pSMSInfo, char* pSmsContext, int Count )
                  6078   ; smspdu.c 1016 {
                  6079           ?LINE   1016
                  6080           PUBLIC  _ME_RecLstStr_Code
               R  6081           ?SYMB   'ME_RecLstStr_Code',_ME_RecLstStr_Code,37,16
                  6082           ?SYMB   '',1016,8,34
                  6083   _ME_RecLstStr_Code      PROC    FAR
                  6084           ?SYMB   '',03c0H,95,0
088A 8890         6085           MOV     [-R0],R9
               R  6086           ?SYMB   '',$,96,2
088C 8880         6087           MOV     [-R0],R8
               R  6088           ?SYMB   '',$,96,4
088E 8870         6089           MOV     [-R0],R7
               R  6090           ?SYMB   '',$,96,6
0890 8860         6091           MOV     [-R0],R6
               R  6092           ?SYMB   '',$,96,8
0892 88D0         6093           MOV     [-R0],R13
               R  6094           ?SYMB   '',$,96,10
0894 88C0         6095           MOV     [-R0],R12
               R  6096           ?SYMB   '',$,96,12
0896 2804         6097           SUB     R0,#04h
               R  6098           ?SYMB   '',$,96,16
0898 F09F         6099           MOV     R9,R15
089A F08E         6100           MOV     R8,R14
                  6101   ; Locals:
                  6102   ; 
                  6103   ; Statics:
                  6104   ; 
                  6105   ; CSEs:
                  6106   ;     begin = R8R9
                  6107   ;     end = R6R7
                  6108   ;     i = offset 0
                  6109   ;     tag = offset 2
                  6110   ;     pSMSInfo + i * 264 = R14R15
                  6111   ;     pSmsContext = R8R9
                  6112   ;     pSMSInfo = offset 4
                  6113   ;     pSMSInfo + i * 264 = R12R13
                  6114   ;     pSMSInfo + i * 264 = R12R13
                  6115   ;     Count = offset 16
                  6116   ; 
                  6117           ?SYMB   'pSMSInfo',2,99,558
                  6118           ?SYMB   'pSmsContext',7,99,263
                  6119           ?SYMB   'Count',1,99,16
                  6120           ?SYMB   'i',4,98,16
                  6121           ?SYMB   'tag',6,98,16
                  6122           ?SYMB   'begin',3,98,263
                  6123           ?SYMB   'end',5,98,263
               R  6124           ?SYMB   'R8R9',$,100,7
               R  6125           ?SYMB   '-c',$,101,2
               R  6126           ?SYMB   '0',$,101,1
                  6127   ; smspdu.c 1017         int      i, tag;
                  6128   ; smspdu.c 1018         char *begin, *end;
                  6129   ; smspdu.c 1019 
                  6130   ; smspdu.c 1020         if( strlen(pSmsContext)== 0 )
                  6131           ?LINE   1020
089C F0C8         6132           MOV     R12,R8
089E F0D9         6133           MOV     R13,R9
08A0 DA000000  R  6134           CALLS   SEG _strlen,_strlen
08A4 4840         6135           CMP     R4,#00h
08A6 3D04         6136           JMPR    cc_NZ,_431
               R  6137           ?SYMB   '',$,102,2
               R  6138           ?SYMB   '',$,102,1
                  6139   ; smspdu.c 1021                 return -1;
                  6140           ?LINE   1021
08A8 E6F4FFFF     6141           MOV     R4,#0FFFFh
08AC EA00E20A  R  6142           JMPA    cc_UC,_455
08B0              6143   _431:
               R  6144           ?SYMB   '',$,102,7
               R  6145           ?SYMB   'R8R9',$,100,7
               R  6146           ?SYMB   '-c',$,101,2
               R  6147           ?SYMB   '0',$,101,1
                  6148   ; smspdu.c 1022 
                  6149   ; smspdu.c 1023         if ( strstr( pSmsContext, "+CMGL:" ) != NULL )
                  6150           ?LINE   1023
08B0 F0C8         6151           MOV     R12,R8
08B2 F0D9         6152           MOV     R13,R9
08B4 E6FE0000  R  6153           MOV     R14,#POF _399
08B8 E6FF0000  R  6154           MOV     R15,#PAG _399
08BC DA000000  R  6155           CALLS   SEG _strstr,_strstr
08C0 7045         6156           OR      R4,R5
08C2 2D04         6157           JMPR    cc_Z,_432
                  6158   ; smspdu.c 1024                 tag = 0;
                  6159           ?LINE   1024
08C4 E006         6160           MOV     R6,#00h
08C6 C4600200     6161           MOV     [R0+#02H],R6
               R  6162           ?SYMB   '-e',$,101,6
08CA 0D10         6163           JMPR    cc_UC,_434
               R  6164           ?SYMB   '',$,102,6
08CC              6165   _432:
                  6166   ; smspdu.c 1025         else if ( strstr( pSmsContext, "^SMGL:" ) != NULL )
                  6167           ?LINE   1025
08CC F0C8         6168           MOV     R12,R8
08CE F0D9         6169           MOV     R13,R9
08D0 E6FE0000  R  6170           MOV     R14,#POF _400
08D4 E6FF0000  R  6171           MOV     R15,#PAG _400
08D8 DA000000  R  6172           CALLS   SEG _strstr,_strstr
08DC 7045         6173           OR      R4,R5
08DE 3D03         6174           JMPR    cc_NZ,_433
               R  6175           ?SYMB   '',$,102,2
               R  6176           ?SYMB   '',$,102,1
                  6177   ; smspdu.c 1026                 tag = 1;
                  6178   ; smspdu.c 1027         else
                  6179   ; smspdu.c 1028                 return 0;
                  6180           ?LINE   1028
08E0 E004         6181           MOV     R4,#00h
08E2 EA00E20A  R  6182           JMPA    cc_UC,_455
                  6183           ?LINE   1026
08E6              6184   _433:
               R  6185           ?SYMB   '',$,102,7
               R  6186           ?SYMB   'R8R9',$,100,7
               R  6187           ?SYMB   '-c',$,101,2
               R  6188           ?SYMB   '0',$,101,1
08E6 E016         6189           MOV     R6,#01h
08E8 C4600200     6190           MOV     [R0+#02H],R6
               R  6191           ?SYMB   '-e',$,101,6
                  6192           ?LINE   1028
08EC              6193   _434:
                  6194   ; smspdu.c 1029 
                  6195   ; smspdu.c 1030         end = (char*)pSmsContext-2;
                  6196           ?LINE   1030
08EC F068         6197           MOV     R6,R8
08EE F079         6198           MOV     R7,R9
08F0 2862         6199           SUB     R6,#02h
               R  6200           ?SYMB   'R6R7',$,100,5
                  6201   ; smspdu.c 1031 
                  6202   ; smspdu.c 1032         for ( i=0; i < Count; i++ )
                  6203           ?LINE   1032
08F2 E008         6204           MOV     R8,#00h
               R  6205           ?SYMB   '',$,102,7
08F4 B880         6206           MOV     [R0],R8
               R  6207           ?SYMB   '-10',$,101,4
08F6 EA00D40A  R  6208           JMPA    cc_UC,_447
08FA              6209   _435:
                  6210   ; smspdu.c 1033         {
                  6211   ; smspdu.c 1034                 begin = end + 2;
                  6212           ?LINE   1034
08FA F086         6213           MOV     R8,R6
08FC F097         6214           MOV     R9,R7
08FE 0882         6215           ADD     R8,#02h
               R  6216           ?SYMB   'R8R9',$,100,3
                  6217   ; smspdu.c 1035 
                  6218   ; smspdu.c 1036                 while ( *begin == '\r')
                  6219           ?LINE   1036
0900 0D01         6220           JMPR    cc_UC,_437
0902              6221   _436:
               R  6222           ?SYMB   '',$,102,5
                  6223   ; smspdu.c 1037                         begin += 2;
                  6224           ?LINE   1037
0902 0882         6225           ADD     R8,#02h
               R  6226           ?SYMB   '',$,102,3
               R  6227           ?SYMB   'R8R9',$,100,3
                  6228           ?LINE   1036
0904              6229   _437:
0904 DC49         6230           EXTP    R9,#01h
0906 A9C8     1   6231           MOVB    RL6,[R8]
0908 47FC0D00     6232           CMPB    RL6,#0Dh
090C 2DFA         6233           JMPR    cc_EQ,_436
                  6234   ; smspdu.c 1038 
                  6235   ; smspdu.c 1039                 if ( strlen( begin ) == 0 )
                  6236           ?LINE   1039
090E F0C8         6237           MOV     R12,R8
0910 F0D9         6238           MOV     R13,R9
0912 DA000000  R  6239           CALLS   SEG _strlen,_strlen
0916 4840         6240           CMP     R4,#00h
0918 EA20E00A  R  6241           JMPA    cc_Z,_453
                  6242   ; smspdu.c 1040                         return i;
                  6243   ; smspdu.c 1041 
                  6244   ; smspdu.c 1042                 end = strchr( begin, '\r' );
                  6245           ?LINE   1042
091C F0C8         6246           MOV     R12,R8
091E F0D9         6247           MOV     R13,R9
0920 E0DE         6248           MOV     R14,#0Dh
0922 DA000000  R  6249           CALLS   SEG _strchr,_strchr
0926 F064         6250           MOV     R6,R4
0928 F075         6251           MOV     R7,R5
               R  6252           ?SYMB   'R6R7',$,100,5
                  6253   ; smspdu.c 1043 
                  6254   ; smspdu.c 1044                 if ( end == NULL )
                  6255           ?LINE   1044
092A F0C7         6256           MOV     R12,R7
092C 70C6         6257           OR      R12,R6
092E EA20E00A  R  6258           JMPA    cc_Z,_453
                  6259   ; smspdu.c 1045                         return i;
                  6260   ; smspdu.c 1046 
                  6261   ; smspdu.c 1047                 *end = '\0';
                  6262           ?LINE   1047
0932 E102         6263           MOVB    RL1,#00h
0934 DC47         6264           EXTP    R7,#01h
0936 B926     1   6265           MOVB    [R6],RL1
                  6266   ; smspdu.c 1048 
                  6267   ; smspdu.c 1049                 if ( tag == 0 )
                  6268           ?LINE   1049
0938 D4C00200     6269           MOV     R12,[R0+#02H]
093C 3D2B         6270           JMPR    cc_NZ,_438
                  6271   ; smspdu.c 1050                 {
                  6272   ; smspdu.c 1051                         pSMSInfo[i].Index = ME_GetIntSection( begin, "+CMGL:", 
                         1);
                  6273           ?LINE   1051
093E E01D         6274           MOV     R13,#01h
0940 88D0         6275           MOV     [-R0],R13
               R  6276           ?SYMB   '',$,96,18
0942 F0C8         6277           MOV     R12,R8
0944 F0D9         6278           MOV     R13,R9
0946 E6FE0000  R  6279           MOV     R14,#POF _399
094A E6FF0000  R  6280           MOV     R15,#PAG _399
094E DA000000  R  6281           CALLS   SEG _ME_GetIntSection,_ME_GetIntSection
0952 0802         6282           ADD     R0,#02h
               R  6283           ?SYMB   '',$,96,16
0954 A8C0         6284           MOV     R12,[R0]
0956 F0DC         6285           MOV     R13,R12
0958 5C5D         6286           SHL     R13,#05h
095A 00DC         6287           ADD     R13,R12
095C 5C3D         6288           SHL     R13,#03h
095E F0ED         6289           MOV     R14,R13
0960 D4C00400     6290           MOV     R12,[R0+#04H]
0964 D4D00600     6291           MOV     R13,[R0+#06H]
0968 00CE         6292           ADD     R12,R14
096A DC4D         6293           EXTP    R13,#01h
096C B84C     1   6294           MOV     [R12],R4
                  6295   ; smspdu.c 1052                         pSMSInfo[i].Stat = ME_GetIntSection( begin, "+CMGL:", 2
                         );
                  6296           ?LINE   1052
096E 88D0         6297           MOV     [-R0],R13
               R  6298           ?SYMB   '',$,96,18
0970 88C0         6299           MOV     [-R0],R12
               R  6300           ?SYMB   '',$,96,20
0972 E02E         6301           MOV     R14,#02h
0974 88E0         6302           MOV     [-R0],R14
               R  6303           ?SYMB   '',$,96,22
0976 F0C8         6304           MOV     R12,R8
0978 F0D9         6305           MOV     R13,R9
097A E6FE0000  R  6306           MOV     R14,#POF _399
097E E6FF0000  R  6307           MOV     R15,#PAG _399
0982 DA000000  R  6308           CALLS   SEG _ME_GetIntSection,_ME_GetIntSection
               R  6309           ?SYMB   '',$,102,3
0986 0802         6310           ADD     R0,#02h
               R  6311           ?SYMB   '',$,96,20
0988 98C0         6312           MOV     R12,[R0+]
               R  6313           ?SYMB   '',$,96,18
098A 98D0         6314           MOV     R13,[R0+]
               R  6315           ?SYMB   '',$,96,16
098C DC4D         6316           EXTP    R13,#01h
098E C44C0200 1   6317           MOV     [R12+#02H],R4
                  6318   ; smspdu.c 1053                 }
                  6319           ?LINE   1053
0992 0D2A         6320           JMPR    cc_UC,_439
0994              6321   _438:
               R  6322           ?SYMB   'R8R9',$,100,3
                  6323   ; smspdu.c 1054                 else
                  6324   ; smspdu.c 1055                 {
                  6325   ; smspdu.c 1056                         pSMSInfo[i].Index = ME_GetIntSection( begin, "^SMGL:", 
                         1);
                  6326           ?LINE   1056
0994 E01C         6327           MOV     R12,#01h
0996 88C0         6328           MOV     [-R0],R12
               R  6329           ?SYMB   '',$,96,18
0998 F0C8         6330           MOV     R12,R8
099A F0D9         6331           MOV     R13,R9
099C E6FE0000  R  6332           MOV     R14,#POF _400
09A0 E6FF0000  R  6333           MOV     R15,#PAG _400
09A4 DA000000  R  6334           CALLS   SEG _ME_GetIntSection,_ME_GetIntSection
09A8 0802         6335           ADD     R0,#02h
               R  6336           ?SYMB   '',$,96,16
09AA A8C0         6337           MOV     R12,[R0]
09AC F0DC         6338           MOV     R13,R12
09AE 5C5D         6339           SHL     R13,#05h
09B0 00DC         6340           ADD     R13,R12
09B2 5C3D         6341           SHL     R13,#03h
09B4 F0ED         6342           MOV     R14,R13
09B6 D4C00400     6343           MOV     R12,[R0+#04H]
09BA D4D00600     6344           MOV     R13,[R0+#06H]
09BE 00CE         6345           ADD     R12,R14
09C0 DC4D         6346           EXTP    R13,#01h
09C2 B84C     1   6347           MOV     [R12],R4
                  6348   ; smspdu.c 1057                         pSMSInfo[i].Stat = ME_GetIntSection( begin, "^SMGL:", 2
                         );
                  6349           ?LINE   1057
09C4 88D0         6350           MOV     [-R0],R13
               R  6351           ?SYMB   '',$,96,18
09C6 88C0         6352           MOV     [-R0],R12
               R  6353           ?SYMB   '',$,96,20
09C8 E02E         6354           MOV     R14,#02h
09CA 88E0         6355           MOV     [-R0],R14
               R  6356           ?SYMB   '',$,96,22
09CC F0C8         6357           MOV     R12,R8
09CE F0D9         6358           MOV     R13,R9
09D0 E6FE0000  R  6359           MOV     R14,#POF _400
09D4 E6FF0000  R  6360           MOV     R15,#PAG _400
09D8 DA000000  R  6361           CALLS   SEG _ME_GetIntSection,_ME_GetIntSection
               R  6362           ?SYMB   '',$,102,3
09DC 0802         6363           ADD     R0,#02h
               R  6364           ?SYMB   '',$,96,20
09DE 98C0         6365           MOV     R12,[R0+]
               R  6366           ?SYMB   '',$,96,18
09E0 98D0         6367           MOV     R13,[R0+]
               R  6368           ?SYMB   '',$,96,16
09E2 DC4D         6369           EXTP    R13,#01h
09E4 C44C0200 1   6370           MOV     [R12+#02H],R4
                  6371   ; smspdu.c 1058                 }
                  6372           ?LINE   1058
09E8              6373   _439:
                  6374   ; smspdu.c 1059 
                  6375   ; smspdu.c 1060                 if ( pSMSInfo[i].Index == -1 || pSMSInfo[i].Stat == -1 )
                  6376           ?LINE   1060
09E8 A880         6377           MOV     R8,[R0]
09EA F098         6378           MOV     R9,R8
09EC 5C59         6379           SHL     R9,#05h
09EE 0098         6380           ADD     R9,R8
09F0 5C39         6381           SHL     R9,#03h
09F2 D4E00400     6382           MOV     R14,[R0+#04H]
09F6 D4F00600     6383           MOV     R15,[R0+#06H]
09FA 00E9         6384           ADD     R14,R9
09FC DC4F         6385           EXTP    R15,#01h
09FE A89E     1   6386           MOV     R9,[R14]
0A00 46F9FFFF     6387           CMP     R9,#0FFFFh
0A04 EA20E00A  R  6388           JMPA    cc_EQ,_453
0A08 DC4F         6389           EXTP    R15,#01h
0A0A D49E0200 1   6390           MOV     R9,[R14+#02H]
0A0E 46F9FFFF     6391           CMP     R9,#0FFFFh
0A12 EA20E00A  R  6392           JMPA    cc_EQ,_453
                  6393   ; smspdu.c 1061                         return i;
                  6394   ; smspdu.c 1062 
                  6395   ; smspdu.c 1063                 begin = end + 2;
                  6396           ?LINE   1063
0A16 F086         6397           MOV     R8,R6
0A18 F097         6398           MOV     R9,R7
0A1A 0882         6399           ADD     R8,#02h
               R  6400           ?SYMB   'R8R9',$,100,3
                  6401   ; smspdu.c 1064 
                  6402   ; smspdu.c 1065                 while ( *begin == '\r')
                  6403           ?LINE   1065
0A1C 0D01         6404           JMPR    cc_UC,_441
0A1E              6405   _440:
               R  6406           ?SYMB   '',$,102,5
                  6407   ; smspdu.c 1066                         begin += 2;
                  6408           ?LINE   1066
0A1E 0882         6409           ADD     R8,#02h
               R  6410           ?SYMB   '',$,102,3
               R  6411           ?SYMB   'R8R9',$,100,3
                  6412           ?LINE   1065
0A20              6413   _441:
0A20 DC49         6414           EXTP    R9,#01h
0A22 A9C8     1   6415           MOVB    RL6,[R8]
0A24 47FC0D00     6416           CMPB    RL6,#0Dh
0A28 2DFA         6417           JMPR    cc_EQ,_440
                  6418   ; smspdu.c 1067 
                  6419   ; smspdu.c 1068                 if ( (strstr( begin, "+CMGL:" ) == begin && tag == 0)
                  6420   ; smspdu.c 1069                         || (strstr( begin, "^SMGL:" ) == begin && tag == 1))
                  6421           ?LINE   1069
0A2A F06F         6422           MOV     R6,R15
0A2C F07E         6423           MOV     R7,R14
0A2E F0C8         6424           MOV     R12,R8
0A30 F0D9         6425           MOV     R13,R9
0A32 E6FE0000  R  6426           MOV     R14,#POF _399
0A36 E6FF0000  R  6427           MOV     R15,#PAG _399
0A3A DA000000  R  6428           CALLS   SEG _strstr,_strstr
0A3E F0E7         6429           MOV     R14,R7
0A40 F0F6         6430           MOV     R15,R6
0A42 2048         6431           SUB     R4,R8
0A44 3059         6432           SUBC    R5,R9
0A46 3D03         6433           JMPR    cc_NE,_442
0A48 D4600200     6434           MOV     R6,[R0+#02H]
0A4C 2D13         6435           JMPR    cc_Z,_443
0A4E              6436   _442:
0A4E F06E         6437           MOV     R6,R14
0A50 F07F         6438           MOV     R7,R15
0A52 F0C8         6439           MOV     R12,R8
0A54 F0D9         6440           MOV     R13,R9
0A56 E6FE0000  R  6441           MOV     R14,#POF _400
0A5A E6FF0000  R  6442           MOV     R15,#PAG _400
0A5E DA000000  R  6443           CALLS   SEG _strstr,_strstr
0A62 F0F7         6444           MOV     R15,R7
0A64 F0E6         6445           MOV     R14,R6
0A66 2048         6446           SUB     R4,R8
0A68 3059         6447           SUBC    R5,R9
0A6A 3D08         6448           JMPR    cc_NE,_445
0A6C D4600200     6449           MOV     R6,[R0+#02H]
0A70 4861         6450           CMP     R6,#01h
0A72 3D04         6451           JMPR    cc_NE,_445
0A74              6452   _443:
                  6453   ; smspdu.c 1070                 {
                  6454   ; smspdu.c 1071                         end = begin-2;
                  6455           ?LINE   1071
0A74 F068         6456           MOV     R6,R8
0A76 F079         6457           MOV     R7,R9
0A78 2862         6458           SUB     R6,#02h
               R  6459           ?SYMB   'R6R7',$,100,5
                  6460   ; smspdu.c 1072                         continue;
                  6461           ?LINE   1072
0A7A 0D29         6462           JMPR    cc_UC,_446
                  6463   ; smspdu.c 1073                 }
                  6464           ?LINE   1073
0A7C              6465   _445:
               R  6466           ?SYMB   '',$,102,3
               R  6467           ?SYMB   '',$,102,5
               R  6468           ?SYMB   'R8R9',$,100,3
                  6469   ; smspdu.c 1074 
                  6470   ; smspdu.c 1075                 if ( strlen( begin ) == 0 )
                  6471           ?LINE   1075
0A7C F06E         6472           MOV     R6,R14
0A7E F07F         6473           MOV     R7,R15
0A80 F0C8         6474           MOV     R12,R8
0A82 F0D9         6475           MOV     R13,R9
0A84 DA000000  R  6476           CALLS   SEG _strlen,_strlen
0A88 F0F7         6477           MOV     R15,R7
0A8A F0E6         6478           MOV     R14,R6
0A8C 4840         6479           CMP     R4,#00h
0A8E 2D28         6480           JMPR    cc_Z,_453
                  6481   ; smspdu.c 1076                         return i;
                  6482   ; smspdu.c 1077 
                  6483   ; smspdu.c 1078                 end = strchr( begin, '\r' );
                  6484           ?LINE   1078
0A90 88F0         6485           MOV     [-R0],R15
               R  6486           ?SYMB   '',$,96,18
0A92 88E0         6487           MOV     [-R0],R14
               R  6488           ?SYMB   '',$,96,20
0A94 F0C8         6489           MOV     R12,R8
0A96 F0D9         6490           MOV     R13,R9
0A98 E0DE         6491           MOV     R14,#0Dh
0A9A DA000000  R  6492           CALLS   SEG _strchr,_strchr
0A9E F064         6493           MOV     R6,R4
0AA0 F075         6494           MOV     R7,R5
               R  6495           ?SYMB   'R6R7',$,100,5
0AA2 98E0         6496           MOV     R14,[R0+]
               R  6497           ?SYMB   '',$,96,18
0AA4 98F0         6498           MOV     R15,[R0+]
               R  6499           ?SYMB   '',$,96,16
                  6500   ; smspdu.c 1079 
                  6501   ; smspdu.c 1080                 if ( end == NULL )
                  6502           ?LINE   1080
0AA6 F0C7         6503           MOV     R12,R7
0AA8 70C6         6504           OR      R12,R6
0AAA 2D1A         6505           JMPR    cc_Z,_453
                  6506   ; smspdu.c 1081                         return i;
                  6507   ; smspdu.c 1082 
                  6508   ; smspdu.c 1083                 *end = '\0';
                  6509           ?LINE   1083
0AAC E102         6510           MOVB    RL1,#00h
0AAE DC47         6511           EXTP    R7,#01h
0AB0 B926     1   6512           MOVB    [R6],RL1
                  6513   ; smspdu.c 1084 
                  6514   ; smspdu.c 1085                 pSMSInfo[i].ConLen = ME_RecStr_Code( &pSMSInfo[i], begin );
                  6515           ?LINE   1085
0AB2 88F0         6516           MOV     [-R0],R15
               R  6517           ?SYMB   '',$,96,18
0AB4 88E0         6518           MOV     [-R0],R14
               R  6519           ?SYMB   '',$,96,20
0AB6 D4D00200     6520           MOV     R13,[R0+#02H]
0ABA A8C0         6521           MOV     R12,[R0]
0ABC F0E8         6522           MOV     R14,R8
0ABE F0F9         6523           MOV     R15,R9
0AC0 DA005205  R  6524           CALLS   SEG _ME_RecStr_Code,_ME_RecStr_Code
               R  6525           ?SYMB   '',$,102,3
0AC4 98E0         6526           MOV     R14,[R0+]
               R  6527           ?SYMB   '',$,96,18
0AC6 98F0         6528           MOV     R15,[R0+]
               R  6529           ?SYMB   '',$,96,16
0AC8 DC4F         6530           EXTP    R15,#01h
0ACA C44E0800 1   6531           MOV     [R14+#08H],R4
                  6532           ?LINE   1032
0ACE              6533   _446:
0ACE A880         6534           MOV     R8,[R0]
0AD0 0881         6535           ADD     R8,#01h
0AD2 B880         6536           MOV     [R0],R8
0AD4              6537   _447:
0AD4 A880         6538           MOV     R8,[R0]
0AD6 D4901000     6539           MOV     R9,[R0+#010H]
0ADA 4089         6540           CMP     R8,R9
0ADC EAC0FA08  R  6541           JMPA    cc_SLT,_435
               R  6542           ?SYMB   '',$,102,6
               R  6543           ?SYMB   '',$,102,2
               R  6544           ?SYMB   '',$,102,1
                  6545   ; smspdu.c 1086         }
                  6546   ; smspdu.c 1087 
                  6547   ; smspdu.c 1088         return i;
                  6548           ?LINE   1088
0AE0              6549   _453:
               R  6550           ?SYMB   '',$,102,5
0AE0 A840         6551           MOV     R4,[R0]
                  6552   ; smspdu.c 1089 }
                  6553           ?LINE   1089
0AE2              6554   _455:
0AE2 06F00800     6555           ADD     R0,#08h
               R  6556           ?SYMB   '',$,96,8
0AE6 9860         6557           MOV     R6,[R0+]
               R  6558           ?SYMB   '',$,96,6
0AE8 9870         6559           MOV     R7,[R0+]
               R  6560           ?SYMB   '',$,96,4
0AEA 9880         6561           MOV     R8,[R0+]
               R  6562           ?SYMB   '',$,96,2
0AEC 9890         6563           MOV     R9,[R0+]
               R  6564           ?SYMB   '',$,96,0
0AEE DB00         6565           RETS
                  6566   _ME_RecLstStr_Code      ENDP
               R  6567           ?SYMB   '',$,17,1089
                  6568   ; smspdu.c 1090 
                  6569   ; smspdu.c 1091 int Analyse_UCS2PDUCode(char* pPDU, char* pUCS, int nBufLen)
                  6570   ; smspdu.c 1092 {
                  6571           ?LINE   1092
                  6572           PUBLIC  _Analyse_UCS2PDUCode
               R  6573           ?SYMB   'Analyse_UCS2PDUCode',_Analyse_UCS2PDUCode,37,16
                  6574           ?SYMB   '',1092,8,34
                  6575   _Analyse_UCS2PDUCode    PROC    FAR
                  6576           ?SYMB   '',03c0H,95,0
0AF0 8890         6577           MOV     [-R0],R9
               R  6578           ?SYMB   '',$,96,2
0AF2 8880         6579           MOV     [-R0],R8
               R  6580           ?SYMB   '',$,96,4
0AF4 8870         6581           MOV     [-R0],R7
               R  6582           ?SYMB   '',$,96,6
0AF6 8860         6583           MOV     [-R0],R6
               R  6584           ?SYMB   '',$,96,8
0AF8 88D0         6585           MOV     [-R0],R13
               R  6586           ?SYMB   '',$,96,10
0AFA 88C0         6587           MOV     [-R0],R12
               R  6588           ?SYMB   '',$,96,12
0AFC 26F01000     6589           SUB     R0,#010h
               R  6590           ?SYMB   '',$,96,28
0B00 F09F         6591           MOV     R9,R15
0B02 F08E         6592           MOV     R8,R14
                  6593   ; Locals:
                  6594   ;     TempBuf = offset 0
                  6595   ;     endchar = offset 6
                  6596   ; 
                  6597   ; Statics:
                  6598   ; 
                  6599   ; CSEs:
                  6600   ;     nPDULen = R8
                  6601   ;     pUCS = R8R9
                  6602   ;     pBegin = R6R7
                  6603   ;     pPDU = offset 16
                  6604   ;     j = R12
                  6605   ;     i = R9
                  6606   ;     pEnd = R8R9
                  6607   ;     pUCS + 1 = R12R13
                  6608   ;     AddNum = R12
                  6609   ;     CharCount = offset 10
                  6610   ;     BaseNum = offset 14
                  6611   ;     nBufLen = offset 28
                  6612   ; 
                  6613           ?SYMB   'pPDU',6,99,263
                  6614           ?SYMB   'pUCS',11,99,263
                  6615           ?SYMB   'nBufLen',7,99,16
                  6616           ?SYMB   'pBegin',10,98,263
                  6617           ?SYMB   'pEnd',9,98,263
                  6618           ?SYMB   '',024e0002H,5,589
                  6619           ?SYMB   '',16,47,590
                  6620           ?SYMB   '',0,30,0
                  6621           ?SYMB   '',4,49,0
                  6622           ?SYMB   'TempBuf',13,98,589
               R  6623           ?SYMB   '-1c',$,101,13
                  6624           ?SYMB   'nPDULen',8,98,16
                  6625           ?SYMB   'endchar',12,98,263
               R  6626           ?SYMB   '-16',$,101,12
                  6627           ?SYMB   'CharCount',5,98,6
                  6628           ?SYMB   'BaseNum',4,98,16
                  6629           ?SYMB   'i',3,98,16
                  6630           ?SYMB   'AddNum',2,98,16
                  6631           ?SYMB   'j',1,98,16
               R  6632           ?SYMB   'R8R9',$,100,11
               R  6633           ?SYMB   '0',$,101,7
               R  6634           ?SYMB   '-c',$,101,6
                  6635   ; smspdu.c 1093         char *pBegin, *pEnd;
                  6636   ; smspdu.c 1094         char TempBuf[5];
                  6637   ; smspdu.c 1095         int nPDULen;
                  6638   ; smspdu.c 1096         char *endchar;
                  6639   ; smspdu.c 1097         long CharCount;
                  6640   ; smspdu.c 1098         int BaseNum, i, AddNum,j;
                  6641   ; smspdu.c 1099 
                  6642   ; smspdu.c 1100         // UCS2
                  6643   ; smspdu.c 1101         if (pUCS[0]!='8' || (pUCS[0]=='8' && pUCS[1]!='0' && pUCS[1]!='1'))
                  6644           ?LINE   1101
0B04 DC49         6645           EXTP    R9,#01h
0B06 A928     1   6646           MOVB    RL1,[R8]
0B08 47F23800     6647           CMPB    RL1,#038h
0B0C 3D12         6648           JMPR    cc_NE,_478
0B0E DC49         6649           EXTP    R9,#01h
0B10 A928     1   6650           MOVB    RL1,[R8]
0B12 47F23800     6651           CMPB    RL1,#038h
0B16 3D11         6652           JMPR    cc_NE,_481
0B18 F0C8         6653           MOV     R12,R8
0B1A F0D9         6654           MOV     R13,R9
0B1C 08C1         6655           ADD     R12,#01h
0B1E DC4D         6656           EXTP    R13,#01h
0B20 A92C     1   6657           MOVB    RL1,[R12]
0B22 47F23000     6658           CMPB    RL1,#030h
0B26 2D09         6659           JMPR    cc_EQ,_481
0B28 DC4D         6660           EXTP    R13,#01h
0B2A A92C     1   6661           MOVB    RL1,[R12]
0B2C 47F23100     6662           CMPB    RL1,#031h
0B30 2D04         6663           JMPR    cc_EQ,_481
               R  6664           ?SYMB   '',$,102,7
               R  6665           ?SYMB   '',$,102,6
0B32              6666   _478:
               R  6667           ?SYMB   '',$,102,11
                  6668   ; smspdu.c 1102                 return -2;
                  6669           ?LINE   1102
0B32 E6F4FEFF     6670           MOV     R4,#0FFFEh
0B36 EA00E60D  R  6671           JMPA    cc_UC,_496
0B3A              6672   _481:
               R  6673           ?SYMB   'R8R9',$,100,11
               R  6674           ?SYMB   '0',$,101,7
               R  6675           ?SYMB   '-c',$,101,6
                  6676   ; smspdu.c 1103         
                  6677   ; smspdu.c 1104         // UCS2
                  6678   ; smspdu.c 1105         if (pUCS[0]=='8' && pUCS[1]=='0')
                  6679           ?LINE   1105
0B3A DC49         6680           EXTP    R9,#01h
0B3C A9C8     1   6681           MOVB    RL6,[R8]
0B3E 47FC3800     6682           CMPB    RL6,#038h
0B42 3D38         6683           JMPR    cc_NE,_485
0B44 DC49         6684           EXTP    R9,#01h
0B46 F4C80100 1   6685           MOVB    RL6,[R8+#01H]
0B4A 47FC3000     6686           CMPB    RL6,#030h
0B4E 3D32         6687           JMPR    cc_NE,_485
                  6688   ; smspdu.c 1106         {
                  6689   ; smspdu.c 1107                 pBegin = &pUCS[2];
                  6690           ?LINE   1107
0B50 F068         6691           MOV     R6,R8
0B52 F079         6692           MOV     R7,R9
0B54 0862         6693           ADD     R6,#02h
               R  6694           ?SYMB   'R6R7',$,100,10
                  6695   ; smspdu.c 1108                 pEnd = pUCS+strlen(pUCS)-4;
                  6696           ?LINE   1108
0B56 F0C8         6697           MOV     R12,R8
0B58 F0D9         6698           MOV     R13,R9
0B5A DA000000  R  6699           CALLS   SEG _strlen,_strlen
0B5E 0084         6700           ADD     R8,R4
               R  6701           ?SYMB   '',$,102,11
0B60 2884         6702           SUB     R8,#04h
0B62 F0C8         6703           MOV     R12,R8
0B64 F0D9         6704           MOV     R13,R9
               R  6705           ?SYMB   'R8R9',$,100,9
                  6706   ; smspdu.c 1109                 if (strcmp(pEnd, "FFFF") != 0)
                  6707           ?LINE   1109
0B66 F0C8         6708           MOV     R12,R8
0B68 F0D9         6709           MOV     R13,R9
0B6A E6FE0000  R  6710           MOV     R14,#POF _456
0B6E E6FF0000  R  6711           MOV     R15,#PAG _456
0B72 DA000000  R  6712           CALLS   SEG _strcmp,_strcmp
0B76 4840         6713           CMP     R4,#00h
0B78 3D05         6714           JMPR    cc_NZ,_482
                  6715   ; smspdu.c 1110                         return -1;
                  6716   ; smspdu.c 1111                 nPDULen = pEnd-pBegin;
                  6717           ?LINE   1111
0B7A 2086         6718           SUB     R8,R6
               R  6719           ?SYMB   '',$,102,9
               R  6720           ?SYMB   'R8',$,100,8
                  6721   ; smspdu.c 1112                 if (nPDULen >= nBufLen)
                  6722           ?LINE   1112
0B7C D4901C00     6723           MOV     R9,[R0+#01CH]
0B80 4089         6724           CMP     R8,R9
0B82 CD04         6725           JMPR    cc_SLT,_483
               R  6726           ?SYMB   '',$,102,6
                  6727   ; smspdu.c 1113                         return -1;
                  6728           ?LINE   1113
0B84              6729   _482:
               R  6730           ?SYMB   '',$,102,10
               R  6731           ?SYMB   '',$,102,8
0B84 E6F4FFFF     6732           MOV     R4,#0FFFFh
0B88 EA00E60D  R  6733           JMPA    cc_UC,_496
0B8C              6734   _483:
               R  6735           ?SYMB   'R6R7',$,100,10
               R  6736           ?SYMB   'R8',$,100,8
               R  6737           ?SYMB   '-c',$,101,6
                  6738   ; smspdu.c 1114                 memcpy(pPDU, pBegin, nPDULen);
                  6739           ?LINE   1114
0B8C 8880         6740           MOV     [-R0],R8
               R  6741           ?SYMB   '',$,96,30
0B8E D4C01200     6742           MOV     R12,[R0+#012H]
0B92 D4D01400     6743           MOV     R13,[R0+#014H]
0B96 F0E6         6744           MOV     R14,R6
0B98 F0F7         6745           MOV     R15,R7
0B9A DA000000  R  6746           CALLS   SEG _memcpy,_memcpy
               R  6747           ?SYMB   '',$,102,10
0B9E 0802         6748           ADD     R0,#02h
               R  6749           ?SYMB   '',$,96,28
                  6750   ; smspdu.c 1115                 pPDU[nPDULen] = 0;
                  6751           ?LINE   1115
0BA0 E10C         6752           MOVB    RL6,#00h
0BA2 D4901000     6753           MOV     R9,[R0+#010H]
0BA6 D4701200     6754           MOV     R7,[R0+#012H]
0BAA 0098         6755           ADD     R9,R8
0BAC DC47         6756           EXTP    R7,#01h
0BAE B9C9     1   6757           MOVB    [R9],RL6
                  6758   ; smspdu.c 1116                 return nPDULen;
                  6759           ?LINE   1116
0BB0 EA00E40D  R  6760           JMPA    cc_UC,_494
                  6761   ; smspdu.c 1117         }
                  6762           ?LINE   1117
0BB4              6763   _485:
               R  6764           ?SYMB   '',$,102,8
               R  6765           ?SYMB   'R8R9',$,100,11
                  6766   ; smspdu.c 1118 
                  6767   ; smspdu.c 1119         // UCS2GSM
                  6768   ; smspdu.c 1120         memcpy(TempBuf, &pUCS[2], 2);
                  6769           ?LINE   1120
0BB4 E026         6770           MOV     R6,#02h
0BB6 8860         6771           MOV     [-R0],R6
               R  6772           ?SYMB   '',$,96,30
0BB8 E02C         6773           MOV     R12,#02h
0BBA 00C0         6774           ADD     R12,R0
0BBC 66FCFF3F     6775           AND     R12,#03FFFh
0BC0 F2FD02FE     6776           MOV     R13,DPP1
0BC4 F0E8         6777           MOV     R14,R8
0BC6 F0F9         6778           MOV     R15,R9
0BC8 08E2         6779           ADD     R14,#02h
0BCA DA000000  R  6780           CALLS   SEG _memcpy,_memcpy
               R  6781           ?SYMB   '',$,96,28
                  6782   ; smspdu.c 1121         TempBuf[2] = 0;
                  6783           ?LINE   1121
0BCE E10C         6784           MOVB    RL6,#00h
0BD0 E4C00400     6785           MOVB    [R0+#04H],RL6
                  6786   ; smspdu.c 1122         CharCount = strtol(TempBuf, &endchar, 16);
                  6787           ?LINE   1122
0BD4 E6F71000     6788           MOV     R7,#010h
0BD8 B870         6789           MOV     [R0],R7
               R  6790           ?SYMB   '',$,96,30
0BDA E02C         6791           MOV     R12,#02h
0BDC 00C0         6792           ADD     R12,R0
0BDE 66FCFF3F     6793           AND     R12,#03FFFh
0BE2 F2FD02FE     6794           MOV     R13,DPP1
0BE6 E08E         6795           MOV     R14,#08h
0BE8 00E0         6796           ADD     R14,R0
0BEA 66FEFF3F     6797           AND     R14,#03FFFh
0BEE F2FF02FE     6798           MOV     R15,DPP1
0BF2 DA000000  R  6799           CALLS   SEG _strtol,_strtol
               R  6800           ?SYMB   '',$,96,28
0BF6 C4400C00     6801           MOV     [R0+#0CH],R4
0BFA C4500E00     6802           MOV     [R0+#0EH],R5
               R  6803           ?SYMB   '-12',$,101,5
                  6804   ; smspdu.c 1123         memcpy(TempBuf, &pUCS[4], 2);
                  6805           ?LINE   1123
0BFE E026         6806           MOV     R6,#02h
0C00 B860         6807           MOV     [R0],R6
               R  6808           ?SYMB   '',$,96,30
0C02 E02C         6809           MOV     R12,#02h
0C04 00C0         6810           ADD     R12,R0
0C06 66FCFF3F     6811           AND     R12,#03FFFh
0C0A F2FD02FE     6812           MOV     R13,DPP1
0C0E F0E8         6813           MOV     R14,R8
0C10 F0F9         6814           MOV     R15,R9
0C12 08E4         6815           ADD     R14,#04h
0C14 DA000000  R  6816           CALLS   SEG _memcpy,_memcpy
               R  6817           ?SYMB   '',$,96,28
                  6818   ; smspdu.c 1124         TempBuf[2] = 0;
                  6819           ?LINE   1124
0C18 E10C         6820           MOVB    RL6,#00h
0C1A E4C00400     6821           MOVB    [R0+#04H],RL6
                  6822   ; smspdu.c 1125         BaseNum = strtol(TempBuf, &endchar, 16)<<7;
                  6823           ?LINE   1125
0C1E E6F71000     6824           MOV     R7,#010h
0C22 B870         6825           MOV     [R0],R7
               R  6826           ?SYMB   '',$,96,30
0C24 E02C         6827           MOV     R12,#02h
0C26 00C0         6828           ADD     R12,R0
0C28 66FCFF3F     6829           AND     R12,#03FFFh
0C2C F2FD02FE     6830           MOV     R13,DPP1
0C30 E08E         6831           MOV     R14,#08h
0C32 00E0         6832           ADD     R14,R0
0C34 66FEFF3F     6833           AND     R14,#03FFFh
0C38 F2FF02FE     6834           MOV     R15,DPP1
0C3C DA000000  R  6835           CALLS   SEG _strtol,_strtol
0C40 0802         6836           ADD     R0,#02h
               R  6837           ?SYMB   '',$,96,28
0C42 5C74         6838           SHL     R4,#07h
0C44 C4400E00     6839           MOV     [R0+#0EH],R4
               R  6840           ?SYMB   '-e',$,101,4
                  6841   ; smspdu.c 1126         pBegin = &pUCS[6];
                  6842           ?LINE   1126
0C48 F068         6843           MOV     R6,R8
0C4A F079         6844           MOV     R7,R9
0C4C 0866         6845           ADD     R6,#06h
               R  6846           ?SYMB   'R6R7',$,100,10
                  6847   ; smspdu.c 1127         nPDULen = 0;
                  6848           ?LINE   1127
0C4E E008         6849           MOV     R8,#00h
               R  6850           ?SYMB   '',$,102,11
               R  6851           ?SYMB   'R8',$,100,8
                  6852   ; smspdu.c 1128         for (i=0; i<CharCount; i++)
                  6853           ?LINE   1128
0C50 E009         6854           MOV     R9,#00h
               R  6855           ?SYMB   'R9',$,100,3
0C52 EA00B20D  R  6856           JMPA    cc_UC,_493
0C56              6857   _486:
                  6858   ; smspdu.c 1129         {
                  6859   ; smspdu.c 1130                 if (*pBegin < '8')
                  6860           ?LINE   1130
0C56 DC47         6861           EXTP    R7,#01h
0C58 A926     1   6862           MOVB    RL1,[R6]
0C5A 47F23800     6863           CMPB    RL1,#038h
0C5E DD1D         6864           JMPR    cc_SGE,_487
                  6865   ; smspdu.c 1131                 {
                  6866   ; smspdu.c 1132                         memcpy(&pPDU[nPDULen], "00", 2);
                  6867           ?LINE   1132
0C60 E02C         6868           MOV     R12,#02h
0C62 88C0         6869           MOV     [-R0],R12
               R  6870           ?SYMB   '',$,96,30
0C64 D4C01200     6871           MOV     R12,[R0+#012H]
0C68 D4D01400     6872           MOV     R13,[R0+#014H]
0C6C 00C8         6873           ADD     R12,R8
0C6E E6FE0000  R  6874           MOV     R14,#POF _18
0C72 E6FF0000  R  6875           MOV     R15,#PAG _18
0C76 DA000000  R  6876           CALLS   SEG _memcpy,_memcpy
               R  6877           ?SYMB   '',$,96,28
                  6878   ; smspdu.c 1133                         nPDULen += 2;
                  6879           ?LINE   1133
0C7A 0882         6880           ADD     R8,#02h
               R  6881           ?SYMB   '',$,102,8
               R  6882           ?SYMB   'R8',$,100,8
                  6883   ; smspdu.c 1134                         memcpy(&pPDU[nPDULen], pBegin, 2);
                  6884           ?LINE   1134
0C7C E02C         6885           MOV     R12,#02h
0C7E B8C0         6886           MOV     [R0],R12
               R  6887           ?SYMB   '',$,96,30
0C80 D4C01200     6888           MOV     R12,[R0+#012H]
0C84 D4D01400     6889           MOV     R13,[R0+#014H]
0C88 00C8         6890           ADD     R12,R8
0C8A F0E6         6891           MOV     R14,R6
0C8C F0F7         6892           MOV     R15,R7
0C8E DA000000  R  6893           CALLS   SEG _memcpy,_memcpy
0C92 0802         6894           ADD     R0,#02h
               R  6895           ?SYMB   '',$,96,28
                  6896   ; smspdu.c 1135                         nPDULen += 2;
                  6897           ?LINE   1135
0C94 0882         6898           ADD     R8,#02h
               R  6899           ?SYMB   '',$,102,8
               R  6900           ?SYMB   'R8',$,100,8
                  6901   ; smspdu.c 1136                         pBegin += 2;
                  6902           ?LINE   1136
0C96 EA00AE0D  R  6903           JMPA    cc_UC,_492
                  6904   ; smspdu.c 1137                 }
                  6905           ?LINE   1137
0C9A              6906   _487:
                  6907   ; smspdu.c 1138                 else
                  6908   ; smspdu.c 1139                 {
                  6909   ; smspdu.c 1140                         memcpy(TempBuf, pBegin, 2);
                  6910           ?LINE   1140
0C9A E02C         6911           MOV     R12,#02h
0C9C 88C0         6912           MOV     [-R0],R12
               R  6913           ?SYMB   '',$,96,30
0C9E 00C0         6914           ADD     R12,R0
0CA0 66FCFF3F     6915           AND     R12,#03FFFh
0CA4 F2FD02FE     6916           MOV     R13,DPP1
0CA8 F0E6         6917           MOV     R14,R6
0CAA F0F7         6918           MOV     R15,R7
0CAC DA000000  R  6919           CALLS   SEG _memcpy,_memcpy
               R  6920           ?SYMB   '',$,96,28
                  6921   ; smspdu.c 1141                         TempBuf[2] = 0;
                  6922           ?LINE   1141
0CB0 E102         6923           MOVB    RL1,#00h
0CB2 E4200400     6924           MOVB    [R0+#04H],RL1
                  6925   ; smspdu.c 1142                         AddNum = strtol(TempBuf, &endchar, 16)-128;
                  6926           ?LINE   1142
0CB6 E6FD1000     6927           MOV     R13,#010h
0CBA B8D0         6928           MOV     [R0],R13
               R  6929           ?SYMB   '',$,96,30
0CBC E02C         6930           MOV     R12,#02h
0CBE 00C0         6931           ADD     R12,R0
0CC0 66FCFF3F     6932           AND     R12,#03FFFh
0CC4 F2FD02FE     6933           MOV     R13,DPP1
0CC8 E08E         6934           MOV     R14,#08h
0CCA 00E0         6935           ADD     R14,R0
0CCC 66FEFF3F     6936           AND     R14,#03FFFh
0CD0 F2FF02FE     6937           MOV     R15,DPP1
0CD4 DA000000  R  6938           CALLS   SEG _strtol,_strtol
               R  6939           ?SYMB   '',$,96,28
0CD8 F0C4         6940           MOV     R12,R4
0CDA 26FC8000     6941           SUB     R12,#080h
               R  6942           ?SYMB   'R12',$,100,2
                  6943   ; smspdu.c 1143                         sprintf( TempBuf, "%X", BaseNum+AddNum );
                  6944           ?LINE   1143
0CDE D4D01000     6945           MOV     R13,[R0+#010H]
0CE2 00DC         6946           ADD     R13,R12
0CE4 B8D0         6947           MOV     [R0],R13
               R  6948           ?SYMB   '',$,96,30
0CE6 E02C         6949           MOV     R12,#02h
               R  6950           ?SYMB   '',$,102,2
0CE8 00C0         6951           ADD     R12,R0
0CEA 66FCFF3F     6952           AND     R12,#03FFFh
0CEE F2FD02FE     6953           MOV     R13,DPP1
0CF2 E6FE0000  R  6954           MOV     R14,#POF _457
0CF6 E6FF0000  R  6955           MOV     R15,#PAG _457
0CFA DA000000  R  6956           CALLS   SEG _sprintfex,_sprintfex
0CFE 0802         6957           ADD     R0,#02h
               R  6958           ?SYMB   '',$,96,28
                  6959   ; smspdu.c 1144 //                      itoa(BaseNum+AddNum, TempBuf, 16);
                  6960   ; smspdu.c 1145                         if (strlen(TempBuf) == 4)
                  6961           ?LINE   1145
0D00 F0C0         6962           MOV     R12,R0
0D02 66FCFF3F     6963           AND     R12,#03FFFh
0D06 F2FD02FE     6964           MOV     R13,DPP1
0D0A DA000000  R  6965           CALLS   SEG _strlen,_strlen
0D0E 4844         6966           CMP     R4,#04h
0D10 3D12         6967           JMPR    cc_NE,_488
                  6968   ; smspdu.c 1146                         {
                  6969   ; smspdu.c 1147                                 memcpy(&pPDU[nPDULen], TempBuf, 4);
                  6970           ?LINE   1147
0D12 E04C         6971           MOV     R12,#04h
0D14 88C0         6972           MOV     [-R0],R12
               R  6973           ?SYMB   '',$,96,30
0D16 D4C01200     6974           MOV     R12,[R0+#012H]
0D1A D4D01400     6975           MOV     R13,[R0+#014H]
0D1E 00C8         6976           ADD     R12,R8
0D20 E02E         6977           MOV     R14,#02h
0D22 00E0         6978           ADD     R14,R0
0D24 66FEFF3F     6979           AND     R14,#03FFFh
0D28 F2FF02FE     6980           MOV     R15,DPP1
0D2C DA000000  R  6981           CALLS   SEG _memcpy,_memcpy
0D30 0802         6982           ADD     R0,#02h
               R  6983           ?SYMB   '',$,96,28
                  6984   ; smspdu.c 1148                                 nPDULen += 4;
                  6985           ?LINE   1148
0D32 0884         6986           ADD     R8,#04h
               R  6987           ?SYMB   '',$,102,8
               R  6988           ?SYMB   'R8',$,100,8
                  6989   ; smspdu.c 1149                         }
                  6990           ?LINE   1149
0D34 0D3C         6991           JMPR    cc_UC,_492
0D36              6992   _488:
                  6993   ; smspdu.c 1150                         else
                  6994   ; smspdu.c 1151                         {
                  6995   ; smspdu.c 1152                                 for (j=0; j<(int)(4-strlen(TempBuf)); j++)
                  6996           ?LINE   1152
0D36 E00C         6997           MOV     R12,#00h
               R  6998           ?SYMB   'R12',$,100,1
0D38 0D0C         6999           JMPR    cc_UC,_490
0D3A              7000   _489:
                  7001   ; smspdu.c 1153                                 {
                  7002   ; smspdu.c 1154                                         pPDU[nPDULen++] = '0';
                  7003           ?LINE   1154
0D3A E7F23000     7004           MOVB    RL1,#030h
0D3E F0D8         7005           MOV     R13,R8
0D40 0881         7006           ADD     R8,#01h
               R  7007           ?SYMB   '',$,102,8
               R  7008           ?SYMB   'R8',$,100,8
0D42 D4E01000     7009           MOV     R14,[R0+#010H]
0D46 D4F01200     7010           MOV     R15,[R0+#012H]
0D4A 00ED         7011           ADD     R14,R13
0D4C DC4F         7012           EXTP    R15,#01h
0D4E B92E     1   7013           MOVB    [R14],RL1
                  7014           ?LINE   1152
0D50 08C1         7015           ADD     R12,#01h
               R  7016           ?SYMB   '',$,102,1
               R  7017           ?SYMB   'R12',$,100,1
0D52              7018   _490:
0D52 88C0         7019           MOV     [-R0],R12
               R  7020           ?SYMB   '',$,96,30
0D54 E02C         7021           MOV     R12,#02h
               R  7022           ?SYMB   '',$,102,1
0D56 00C0         7023           ADD     R12,R0
0D58 66FCFF3F     7024           AND     R12,#03FFFh
0D5C F2FD02FE     7025           MOV     R13,DPP1
0D60 DA000000  R  7026           CALLS   SEG _strlen,_strlen
0D64 E04C         7027           MOV     R12,#04h
0D66 20C4         7028           SUB     R12,R4
0D68 A8D0         7029           MOV     R13,[R0]
0D6A F0EC         7030           MOV     R14,R12
0D6C 98C0         7031           MOV     R12,[R0+]
               R  7032           ?SYMB   '',$,96,28
               R  7033           ?SYMB   'R12',$,100,1
0D6E 40ED         7034           CMP     R14,R13
0D70 ADE4         7035           JMPR    cc_SGT,_489
                  7036   ; smspdu.c 1155                                 }
                  7037   ; smspdu.c 1156                                 memcpy(&pPDU[nPDULen], TempBuf, strlen(TempBuf)
                         );
                  7038           ?LINE   1156
0D72 F0C0         7039           MOV     R12,R0
               R  7040           ?SYMB   '',$,102,1
0D74 66FCFF3F     7041           AND     R12,#03FFFh
0D78 F2FD02FE     7042           MOV     R13,DPP1
0D7C DA000000  R  7043           CALLS   SEG _strlen,_strlen
0D80 8840         7044           MOV     [-R0],R4
               R  7045           ?SYMB   '',$,96,30
0D82 D4C01200     7046           MOV     R12,[R0+#012H]
0D86 D4D01400     7047           MOV     R13,[R0+#014H]
0D8A 00C8         7048           ADD     R12,R8
0D8C E02E         7049           MOV     R14,#02h
0D8E 00E0         7050           ADD     R14,R0
0D90 66FEFF3F     7051           AND     R14,#03FFFh
0D94 F2FF02FE     7052           MOV     R15,DPP1
0D98 DA000000  R  7053           CALLS   SEG _memcpy,_memcpy
0D9C 0802         7054           ADD     R0,#02h
               R  7055           ?SYMB   '',$,96,28
                  7056   ; smspdu.c 1157                                 nPDULen += strlen(TempBuf);
                  7057           ?LINE   1157
0D9E F0C0         7058           MOV     R12,R0
0DA0 66FCFF3F     7059           AND     R12,#03FFFh
0DA4 F2FD02FE     7060           MOV     R13,DPP1
0DA8 DA000000  R  7061           CALLS   SEG _strlen,_strlen
0DAC 0084         7062           ADD     R8,R4
               R  7063           ?SYMB   '',$,102,8
               R  7064           ?SYMB   'R8',$,100,8
                  7065   ; smspdu.c 1158                         }
                  7066           ?LINE   1158
0DAE              7067   _492:
                  7068   ; smspdu.c 1159                         pBegin += 2;
                  7069           ?LINE   1159
0DAE 0862         7070           ADD     R6,#02h
               R  7071           ?SYMB   '',$,102,10
               R  7072           ?SYMB   'R6R7',$,100,10
                  7073           ?LINE   1128
0DB0 0891         7074           ADD     R9,#01h
               R  7075           ?SYMB   '',$,102,3
               R  7076           ?SYMB   'R9',$,100,3
0DB2              7077   _493:
0DB2 D4C00A00     7078           MOV     R12,[R0+#0AH]
0DB6 D4D00C00     7079           MOV     R13,[R0+#0CH]
0DBA F0E9         7080           MOV     R14,R9
0DBC F0FE         7081           MOV     R15,R14
0DBE BCFF         7082           ASHR    R15,#0Fh
0DC0 20EC         7083           SUB     R14,R12
0DC2 30FD         7084           SUBC    R15,R13
0DC4 EAC0560C  R  7085           JMPA    cc_SLT,_486
               R  7086           ?SYMB   '',$,102,5
               R  7087           ?SYMB   '',$,102,4
                  7088   ; smspdu.c 1160                 }
                  7089   ; smspdu.c 1161         }
                  7090   ; smspdu.c 1162         pPDU[nPDULen] = 0;
                  7091           ?LINE   1162
0DC8 E10C         7092           MOVB    RL6,#00h
               R  7093           ?SYMB   '',$,102,10
0DCA D4901000     7094           MOV     R9,[R0+#010H]
               R  7095           ?SYMB   '',$,102,3
0DCE D4701200     7096           MOV     R7,[R0+#012H]
0DD2 0098         7097           ADD     R9,R8
0DD4 DC47         7098           EXTP    R7,#01h
0DD6 B9C9     1   7099           MOVB    [R9],RL6
                  7100   ; smspdu.c 1163         strupr( pPDU );
                  7101           ?LINE   1163
0DD8 D4C01000     7102           MOV     R12,[R0+#010H]
0DDC D4D01200     7103           MOV     R13,[R0+#012H]
0DE0 DA000000  R  7104           CALLS   SEG _strupr,_strupr
                  7105   ; smspdu.c 1164 
                  7106   ; smspdu.c 1165         return nPDULen;
                  7107           ?LINE   1165
0DE4              7108   _494:
0DE4 F048         7109           MOV     R4,R8
                  7110   ; smspdu.c 1166 }
                  7111           ?LINE   1166
0DE6              7112   _496:
               R  7113           ?SYMB   '',$,102,8
               R  7114           ?SYMB   '',$,102,12
               R  7115           ?SYMB   '',$,102,13
0DE6 06F01400     7116           ADD     R0,#014h
               R  7117           ?SYMB   '',$,96,8
0DEA 9860         7118           MOV     R6,[R0+]
               R  7119           ?SYMB   '',$,96,6
0DEC 9870         7120           MOV     R7,[R0+]
               R  7121           ?SYMB   '',$,96,4
0DEE 9880         7122           MOV     R8,[R0+]
               R  7123           ?SYMB   '',$,96,2
0DF0 9890         7124           MOV     R9,[R0+]
               R  7125           ?SYMB   '',$,96,0
0DF2 DB00         7126           RETS
                  7127   _Analyse_UCS2PDUCode    ENDP
               R  7128           ?SYMB   '',$,17,1166
                  7129   SMSPDU_3_PR     ENDS
                  7130   
                  7131   SMSPDU_2_CO     SECTION DATA
0048 323100       7132   _11     DB      032h,031h,00h
004B 0D0A4753     7133   _293    DB      0Dh,0Ah,047h,053h,04Dh,073h,074h,072h,032h,041h
004F 4D737472    
0053 3241        
0055 53434949     7134           DB      053h,043h,049h,049h,073h,074h,072h,03Ah,020h,06Dh
0059 7374723A    
005D 206D        
005F 616C6C6F     7135           DB      061h,06Ch,06Ch,06Fh,063h,020h,065h,06Eh,064h,00h
0063 6320656E    
0067 6400        
0069 323200       7136   _12     DB      032h,032h,00h
006C 0D0A4269     7137   _220    DB      0Dh,0Ah,042h,069h,06Eh,053h,074h,072h,032h,053h
0070 6E537472    
0074 3253        
0076 7472696E     7138           DB      074h,072h,069h,06Eh,067h,03Ah,020h,06Dh,061h,06Ch
007A 673A206D    
007E 616C        
0080 6C6F6320     7139           DB      06Ch,06Fh,063h,020h,065h,06Eh,064h,00h
0084 656E6400    
0088 323400       7140   _13     DB      032h,034h,00h
008B 323500       7141   _14     DB      032h,035h,00h
008E 323600       7142   _15     DB      032h,036h,00h
0091 333100       7143   _16     DB      033h,031h,00h
0094 333200       7144   _17     DB      033h,032h,00h
0097 2B434D47     7145   _399    DB      02Bh,043h,04Dh,047h,04Ch,03Ah,00h
009B 4C3A00      
009E 413100       7146   _4      DB      041h,031h,00h
00A1 25303278     7147   _20     DB      025h,030h,032h,078h,00h
00A5 00          
00A6 0D0A4269     7148   _219    DB      0Dh,0Ah,042h,069h,06Eh,053h,074h,072h,032h,053h
00AA 6E537472    
00AE 3253        
00B0 7472696E     7149           DB      074h,072h,069h,06Eh,067h,03Ah,020h,06Dh,061h,06Ch
00B4 673A206D    
00B8 616C        
00BA 6C6F6320     7150           DB      06Ch,06Fh,063h,020h,062h,065h,067h,069h,06Eh,00h
00BE 62656769    
00C2 6E00        
00C4 2B00         7151   _105    DB      02Bh,00h
00C6 255800       7152   _457    DB      025h,058h,00h
00C9 0D0A4153     7153   _231    DB      0Dh,0Ah,041h,053h,043h,049h,049h,073h,074h,072h
00CD 43494973    
00D1 7472        
00D3 3247534D     7154           DB      032h,047h,053h,04Dh,073h,074h,072h,03Ah,020h,06Dh
00D7 7374723A    
00DB 206D        
00DD 616C6C6F     7155           DB      061h,06Ch,06Ch,06Fh,063h,020h,062h,065h,067h,069h
00E1 63206265    
00E5 6769        
00E7 6E00         7156           DB      06Eh,00h
00E9 0D0A7374     7157   _233    DB      0Dh,0Ah,073h,074h,072h,05Fh,06Ch,065h,06Eh,020h
00ED 725F6C65    
00F1 6E20        
00F3 3D202564     7158           DB      03Dh,020h,025h,064h,00h
00F7 00          
00F8 31313030     7159   _7      DB      031h,031h,030h,030h,00h
00FC 00          
00FD 33313030     7160   _6      DB      033h,031h,030h,030h,00h
0101 00          
0102 433800       7161   _19     DB      043h,038h,00h
0105 39313030     7162   _9      DB      039h,031h,030h,030h,00h
0109 00          
010A 42313030     7163   _8      DB      042h,031h,030h,030h,00h
010E 00          
010F 0D0A5372     7164   _232    DB      0Dh,0Ah,053h,072h,063h,073h,074h,072h,020h,03Dh
0113 63737472    
0117 203D        
0119 20222573     7165           DB      020h,022h,025h,073h,022h,00h
011D 2200        
011F 5E534D47     7166   _383    DB      05Eh,053h,04Dh,047h,052h,03Ah,00h
0123 523A00      
0126 393100       7167   _3      DB      039h,031h,00h
0129 46464646     7168   _456    DB      046h,046h,046h,046h,00h
012D 00          
012E 0D0A4153     7169   _234    DB      0Dh,0Ah,041h,053h,043h,049h,049h,073h,074h,072h
0132 43494973    
0136 7472        
0138 3247534D     7170           DB      032h,047h,053h,04Dh,073h,074h,072h,03Ah,020h,06Dh
013C 7374723A    
0140 206D        
0142 616C6C6F     7171           DB      061h,06Ch,06Ch,06Fh,063h,020h,065h,06Eh,064h,00h
0146 6320656E    
014A 6400        
014C 5E534D47     7172   _400    DB      05Eh,053h,04Dh,047h,04Ch,03Ah,00h
0150 4C3A00      
0153 0D0A4753     7173   _292    DB      0Dh,0Ah,047h,053h,04Dh,073h,074h,072h,032h,041h
0157 4D737472    
015B 3241        
015D 53434949     7174           DB      053h,043h,049h,049h,073h,074h,072h,03Ah,020h,06Dh
0161 7374723A    
0165 206D        
0167 616C6C6F     7175           DB      061h,06Ch,06Ch,06Fh,063h,020h,062h,065h,067h,069h
016B 63206265    
016F 6769        
0171 6E00         7176           DB      06Eh,00h
0173 2B434D47     7177   _382    DB      02Bh,043h,04Dh,047h,052h,03Ah,00h
0177 523A00      
017A 303000       7178   _18     DB      030h,030h,00h
017D 303800       7179   _5      DB      030h,038h,00h
0180 304200       7180   _10     DB      030h,042h,00h
                  7181   SMSPDU_2_CO     ENDS
                  7182   
                  7183           EXTERN  _strchr:FAR
                  7184           EXTERN  _ME_GetIntSection:FAR
                  7185           EXTERN  _strlen:FAR
                  7186           EXTERN  _strcat:FAR
                  7187           EXTERN  _os_malloc:FAR
                  7188           EXTERN  _strncpy:FAR
                  7189           EXTERN  _strcmp:FAR
                  7190           EXTERN  _sprintfex:FAR
                  7191           EXTERN  _os_free:FAR
                  7192           EXTERN  _strcpy:FAR
                  7193           EXTERN  _MultiByteToWideChar:FAR
                  7194           EXTERN  _memset:FAR
                  7195           EXTERN  _WideCharToMultiByte:FAR
                  7196           EXTERN  _strtol:FAR
                  7197           EXTERN  _debugex_nonl:FAR
                  7198           EXTERN  _strupr:FAR
                  7199           EXTERN  _strstr:FAR
                  7200           EXTERN  _memcmp:FAR
                  7201           EXTERN  _memcpy:FAR
                  7202           REGDEF  R0-R15
                  7203           END

total errors: 0, warnings: 0

